 dll1

 Timestamp is 58d584fc (Fri Mar 24 22:43:40 2017)

 Preferred load address is 10000000

 Start         Length     Name                   Class
 0001:00000000 000823f9H .textbss                DATA
 0002:00000000 0000e230H .text$di                CODE
 0002:0000e230 00103a10H .text$mn                CODE
 0002:00111c40 00006450H .text$x                 CODE
 0002:00118090 000010d0H .text$yd                CODE
 0003:00000000 00000104H .CRT$XCA                DATA
 0003:00000104 00000124H .CRT$XCC                DATA
 0003:00000228 00000114H .CRT$XCU                DATA
 0003:0000033c 00000104H .CRT$XCZ                DATA
 0003:00000440 00000104H .CRT$XIA                DATA
 0003:00000544 00000114H .CRT$XIC                DATA
 0003:00000658 00000104H .CRT$XIZ                DATA
 0003:0000075c 00000104H .CRT$XPA                DATA
 0003:00000860 00000104H .CRT$XPB                DATA
 0003:00000964 0000010cH .CRT$XPX                DATA
 0003:00000a70 00000104H .CRT$XPXA               DATA
 0003:00000b74 00000104H .CRT$XPZ                DATA
 0003:00000c78 00000104H .CRT$XTA                DATA
 0003:00000d7c 00000104H .CRT$XTZ                DATA
 0003:00000e80 00036abcH .rdata                  DATA
 0003:0003793c 000035b0H .rdata$r                DATA
 0003:0003aeec 00000174H .rdata$zzzdbg           DATA
 0003:0003b060 00000104H .rtc$IAA                DATA
 0003:0003b164 00000114H .rtc$IMZ                DATA
 0003:0003b278 00000104H .rtc$IZZ                DATA
 0003:0003b37c 00000104H .rtc$TAA                DATA
 0003:0003b480 00000114H .rtc$TMZ                DATA
 0003:0003b594 00000104H .rtc$TZZ                DATA
 0003:0003b698 000065b8H .xdata$x                DATA
 0003:00041c50 000002c9H .edata                  DATA
 0004:00000000 00000bb0H .data                   DATA
 0004:00000bb0 00002160H .data$r                 DATA
 0004:00002d10 00001d34H .bss                    DATA
 0005:00000000 00000328H .idata$5                DATA
 0005:00000328 0000003cH .idata$2                DATA
 0005:00000364 00000014H .idata$3                DATA
 0005:00000378 00000328H .idata$4                DATA
 0005:000006a0 00000d24H .idata$6                DATA
 0006:00000000 000014e0H .gfids$y                DATA
 0007:00000000 00000104H .00cfg                  DATA
 0008:00000000 00000170H .rsrc$01                DATA
 0008:00000170 000002ccH .rsrc$02                DATA

  Address         Publics by Value              Rva+Base       Lib:Object

 0000:00000000       ___dynamic_value_reloc_table 00000000     <absolute>
 0000:00000000       ___guard_fids_count        00000000     <absolute>
 0000:00000000       ___guard_iat_count         00000000     <absolute>
 0000:00000000       ___guard_iat_table         00000000     <absolute>
 0000:00000000       ___safe_se_handler_count   00000000     <absolute>
 0000:00000000       ___guard_fids_table        00000000     <absolute>
 0000:00000000       ___safe_se_handler_table   00000000     <absolute>
 0000:00000000       ___guard_longjmp_count     00000000     <absolute>
 0000:00000000       ___guard_longjmp_table     00000000     <absolute>
 0000:00000000       __except_list              00000000     <absolute>
 0000:00000100       ___guard_flags             00000100     <absolute>
 0000:00000000       ___ImageBase               10000000     <linker-defined>
 0001:00000000       __enc$textbss$begin        10001000     <linker-defined>
 0001:000823f9       __enc$textbss$end          100833f9     <linker-defined>
 0002:0000e230       ??$?0$$V@?$_Compressed_pair@U?$_Wrap_alloc@V?$allocator@Vthread@std@@@std@@@std@@V?$_Vector_val@U?$_Simple_types@Vthread@std@@@std@@@2@$00@std@@QAE@U_Zero_then_variadic_args_t@1@@Z 10092230 f i communication.obj
 0002:0000e290       ??$?0$$V@?$_Ref_count_obj@U_THREAD_CONTEXT@@@std@@QAE@XZ 10092290 f i communication.obj
 0002:0000e360       ??$?0A6AXV?$shared_ptr@U_THREAD_CONTEXT@@@std@@@Z@?$_Tuple_val@P6AXV?$shared_ptr@U_THREAD_CONTEXT@@@std@@@Z@std@@QAE@A6AXV?$shared_ptr@U_THREAD_CONTEXT@@@1@@Z@Z 10092360 f i communication.obj
 0002:0000e3c0       ??$?0A6AXV?$shared_ptr@U_THREAD_CONTEXT@@@std@@@ZAAV01@$0A@@?$tuple@P6AXV?$shared_ptr@U_THREAD_CONTEXT@@@std@@@ZV12@@std@@QAE@A6AXV?$shared_ptr@U_THREAD_CONTEXT@@@1@@ZAAV21@@Z 100923c0 f i communication.obj
 0002:0000e4a0       ??$?0A6AXV?$shared_ptr@U_THREAD_CONTEXT@@@std@@@ZAAV01@X@thread@std@@QAE@A6AXV?$shared_ptr@U_THREAD_CONTEXT@@@1@@ZAAV21@@Z 100924a0 f i communication.obj
 0002:0000e5a0       ??$?0AAPAV?$tuple@P6AXV?$shared_ptr@U_THREAD_CONTEXT@@@std@@@ZV12@@std@@@?$_Compressed_pair@U?$default_delete@V?$tuple@P6AXV?$shared_ptr@U_THREAD_CONTEXT@@@std@@@ZV12@@std@@@std@@PAV?$tuple@P6AXV?$shared_ptr@U_THREAD_CONTEXT@@@std@@@ZV12@@2@$00@std@@QAE@U_Zero_then_variadic_args_t@1@AAPAV?$tuple@P6AXV?$shared_ptr@U_THREAD_CONTEXT@@@std@@@ZV12@@1@@Z 100925a0 f i communication.obj
 0002:0000e610       ??$?0AAU?$_Wrap_alloc@V?$allocator@Vthread@std@@@std@@@std@@@?$_Wrap_alloc@V?$allocator@U_Container_proxy@std@@@std@@@std@@QAE@AAU?$_Wrap_alloc@V?$allocator@Vthread@std@@@std@@@1@@Z 10092610 f i communication.obj
 0002:0000e680       ??$?0AAV?$shared_ptr@U_THREAD_CONTEXT@@@std@@@?$_Tuple_val@V?$shared_ptr@U_THREAD_CONTEXT@@@std@@@std@@QAE@AAV?$shared_ptr@U_THREAD_CONTEXT@@@1@@Z 10092680 f i communication.obj
 0002:0000e6f0       ??$?0PAV?$tuple@P6AXV?$shared_ptr@U_THREAD_CONTEXT@@@std@@@ZV12@@std@@@?$_Unique_ptr_base@V?$tuple@P6AXV?$shared_ptr@U_THREAD_CONTEXT@@@std@@@ZV12@@std@@U?$default_delete@V?$tuple@P6AXV?$shared_ptr@U_THREAD_CONTEXT@@@std@@@ZV12@@std@@@2@@std@@QAE@PAV?$tuple@P6AXV?$shared_ptr@U_THREAD_CONTEXT@@@std@@@ZV12@@1@@Z 100926f0 f i communication.obj
 0002:0000e760       ??$?0PAV?$tuple@P6AXV?$shared_ptr@U_THREAD_CONTEXT@@@std@@@ZV12@@std@@U?$default_delete@V?$tuple@P6AXV?$shared_ptr@U_THREAD_CONTEXT@@@std@@@ZV12@@std@@@1@@?$_Unique_ptr_base@V?$tuple@P6AXV?$shared_ptr@U_THREAD_CONTEXT@@@std@@@ZV12@@std@@U?$default_delete@V?$tuple@P6AXV?$shared_ptr@U_THREAD_CONTEXT@@@std@@@ZV12@@std@@@2@@std@@QAE@PAV?$tuple@P6AXV?$shared_ptr@U_THREAD_CONTEXT@@@std@@@ZV12@@1@$$QAU?$default_delete@V?$tuple@P6AXV?$shared_ptr@U_THREAD_CONTEXT@@@std@@@ZV12@@std@@@1@@Z 10092760 f i communication.obj
 0002:0000e7e0       ??$?0U?$default_delete@V?$tuple@P6AXV?$shared_ptr@U_THREAD_CONTEXT@@@std@@@ZV12@@std@@@std@@AAPAV?$tuple@P6AXV?$shared_ptr@U_THREAD_CONTEXT@@@std@@@ZV12@@1@@?$_Compressed_pair@U?$default_delete@V?$tuple@P6AXV?$shared_ptr@U_THREAD_CONTEXT@@@std@@@ZV12@@std@@@std@@PAV?$tuple@P6AXV?$shared_ptr@U_THREAD_CONTEXT@@@std@@@ZV12@@2@$00@std@@QAE@U_One_then_variadic_args_t@1@$$QAU?$default_delete@V?$tuple@P6AXV?$shared_ptr@U_THREAD_CONTEXT@@@std@@@ZV12@@std@@@1@AAPAV?$tuple@P6AXV?$shared_ptr@U_THREAD_CONTEXT@@@std@@@ZV12@@1@@Z 100927e0 f i communication.obj
 0002:0000e860       ??$?0U?$integral_constant@_N$00@std@@@_Any_tag@std@@QAE@$$QAU?$integral_constant@_N$00@1@@Z 10092860 f i communication.obj
 0002:0000e8a0       ??$?0U_Exact_args_t@std@@$0A@@?$tuple@$$V@std@@QAE@U_Exact_args_t@1@@Z 100928a0 f i communication.obj
 0002:0000e8e0       ??$?0U_Exact_args_t@std@@AAV?$shared_ptr@U_THREAD_CONTEXT@@@1@$$V$0A@@?$tuple@V?$shared_ptr@U_THREAD_CONTEXT@@@std@@@std@@QAE@U_Exact_args_t@1@AAV?$shared_ptr@U_THREAD_CONTEXT@@@1@@Z 100928e0 f i communication.obj
 0002:0000e970       ??$?0V?$unique_ptr@V?$tuple@P6AXV?$shared_ptr@U_THREAD_CONTEXT@@@std@@@ZV12@@std@@U?$default_delete@V?$tuple@P6AXV?$shared_ptr@U_THREAD_CONTEXT@@@std@@@ZV12@@std@@@2@@std@@@?$_LaunchPad@V?$unique_ptr@V?$tuple@P6AXV?$shared_ptr@U_THREAD_CONTEXT@@@std@@@ZV12@@std@@U?$default_delete@V?$tuple@P6AXV?$shared_ptr@U_THREAD_CONTEXT@@@std@@@ZV12@@std@@@2@@std@@@std@@QAE@$$QAV?$unique_ptr@V?$tuple@P6AXV?$shared_ptr@U_THREAD_CONTEXT@@@std@@@ZV12@@std@@U?$default_delete@V?$tuple@P6AXV?$shared_ptr@U_THREAD_CONTEXT@@@std@@@ZV12@@std@@@2@@1@@Z 10092970 f i communication.obj
 0002:0000e9f0       ??$?0Vthread@std@@@?$allocator@U_Container_proxy@std@@@std@@QAE@ABV?$allocator@Vthread@std@@@1@@Z 100929f0 f i communication.obj
 0002:0000ea30       ??$_Call@P6AXV?$shared_ptr@U_THREAD_CONTEXT@@@std@@@ZV12@@_Invoker_functor@std@@SAX$$QAP6AXV?$shared_ptr@U_THREAD_CONTEXT@@@1@@Z$$QAV21@@Z 10092a30 f i communication.obj
 0002:0000eab0       ??$_Destroy_range1@V?$allocator@Vthread@std@@@std@@PAVthread@2@@std@@YAXPAVthread@0@0AAU?$_Wrap_alloc@V?$allocator@Vthread@std@@@std@@@0@U?$integral_constant@_N$0A@@0@@Z 10092ab0 f i communication.obj
 0002:0000eb30       ??$_Destroy_range@V?$allocator@Vthread@std@@@std@@PAVthread@2@@std@@YAXPAVthread@0@0AAU?$_Wrap_alloc@V?$allocator@Vthread@std@@@std@@@0@@Z 10092b30 f i communication.obj
 0002:0000eba0       ??$_Execute@$0A@$00@?$_LaunchPad@V?$unique_ptr@V?$tuple@P6AXV?$shared_ptr@U_THREAD_CONTEXT@@@std@@@ZV12@@std@@U?$default_delete@V?$tuple@P6AXV?$shared_ptr@U_THREAD_CONTEXT@@@std@@@ZV12@@std@@@2@@std@@@std@@CAXAAV?$tuple@P6AXV?$shared_ptr@U_THREAD_CONTEXT@@@std@@@ZV12@@1@U?$integer_sequence@I$0A@$00@1@@Z 10092ba0 f i communication.obj
 0002:0000ec20       ??$_Launch@V?$unique_ptr@V?$tuple@P6AXV?$shared_ptr@U_THREAD_CONTEXT@@@std@@@ZV12@@std@@U?$default_delete@V?$tuple@P6AXV?$shared_ptr@U_THREAD_CONTEXT@@@std@@@ZV12@@std@@@2@@std@@@std@@YAXPAU_Thrd_imp_t@@$$QAV?$unique_ptr@V?$tuple@P6AXV?$shared_ptr@U_THREAD_CONTEXT@@@std@@@ZV12@@std@@U?$default_delete@V?$tuple@P6AXV?$shared_ptr@U_THREAD_CONTEXT@@@std@@@ZV12@@std@@@2@@0@@Z 10092c20 f i communication.obj
 0002:0000ed20       ??$_Ptr_move_cat@Vthread@std@@V12@@std@@YA?AU_General_ptr_iterator_tag@0@ABQAVthread@0@0@Z 10092d20 f i communication.obj
 0002:0000ed60       ??$_Rechecked@PAVthread@std@@PAV12@@std@@YAAAPAVthread@0@AAPAV10@PAV10@@Z 10092d60 f i communication.obj
 0002:0000eda0       ??$_Reset@U_THREAD_CONTEXT@@@?$_Ptr_base@U_THREAD_CONTEXT@@@std@@QAEXABV01@@Z 10092da0 f i communication.obj
 0002:0000ee10       ??$_Resetp0@U_THREAD_CONTEXT@@@?$shared_ptr@U_THREAD_CONTEXT@@@std@@QAEXPAU_THREAD_CONTEXT@@PAV_Ref_count_base@1@@Z 10092e10 f i communication.obj
 0002:0000ee80       ??$_Umove@PAVthread@std@@@?$vector@Vthread@std@@V?$allocator@Vthread@std@@@2@@std@@IAEPAVthread@1@PAV21@00@Z 10092e80 f i communication.obj
 0002:0000eef0       ??$_Unchecked@PAVthread@std@@@std@@YAPAVthread@0@PAV10@@Z 10092ef0 f i communication.obj
 0002:0000ef30       ??$_Unfancy@U_Container_proxy@std@@@std@@YAPAU_Container_proxy@0@PAU10@@Z 10092f30 f i communication.obj
 0002:0000ef70       ??$_Unfancy@Vthread@std@@@std@@YAPAVthread@0@PAV10@@Z 10092f70 f i communication.obj
 0002:0000efb0       ??$_Uninitialized_move@PAVthread@std@@PAV12@V?$allocator@Vthread@std@@@2@@std@@YAPAVthread@0@PAV10@00AAU?$_Wrap_alloc@V?$allocator@Vthread@std@@@std@@@0@@Z 10092fb0 f i communication.obj
 0002:0000f050       ??$_Uninitialized_move_al_unchecked1@PAVthread@std@@PAV12@V?$allocator@Vthread@std@@@2@@std@@YAPAVthread@0@PAV10@00AAU?$_Wrap_alloc@V?$allocator@Vthread@std@@@std@@@0@U_General_ptr_iterator_tag@0@U_Any_tag@0@@Z 10093050 f i communication.obj
 0002:0000f180       ??$_Uninitialized_move_al_unchecked@PAVthread@std@@PAV12@V?$allocator@Vthread@std@@@2@@std@@YAPAVthread@0@PAV10@00AAU?$_Wrap_alloc@V?$allocator@Vthread@std@@@std@@@0@@Z 10093180 f i communication.obj
 0002:0000f220       ??$addressof@U_Container_proxy@std@@@std@@YAPAU_Container_proxy@0@AAU10@@Z 10093220 f i communication.obj
 0002:0000f260       ??$addressof@Vthread@std@@@std@@YAPAVthread@0@AAV10@@Z 10093260 f i communication.obj
 0002:0000f2a0       ??$construct@U_Container_proxy@std@@U12@@?$_Wrap_alloc@V?$allocator@U_Container_proxy@std@@@std@@@std@@QAEXPAU_Container_proxy@1@$$QAU21@@Z 100932a0 f i communication.obj
 0002:0000f310       ??$construct@U_Container_proxy@std@@U12@@?$allocator@U_Container_proxy@std@@@std@@QAEXPAU_Container_proxy@1@$$QAU21@@Z 10093310 f i communication.obj
 0002:0000f3c0       ??$construct@U_Container_proxy@std@@U12@@?$allocator_traits@V?$allocator@U_Container_proxy@std@@@std@@@std@@SAXAAV?$allocator@U_Container_proxy@std@@@1@PAU_Container_proxy@1@$$QAU31@@Z 100933c0 f i communication.obj
 0002:0000f420       ??$construct@Vthread@std@@V12@@?$_Wrap_alloc@V?$allocator@Vthread@std@@@std@@@std@@QAEXPAVthread@1@$$QAV21@@Z 10093420 f i communication.obj
 0002:0000f490       ??$construct@Vthread@std@@V12@@?$allocator@Vthread@std@@@std@@QAEXPAVthread@1@$$QAV21@@Z 10093490 f i communication.obj
 0002:0000f530       ??$construct@Vthread@std@@V12@@?$allocator_traits@V?$allocator@Vthread@std@@@std@@@std@@SAXAAV?$allocator@Vthread@std@@@1@PAVthread@1@$$QAV31@@Z 10093530 f i communication.obj
 0002:0000f590       ??$destroy@U_Container_proxy@std@@@?$_Wrap_alloc@V?$allocator@U_Container_proxy@std@@@std@@@std@@QAEXPAU_Container_proxy@1@@Z 10093590 f i communication.obj
 0002:0000f5f0       ??$destroy@U_Container_proxy@std@@@?$allocator@U_Container_proxy@std@@@std@@QAEXPAU_Container_proxy@1@@Z 100935f0 f i communication.obj
 0002:0000f630       ??$destroy@U_Container_proxy@std@@@?$allocator_traits@V?$allocator@U_Container_proxy@std@@@std@@@std@@SAXAAV?$allocator@U_Container_proxy@std@@@1@PAU_Container_proxy@1@@Z 10093630 f i communication.obj
 0002:0000f680       ??$destroy@Vthread@std@@@?$_Wrap_alloc@V?$allocator@Vthread@std@@@std@@@std@@QAEXPAVthread@1@@Z 10093680 f i communication.obj
 0002:0000f6e0       ??$destroy@Vthread@std@@@?$allocator@Vthread@std@@@std@@QAEXPAVthread@1@@Z 100936e0 f i communication.obj
 0002:0000f740       ??$destroy@Vthread@std@@@?$allocator_traits@V?$allocator@Vthread@std@@@std@@@std@@SAXAAV?$allocator@Vthread@std@@@1@PAVthread@1@@Z 10093740 f i communication.obj
 0002:0000f790       ??$forward@A6AXV?$shared_ptr@U_THREAD_CONTEXT@@@std@@@Z@std@@YAA6AXV?$shared_ptr@U_THREAD_CONTEXT@@@0@@ZA6AX0@Z@Z 10093790 f i communication.obj
 0002:0000f7d0       ??$forward@AAPAV?$tuple@P6AXV?$shared_ptr@U_THREAD_CONTEXT@@@std@@@ZV12@@std@@@std@@YAAAPAV?$tuple@P6AXV?$shared_ptr@U_THREAD_CONTEXT@@@std@@@ZV12@@0@AAPAV10@@Z 100937d0 f i communication.obj
 0002:0000f810       ??$forward@AAU?$_Wrap_alloc@V?$allocator@Vthread@std@@@std@@@std@@@std@@YAAAU?$_Wrap_alloc@V?$allocator@Vthread@std@@@std@@@0@AAU10@@Z 10093810 f i communication.obj
 0002:0000f850       ??$forward@AAV?$shared_ptr@U_THREAD_CONTEXT@@@std@@@std@@YAAAV?$shared_ptr@U_THREAD_CONTEXT@@@0@AAV10@@Z 10093850 f i communication.obj
 0002:0000f890       ??$forward@P6AXV?$shared_ptr@U_THREAD_CONTEXT@@@std@@@Z@std@@YA$$QAP6AXV?$shared_ptr@U_THREAD_CONTEXT@@@0@@ZAAP6AX0@Z@Z 10093890 f i communication.obj
 0002:0000f8d0       ??$forward@U?$default_delete@V?$tuple@P6AXV?$shared_ptr@U_THREAD_CONTEXT@@@std@@@ZV12@@std@@@std@@@std@@YA$$QAU?$default_delete@V?$tuple@P6AXV?$shared_ptr@U_THREAD_CONTEXT@@@std@@@ZV12@@std@@@0@AAU10@@Z 100938d0 f i communication.obj
 0002:0000f910       ??$forward@U_Container_proxy@std@@@std@@YA$$QAU_Container_proxy@0@AAU10@@Z 10093910 f i communication.obj
 0002:0000f950       ??$forward@V?$shared_ptr@U_THREAD_CONTEXT@@@std@@@std@@YA$$QAV?$shared_ptr@U_THREAD_CONTEXT@@@0@AAV10@@Z 10093950 f i communication.obj
 0002:0000f990       ??$forward@V?$unique_ptr@V?$tuple@P6AXV?$shared_ptr@U_THREAD_CONTEXT@@@std@@@ZV12@@std@@U?$default_delete@V?$tuple@P6AXV?$shared_ptr@U_THREAD_CONTEXT@@@std@@@ZV12@@std@@@2@@std@@@std@@YA$$QAV?$unique_ptr@V?$tuple@P6AXV?$shared_ptr@U_THREAD_CONTEXT@@@std@@@ZV12@@std@@U?$default_delete@V?$tuple@P6AXV?$shared_ptr@U_THREAD_CONTEXT@@@std@@@ZV12@@std@@@2@@0@AAV10@@Z 10093990 f i communication.obj
 0002:0000f9d0       ??$forward@Vthread@std@@@std@@YA$$QAVthread@0@AAV10@@Z 100939d0 f i communication.obj
 0002:0000fa10       ??$get@$00P6AXV?$shared_ptr@U_THREAD_CONTEXT@@@std@@@ZV12@@std@@YAAAV?$shared_ptr@U_THREAD_CONTEXT@@@0@AAV?$tuple@P6AXV?$shared_ptr@U_THREAD_CONTEXT@@@std@@@ZV12@@0@@Z 10093a10 f i communication.obj
 0002:0000fa50       ??$get@$0A@P6AXV?$shared_ptr@U_THREAD_CONTEXT@@@std@@@ZV12@@std@@YAAAP6AXV?$shared_ptr@U_THREAD_CONTEXT@@@0@@ZAAV?$tuple@P6AXV?$shared_ptr@U_THREAD_CONTEXT@@@std@@@ZV12@@0@@Z 10093a50 f i communication.obj
 0002:0000fa90       ??$invoke@P6AXV?$shared_ptr@U_THREAD_CONTEXT@@@std@@@ZV12@@std@@YAX$$QAP6AXV?$shared_ptr@U_THREAD_CONTEXT@@@0@@Z$$QAV10@@Z 10093a90 f i communication.obj
 0002:0000fb00       ??$make_shared@U_THREAD_CONTEXT@@$$V@std@@YA?AV?$shared_ptr@U_THREAD_CONTEXT@@@0@XZ 10093b00 f i communication.obj
 0002:0000fc90       ??$make_unique@V?$tuple@P6AXV?$shared_ptr@U_THREAD_CONTEXT@@@std@@@ZV12@@std@@A6AXV?$shared_ptr@U_THREAD_CONTEXT@@@2@@ZAAV32@@std@@YA?AV?$unique_ptr@V?$tuple@P6AXV?$shared_ptr@U_THREAD_CONTEXT@@@std@@@ZV12@@std@@U?$default_delete@V?$tuple@P6AXV?$shared_ptr@U_THREAD_CONTEXT@@@std@@@ZV12@@std@@@2@@0@A6AXV?$shared_ptr@U_THREAD_CONTEXT@@@0@@ZAAV20@@Z 10093c90 f i communication.obj
 0002:0000fdc0       ??$move@AAP6AXV?$shared_ptr@U_THREAD_CONTEXT@@@std@@@Z@std@@YA$$QAP6AXV?$shared_ptr@U_THREAD_CONTEXT@@@0@@ZAAP6AX0@Z@Z 10093dc0 f i communication.obj
 0002:0000fe00       ??$move@AAV?$shared_ptr@U_THREAD_CONTEXT@@@std@@@std@@YA$$QAV?$shared_ptr@U_THREAD_CONTEXT@@@0@AAV10@@Z 10093e00 f i communication.obj
 0002:0000fe40       ??$move@AAVthread@std@@@std@@YA$$QAVthread@0@AAV10@@Z 10093e40 f i communication.obj
 0002:0000fe80       ??0?$_Iterator012@Urandom_access_iterator_tag@std@@Vthread@2@HPBV32@ABV32@U_Iterator_base12@2@@std@@QAE@XZ 10093e80 f i communication.obj
 0002:0000fee0       ??0?$_Ptr_base@U_THREAD_CONTEXT@@@std@@QAE@$$QAV01@@Z 10093ee0 f i communication.obj
 0002:0000ff50       ??0?$_Ptr_base@U_THREAD_CONTEXT@@@std@@QAE@XZ 10093f50 f i communication.obj
 0002:0000ffa0       ??0?$_Vector_alloc@U?$_Vec_base_types@Vthread@std@@V?$allocator@Vthread@std@@@2@@std@@@std@@QAE@XZ 10093fa0 f i communication.obj
 0002:00010050       ??0?$_Vector_const_iterator@V?$_Vector_val@U?$_Simple_types@Vthread@std@@@std@@@std@@@std@@QAE@PAVthread@1@PBU_Container_base12@1@@Z 10094050 f i communication.obj
 0002:00010110       ??0?$_Vector_iterator@V?$_Vector_val@U?$_Simple_types@Vthread@std@@@std@@@std@@@std@@QAE@PAVthread@1@PBU_Container_base12@1@@Z 10094110 f i communication.obj
 0002:00010170       ??0?$_Vector_val@U?$_Simple_types@Vthread@std@@@std@@@std@@QAE@XZ 10094170 f i communication.obj
 0002:000101f0       ??0?$_Wrap_alloc@V?$allocator@Vthread@std@@@std@@@std@@QAE@XZ 100941f0 f i communication.obj
 0002:00010250       ??0?$allocator@Vthread@std@@@std@@QAE@XZ 10094250 f i communication.obj
 0002:00010290       ??0?$shared_ptr@U_THREAD_CONTEXT@@@std@@QAE@$$QAV01@@Z 10094290 f i communication.obj
 0002:00010330       ??0?$shared_ptr@U_THREAD_CONTEXT@@@std@@QAE@ABV01@@Z 10094330 f i communication.obj
 0002:000103d0       ??0?$shared_ptr@U_THREAD_CONTEXT@@@std@@QAE@XZ 100943d0 f i communication.obj
 0002:00010430       ??0?$unique_ptr@V?$tuple@P6AXV?$shared_ptr@U_THREAD_CONTEXT@@@std@@@ZV12@@std@@U?$default_delete@V?$tuple@P6AXV?$shared_ptr@U_THREAD_CONTEXT@@@std@@@ZV12@@std@@@2@@std@@QAE@$$QAV01@@Z 10094430 f i communication.obj
 0002:000104e0       ??0?$unique_ptr@V?$tuple@P6AXV?$shared_ptr@U_THREAD_CONTEXT@@@std@@@ZV12@@std@@U?$default_delete@V?$tuple@P6AXV?$shared_ptr@U_THREAD_CONTEXT@@@std@@@ZV12@@std@@@2@@std@@QAE@PAV?$tuple@P6AXV?$shared_ptr@U_THREAD_CONTEXT@@@std@@@ZV12@@1@@Z 100944e0 f i communication.obj
 0002:00010570       ??0?$vector@Vthread@std@@V?$allocator@Vthread@std@@@2@@std@@QAE@XZ 10094570 f i communication.obj
 0002:00010600       ??0_Auto_cnd@std@@QAE@PAU_Cnd_internal_imp_t@@@Z 10094600 f i communication.obj
 0002:00010650       ??0_Auto_mtx@std@@QAE@PAU_Mtx_internal_imp_t@@@Z 10094650 f i communication.obj
 0002:000106a0       ??0_Container_base12@std@@QAE@XZ 100946a0 f i communication.obj
 0002:000106f0       ??0_Container_proxy@std@@QAE@XZ 100946f0 f i communication.obj
 0002:00010740       ??0_Iterator_base12@std@@QAE@XZ 10094740 f i communication.obj
 0002:00010790       ??0_Pad@std@@QAE@XZ        10094790 f i communication.obj
 0002:00010930       ??0_Ref_count_base@std@@IAE@XZ 10094930 f i communication.obj
 0002:000109b0       ??0id@thread@std@@AAE@I@Z  100949b0 f i communication.obj
 0002:00010a00       ??0thread@std@@QAE@$$QAV01@@Z 10094a00 f i communication.obj
 0002:00010a70       ??1?$_Compressed_pair@U?$_Wrap_alloc@V?$allocator@Vthread@std@@@std@@@std@@V?$_Vector_val@U?$_Simple_types@Vthread@std@@@std@@@2@$00@std@@QAE@XZ 10094a70 f i communication.obj
 0002:00010ac0       ??1?$_Iterator012@Urandom_access_iterator_tag@std@@Vthread@2@HPBV32@ABV32@U_Iterator_base12@2@@std@@QAE@XZ 10094ac0 f i communication.obj
 0002:00010b10       ??1?$_LaunchPad@V?$unique_ptr@V?$tuple@P6AXV?$shared_ptr@U_THREAD_CONTEXT@@@std@@@ZV12@@std@@U?$default_delete@V?$tuple@P6AXV?$shared_ptr@U_THREAD_CONTEXT@@@std@@@ZV12@@std@@@2@@std@@@std@@QAE@XZ 10094b10 f i communication.obj
 0002:00010b70       ??1?$_Ref_count_obj@U_THREAD_CONTEXT@@@std@@UAE@XZ 10094b70 f i communication.obj
 0002:00010bc0       ??1?$_Tuple_val@V?$shared_ptr@U_THREAD_CONTEXT@@@std@@@std@@QAE@XZ 10094bc0 f i communication.obj
 0002:00010c10       ??1?$_Vector_alloc@U?$_Vec_base_types@Vthread@std@@V?$allocator@Vthread@std@@@2@@std@@@std@@QAE@XZ 10094c10 f i communication.obj
 0002:00010ca0       ??1?$_Vector_const_iterator@V?$_Vector_val@U?$_Simple_types@Vthread@std@@@std@@@std@@@std@@QAE@XZ 10094ca0 f i communication.obj
 0002:00010cf0       ??1?$_Vector_iterator@V?$_Vector_val@U?$_Simple_types@Vthread@std@@@std@@@std@@@std@@QAE@XZ 10094cf0 f i communication.obj
 0002:00010d40       ??1?$_Vector_val@U?$_Simple_types@Vthread@std@@@std@@@std@@QAE@XZ 10094d40 f i communication.obj
 0002:00010d90       ??1?$shared_ptr@U_THREAD_CONTEXT@@@std@@QAE@XZ 10094d90 f i communication.obj
 0002:00010e20       ??1?$tuple@P6AXV?$shared_ptr@U_THREAD_CONTEXT@@@std@@@ZV12@@std@@QAE@XZ 10094e20 f i communication.obj
 0002:00010e70       ??1?$tuple@V?$shared_ptr@U_THREAD_CONTEXT@@@std@@@std@@QAE@XZ 10094e70 f i communication.obj
 0002:00010ec0       ??1?$unique_ptr@V?$tuple@P6AXV?$shared_ptr@U_THREAD_CONTEXT@@@std@@@ZV12@@std@@U?$default_delete@V?$tuple@P6AXV?$shared_ptr@U_THREAD_CONTEXT@@@std@@@ZV12@@std@@@2@@std@@QAE@XZ 10094ec0 f i communication.obj
 0002:00010f40       ??1?$vector@Vthread@std@@V?$allocator@Vthread@std@@@2@@std@@QAE@XZ 10094f40 f i communication.obj
 0002:00010fd0       ??1_Auto_cnd@std@@QAE@XZ   10094fd0 f i communication.obj
 0002:00011040       ??1_Auto_mtx@std@@QAE@XZ   10095040 f i communication.obj
 0002:000110b0       ??1_Container_base12@std@@QAE@XZ 100950b0 f i communication.obj
 0002:00011140       ??1_Iterator_base12@std@@QAE@XZ 10095140 f i communication.obj
 0002:00011210       ??1_Pad@std@@QAE@XZ        10095210 f i communication.obj
 0002:00011340       ??1_Ref_count_base@std@@UAE@XZ 10095340 f i communication.obj
 0002:00011380       ??1thread@std@@QAE@XZ      10095380 f i communication.obj
 0002:000113e0       ??2@YAPAXIPAX@Z            100953e0 f i communication.obj
 0002:00011420       ??8?$_Vector_const_iterator@V?$_Vector_val@U?$_Simple_types@Vthread@std@@@std@@@std@@@std@@QBE_NABV01@@Z 10095420 f i communication.obj
 0002:000114b0       ??8std@@YA_NVid@thread@0@0@Z 100954b0 f i communication.obj
 0002:00011510       ??9?$_Vector_const_iterator@V?$_Vector_val@U?$_Simple_types@Vthread@std@@@std@@@std@@@std@@QBE_NABV01@@Z 10095510 f i communication.obj
 0002:000115a0       ??C?$_Vector_iterator@V?$_Vector_val@U?$_Simple_types@Vthread@std@@@std@@@std@@@std@@QBEPAVthread@1@XZ 100955a0 f i communication.obj
 0002:00011600       ??C?$shared_ptr@U_THREAD_CONTEXT@@@std@@QBEPAU_THREAD_CONTEXT@@XZ 10095600 f i communication.obj
 0002:00011650       ??D?$_Vector_const_iterator@V?$_Vector_val@U?$_Simple_types@Vthread@std@@@std@@@std@@@std@@QBEABVthread@1@XZ 10095650 f i communication.obj
 0002:00011760       ??D?$_Vector_iterator@V?$_Vector_val@U?$_Simple_types@Vthread@std@@@std@@@std@@@std@@QBEAAVthread@1@XZ 10095760 f i communication.obj
 0002:000117b0       ??D?$unique_ptr@V?$tuple@P6AXV?$shared_ptr@U_THREAD_CONTEXT@@@std@@@ZV12@@std@@U?$default_delete@V?$tuple@P6AXV?$shared_ptr@U_THREAD_CONTEXT@@@std@@@ZV12@@std@@@2@@std@@QBEAAV?$tuple@P6AXV?$shared_ptr@U_THREAD_CONTEXT@@@std@@@ZV12@@1@XZ 100957b0 f i communication.obj
 0002:00011800       ??E?$_Vector_const_iterator@V?$_Vector_val@U?$_Simple_types@Vthread@std@@@std@@@std@@@std@@QAEAAV01@XZ 10095800 f i communication.obj
 0002:00011910       ??E?$_Vector_iterator@V?$_Vector_val@U?$_Simple_types@Vthread@std@@@std@@@std@@@std@@QAEAAV01@XZ 10095910 f i communication.obj
 0002:00011970       ??R?$default_delete@V?$tuple@P6AXV?$shared_ptr@U_THREAD_CONTEXT@@@std@@@ZV12@@std@@@std@@QBEXPAV?$tuple@P6AXV?$shared_ptr@U_THREAD_CONTEXT@@@std@@@ZV12@@1@@Z 10095970 f i communication.obj
 0002:00011a10       ??_E?$_Ref_count_obj@U_THREAD_CONTEXT@@@std@@UAEPAXI@Z 10095a10 f i communication.obj
 0002:00011a10       ??_G?$_Ref_count_obj@U_THREAD_CONTEXT@@@std@@UAEPAXI@Z 10095a10 f i communication.obj
 0002:00011a90       ??_G?$tuple@P6AXV?$shared_ptr@U_THREAD_CONTEXT@@@std@@@ZV12@@std@@QAEPAXI@Z 10095a90 f i communication.obj
 0002:00011b00       ??_G_Ref_count_base@std@@UAEPAXI@Z 10095b00 f i communication.obj
 0002:00011b00       ??_E_Ref_count_base@std@@UAEPAXI@Z 10095b00 f i communication.obj
 0002:00011b70       ??_Gthread@std@@QAEPAXI@Z  10095b70 f i communication.obj
 0002:00011be0       ?InitializeCommunication@@YAXH@Z 10095be0 f   communication.obj
 0002:00011ed0       ?TestCommand@@YAHXZ        10095ed0 f   communication.obj
 0002:00012070       ?ToggleProcessMonitoring@@YAHXZ 10096070 f   communication.obj
 0002:00012210       ?UmCommunicationThreadBody@@YAXV?$shared_ptr@U_THREAD_CONTEXT@@@std@@@Z 10096210 f   communication.obj
 0002:000128d0       ?UninitializeCommunication@@YAXXZ 100968d0 f   communication.obj
 0002:00012b00       ?_Adopt@_Iterator_base12@std@@QAEXPBU_Container_base12@2@@Z 10096b00 f i communication.obj
 0002:00012c80       ?_Alloc_proxy@?$_Vector_alloc@U?$_Vec_base_types@Vthread@std@@V?$allocator@Vthread@std@@@2@@std@@@std@@QAEXXZ 10096c80 f i communication.obj
 0002:00012d80       ?_Allocate@std@@YAPAXII_N@Z 10096d80 f i communication.obj
 0002:00012f90       ?_Call_func@_Pad@std@@CGIPAX@Z 10096f90 f i communication.obj
 0002:00013000       ?_Check_C_return@std@@YAHH@Z 10097000 f i communication.obj
 0002:00013060       ?_Clrcont@_Iterator_base12@std@@QAEXXZ 10097060 f i communication.obj
 0002:000130a0       ?_Cnd_initX@std@@YAHPAPAU_Cnd_internal_imp_t@@@Z 100970a0 f i communication.obj
 0002:00013100       ?_Cnd_signalX@std@@YAHPAU_Cnd_internal_imp_t@@@Z 10097100 f i communication.obj
 0002:00013160       ?_Cnd_waitX@std@@YAHPAU_Cnd_internal_imp_t@@PAU_Mtx_internal_imp_t@@@Z 10097160 f i communication.obj
 0002:000131c0       ?_Compat@?$_Vector_const_iterator@V?$_Vector_val@U?$_Simple_types@Vthread@std@@@std@@@std@@@std@@QBEXABV12@@Z 100971c0 f i communication.obj
 0002:000132b0       ?_Deallocate@std@@YAXPAXII@Z 100972b0 f i communication.obj
 0002:00013640       ?_Decref@?$_Ptr_base@U_THREAD_CONTEXT@@@std@@QAEXXZ 10097640 f i communication.obj
 0002:000136a0       ?_Decref@_Ref_count_base@std@@QAEXXZ 100976a0 f i communication.obj
 0002:00013720       ?_Decwref@_Ref_count_base@std@@QAEXXZ 10097720 f i communication.obj
 0002:000137a0       ?_Delete_this@?$_Ref_count_obj@U_THREAD_CONTEXT@@@std@@EAEXXZ 100977a0 f i communication.obj
 0002:00013850       ?_Destroy@?$_Ref_count_obj@U_THREAD_CONTEXT@@@std@@EAEXXZ 10097850 f i communication.obj
 0002:000138e0       ?_Destroy@?$vector@Vthread@std@@V?$allocator@Vthread@std@@@2@@std@@IAEXPAVthread@2@0@Z 100978e0 f i communication.obj
 0002:00013950       ?_Enable_shared@std@@YAXPDX0@Z 10097950 f i communication.obj
 0002:00013980       ?_Free_proxy@?$_Vector_alloc@U?$_Vec_base_types@Vthread@std@@V?$allocator@Vthread@std@@@2@@std@@@std@@QAEXXZ 10097980 f i communication.obj
 0002:00013a70       ?_Get@?$_Ptr_base@U_THREAD_CONTEXT@@@std@@QBEPAU_THREAD_CONTEXT@@XZ 10097a70 f i communication.obj
 0002:00013ab0       ?_Get_data@?$_Vector_alloc@U?$_Vec_base_types@Vthread@std@@V?$allocator@Vthread@std@@@2@@std@@@std@@QAEAAV?$_Vector_val@U?$_Simple_types@Vthread@std@@@std@@@2@XZ 10097ab0 f i communication.obj
 0002:00013b00       ?_Get_data@?$_Vector_alloc@U?$_Vec_base_types@Vthread@std@@V?$allocator@Vthread@std@@@2@@std@@@std@@QBEABV?$_Vector_val@U?$_Simple_types@Vthread@std@@@std@@@2@XZ 10097b00 f i communication.obj
 0002:00013b50       ?_Get_deleter@_Ref_count_base@std@@UBEPAXABVtype_info@@@Z 10097b50 f i communication.obj
 0002:00013b90       ?_Get_first@?$_Compressed_pair@U?$_Wrap_alloc@V?$allocator@Vthread@std@@@std@@@std@@V?$_Vector_val@U?$_Simple_types@Vthread@std@@@std@@@2@$00@std@@QAEAAU?$_Wrap_alloc@V?$allocator@Vthread@std@@@std@@@2@XZ 10097b90 f i communication.obj
 0002:00013bd0       ?_Get_first@?$_Compressed_pair@U?$_Wrap_alloc@V?$allocator@Vthread@std@@@std@@@std@@V?$_Vector_val@U?$_Simple_types@Vthread@std@@@std@@@2@$00@std@@QBEABU?$_Wrap_alloc@V?$allocator@Vthread@std@@@std@@@2@XZ 10097bd0 f i communication.obj
 0002:00013c10       ?_Get_first@?$_Compressed_pair@U?$default_delete@V?$tuple@P6AXV?$shared_ptr@U_THREAD_CONTEXT@@@std@@@ZV12@@std@@@std@@PAV?$tuple@P6AXV?$shared_ptr@U_THREAD_CONTEXT@@@std@@@ZV12@@2@$00@std@@QAEAAU?$default_delete@V?$tuple@P6AXV?$shared_ptr@U_THREAD_CONTEXT@@@std@@@ZV12@@std@@@2@XZ 10097c10 f i communication.obj
 0002:00013c50       ?_Get_second@?$_Compressed_pair@U?$_Wrap_alloc@V?$allocator@Vthread@std@@@std@@@std@@V?$_Vector_val@U?$_Simple_types@Vthread@std@@@std@@@2@$00@std@@QAEAAV?$_Vector_val@U?$_Simple_types@Vthread@std@@@std@@@2@XZ 10097c50 f i communication.obj
 0002:00013c90       ?_Get_second@?$_Compressed_pair@U?$_Wrap_alloc@V?$allocator@Vthread@std@@@std@@@std@@V?$_Vector_val@U?$_Simple_types@Vthread@std@@@std@@@2@$00@std@@QBEABV?$_Vector_val@U?$_Simple_types@Vthread@std@@@std@@@2@XZ 10097c90 f i communication.obj
 0002:00013cd0       ?_Get_second@?$_Compressed_pair@U?$default_delete@V?$tuple@P6AXV?$shared_ptr@U_THREAD_CONTEXT@@@std@@@ZV12@@std@@@std@@PAV?$tuple@P6AXV?$shared_ptr@U_THREAD_CONTEXT@@@std@@@ZV12@@2@$00@std@@QAEAAPAV?$tuple@P6AXV?$shared_ptr@U_THREAD_CONTEXT@@@std@@@ZV12@@2@XZ 10097cd0 f i communication.obj
 0002:00013d10       ?_Get_second@?$_Compressed_pair@U?$default_delete@V?$tuple@P6AXV?$shared_ptr@U_THREAD_CONTEXT@@@std@@@ZV12@@std@@@std@@PAV?$tuple@P6AXV?$shared_ptr@U_THREAD_CONTEXT@@@std@@@ZV12@@2@$00@std@@QBEABQAV?$tuple@P6AXV?$shared_ptr@U_THREAD_CONTEXT@@@std@@@ZV12@@2@XZ 10097d10 f i communication.obj
 0002:00013d50       ?_Getal@?$_Vector_alloc@U?$_Vec_base_types@Vthread@std@@V?$allocator@Vthread@std@@@2@@std@@@std@@QAEAAU?$_Wrap_alloc@V?$allocator@Vthread@std@@@std@@@2@XZ 10097d50 f i communication.obj
 0002:00013da0       ?_Getal@?$_Vector_alloc@U?$_Vec_base_types@Vthread@std@@V?$allocator@Vthread@std@@@2@@std@@@std@@QBEABU?$_Wrap_alloc@V?$allocator@Vthread@std@@@std@@@2@XZ 10097da0 f i communication.obj
 0002:00013df0       ?_Getcont@_Iterator_base12@std@@QBEPBU_Container_base12@2@XZ 10097df0 f i communication.obj
 0002:00013e60       ?_Getpfirst@?$_Vector_alloc@U?$_Vec_base_types@Vthread@std@@V?$allocator@Vthread@std@@@2@@std@@@std@@QBEPAPAU_Iterator_base12@2@XZ 10097e60 f i communication.obj
 0002:00013ec0       ?_Getpfirst@_Container_base12@std@@QBEPAPAU_Iterator_base12@2@XZ 10097ec0 f i communication.obj
 0002:00013f30       ?_Getpnext@_Iterator_base12@std@@QAEPAPAU12@XZ 10097f30 f i communication.obj
 0002:00013f70       ?_Getptr@?$_Ref_count_obj@U_THREAD_CONTEXT@@@std@@QBEPAU_THREAD_CONTEXT@@XZ 10097f70 f i communication.obj
 0002:00013fb0       ?_Go@?$_LaunchPad@V?$unique_ptr@V?$tuple@P6AXV?$shared_ptr@U_THREAD_CONTEXT@@@std@@@ZV12@@std@@U?$default_delete@V?$tuple@P6AXV?$shared_ptr@U_THREAD_CONTEXT@@@std@@@ZV12@@std@@@2@@std@@@std@@UAEXXZ 10097fb0 f i communication.obj
 0002:00014010       ?_Grow_to@?$vector@Vthread@std@@V?$allocator@Vthread@std@@@2@@std@@IBEII@Z 10098010 f i communication.obj
 0002:000140c0       ?_Incref@_Ref_count_base@std@@QAEXXZ 100980c0 f i communication.obj
 0002:00014100       ?_Init_atomic_counter@std@@YAXAAKK@Z 10098100 f i communication.obj
 0002:00014140       ?_Inside@?$vector@Vthread@std@@V?$allocator@Vthread@std@@@2@@std@@IBE_NPBVthread@2@@Z 10098140 f i communication.obj
 0002:000141f0       ?_Launch@_Pad@std@@QAEXPAU_Thrd_imp_t@@@Z 100981f0 f i communication.obj
 0002:00014280       ?_Mtx_initX@std@@YAHPAPAU_Mtx_internal_imp_t@@H@Z 10098280 f i communication.obj
 0002:000142e0       ?_Mtx_lockX@std@@YAHPAU_Mtx_internal_imp_t@@@Z 100982e0 f i communication.obj
 0002:00014340       ?_Mtx_unlockX@std@@YAHPAU_Mtx_internal_imp_t@@@Z 10098340 f i communication.obj
 0002:000143a0       ?_Myend@?$_Vector_alloc@U?$_Vec_base_types@Vthread@std@@V?$allocator@Vthread@std@@@2@@std@@@std@@QAEAAPAVthread@2@XZ 100983a0 f i communication.obj
 0002:00014400       ?_Myend@?$_Vector_alloc@U?$_Vec_base_types@Vthread@std@@V?$allocator@Vthread@std@@@2@@std@@@std@@QBEABQAVthread@2@XZ 10098400 f i communication.obj
 0002:00014460       ?_Myfirst@?$_Vector_alloc@U?$_Vec_base_types@Vthread@std@@V?$allocator@Vthread@std@@@2@@std@@@std@@QAEAAPAVthread@2@XZ 10098460 f i communication.obj
 0002:000144c0       ?_Myfirst@?$_Vector_alloc@U?$_Vec_base_types@Vthread@std@@V?$allocator@Vthread@std@@@2@@std@@@std@@QBEABQAVthread@2@XZ 100984c0 f i communication.obj
 0002:00014520       ?_Mylast@?$_Vector_alloc@U?$_Vec_base_types@Vthread@std@@V?$allocator@Vthread@std@@@2@@std@@@std@@QAEAAPAVthread@2@XZ 10098520 f i communication.obj
 0002:00014580       ?_Mylast@?$_Vector_alloc@U?$_Vec_base_types@Vthread@std@@V?$allocator@Vthread@std@@@2@@std@@@std@@QBEABQAVthread@2@XZ 10098580 f i communication.obj
 0002:000145e0       ?_Myproxy@?$_Vector_alloc@U?$_Vec_base_types@Vthread@std@@V?$allocator@Vthread@std@@@2@@std@@@std@@QAEAAPAU_Container_proxy@2@XZ 100985e0 f i communication.obj
 0002:00014630       ?_Myptr@?$_Unique_ptr_base@V?$tuple@P6AXV?$shared_ptr@U_THREAD_CONTEXT@@@std@@@ZV12@@std@@U?$default_delete@V?$tuple@P6AXV?$shared_ptr@U_THREAD_CONTEXT@@@std@@@ZV12@@std@@@2@@std@@QAEAAPAV?$tuple@P6AXV?$shared_ptr@U_THREAD_CONTEXT@@@std@@@ZV12@@2@XZ 10098630 f i communication.obj
 0002:00014680       ?_Myptr@?$_Unique_ptr_base@V?$tuple@P6AXV?$shared_ptr@U_THREAD_CONTEXT@@@std@@@ZV12@@std@@U?$default_delete@V?$tuple@P6AXV?$shared_ptr@U_THREAD_CONTEXT@@@std@@@ZV12@@std@@@2@@std@@QBEABQAV?$tuple@P6AXV?$shared_ptr@U_THREAD_CONTEXT@@@std@@@ZV12@@2@XZ 10098680 f i communication.obj
 0002:000146d0       ?_Orphan_all@?$_Vector_alloc@U?$_Vec_base_types@Vthread@std@@V?$allocator@Vthread@std@@@2@@std@@@std@@QAEXXZ 100986d0 f i communication.obj
 0002:00014730       ?_Orphan_all@_Container_base12@std@@QAEXXZ 10098730 f i communication.obj
 0002:00014820       ?_Orphan_me@_Iterator_base12@std@@QAEXXZ 10098820 f i communication.obj
 0002:000148f0       ?_Orphan_range@?$vector@Vthread@std@@V?$allocator@Vthread@std@@@2@@std@@IBEXPAVthread@2@0@Z 100988f0 f i communication.obj
 0002:00014a50       ?_Reallocate@?$vector@Vthread@std@@V?$allocator@Vthread@std@@@2@@std@@IAEXI@Z 10098a50 f i communication.obj
 0002:00014c40       ?_Release@_Auto_cnd@std@@QAEXXZ 10098c40 f i communication.obj
 0002:00014c80       ?_Release@_Auto_mtx@std@@QAEXXZ 10098c80 f i communication.obj
 0002:00014cc0       ?_Release@_Pad@std@@QAEXXZ 10098cc0 f i communication.obj
 0002:00014d50       ?_Reserve@?$vector@Vthread@std@@V?$allocator@Vthread@std@@@2@@std@@IAEXI@Z 10098d50 f i communication.obj
 0002:00014e00       ?_Reset0@?$_Ptr_base@U_THREAD_CONTEXT@@@std@@QAEXPAU_THREAD_CONTEXT@@PAV_Ref_count_base@2@@Z 10098e00 f i communication.obj
 0002:00014e80       ?_Reset@?$_Ptr_base@U_THREAD_CONTEXT@@@std@@QAEXPAU_THREAD_CONTEXT@@PAV_Ref_count_base@2@@Z 10098e80 f i communication.obj
 0002:00014ef0       ?_Run@?$_LaunchPad@V?$unique_ptr@V?$tuple@P6AXV?$shared_ptr@U_THREAD_CONTEXT@@@std@@@ZV12@@std@@U?$default_delete@V?$tuple@P6AXV?$shared_ptr@U_THREAD_CONTEXT@@@std@@@ZV12@@std@@@2@@std@@@std@@CAXPAV12@@Z 10098ef0 f i communication.obj
 0002:00014ff0       ?_Thrd_startX@std@@YAHPAU_Thrd_imp_t@@P6GIPAX@Z1@Z 10098ff0 f i communication.obj
 0002:00015080       ?_Tidy@?$vector@Vthread@std@@V?$allocator@Vthread@std@@@2@@std@@IAEXXZ 10099080 f i communication.obj
 0002:00015180       ?_Unused_capacity@?$vector@Vthread@std@@V?$allocator@Vthread@std@@@2@@std@@QBEIXZ 10099180 f i communication.obj
 0002:000151f0       ?_Xlen@?$vector@Vthread@std@@V?$allocator@Vthread@std@@@2@@std@@IBEXXZ 100991f0 f i communication.obj
 0002:00015250       ?address@?$_Wrap_alloc@V?$allocator@U_Container_proxy@std@@@std@@@std@@QBEPAU_Container_proxy@2@AAU32@@Z 10099250 f i communication.obj
 0002:000152b0       ?allocate@?$_Wrap_alloc@V?$allocator@U_Container_proxy@std@@@std@@@std@@QAEPAU_Container_proxy@2@I@Z 100992b0 f i communication.obj
 0002:00015310       ?allocate@?$_Wrap_alloc@V?$allocator@Vthread@std@@@std@@@std@@QAEPAVthread@2@I@Z 10099310 f i communication.obj
 0002:00015370       ?allocate@?$allocator@U_Container_proxy@std@@@std@@QAEPAU_Container_proxy@2@I@Z 10099370 f i communication.obj
 0002:000153d0       ?allocate@?$allocator@Vthread@std@@@std@@QAEPAVthread@2@I@Z 100993d0 f i communication.obj
 0002:00015430       ?begin@?$vector@Vthread@std@@V?$allocator@Vthread@std@@@2@@std@@QAE?AV?$_Vector_iterator@V?$_Vector_val@U?$_Simple_types@Vthread@std@@@std@@@std@@@2@XZ 10099430 f i communication.obj
 0002:000154e0       ?capacity@?$vector@Vthread@std@@V?$allocator@Vthread@std@@@2@@std@@QBEIXZ 100994e0 f i communication.obj
 0002:00015550       ?clear@?$vector@Vthread@std@@V?$allocator@Vthread@std@@@2@@std@@QAEXXZ 10099550 f i communication.obj
 0002:00015620       ?deallocate@?$_Wrap_alloc@V?$allocator@U_Container_proxy@std@@@std@@@std@@QAEXPAU_Container_proxy@2@I@Z 10099620 f i communication.obj
 0002:00015680       ?deallocate@?$_Wrap_alloc@V?$allocator@Vthread@std@@@std@@@std@@QAEXPAVthread@2@I@Z 10099680 f i communication.obj
 0002:000156e0       ?deallocate@?$allocator@U_Container_proxy@std@@@std@@QAEXPAU_Container_proxy@2@I@Z 100996e0 f i communication.obj
 0002:00015740       ?deallocate@?$allocator@Vthread@std@@@std@@QAEXPAVthread@2@I@Z 10099740 f i communication.obj
 0002:000157a0       ?end@?$vector@Vthread@std@@V?$allocator@Vthread@std@@@2@@std@@QAE?AV?$_Vector_iterator@V?$_Vector_val@U?$_Simple_types@Vthread@std@@@std@@@std@@@2@XZ 100997a0 f i communication.obj
 0002:00015850       ?get@?$unique_ptr@V?$tuple@P6AXV?$shared_ptr@U_THREAD_CONTEXT@@@std@@@ZV12@@std@@U?$default_delete@V?$tuple@P6AXV?$shared_ptr@U_THREAD_CONTEXT@@@std@@@ZV12@@std@@@2@@std@@QBEPAV?$tuple@P6AXV?$shared_ptr@U_THREAD_CONTEXT@@@std@@@ZV12@@2@XZ 10099850 f i communication.obj
 0002:000158b0       ?get_deleter@?$_Unique_ptr_base@V?$tuple@P6AXV?$shared_ptr@U_THREAD_CONTEXT@@@std@@@ZV12@@std@@U?$default_delete@V?$tuple@P6AXV?$shared_ptr@U_THREAD_CONTEXT@@@std@@@ZV12@@std@@@2@@std@@QAEAAU?$default_delete@V?$tuple@P6AXV?$shared_ptr@U_THREAD_CONTEXT@@@std@@@ZV12@@std@@@2@XZ 100998b0 f i communication.obj
 0002:00015900       ?get_id@this_thread@std@@YA?AVid@thread@2@XZ 10099900 f i communication.obj
 0002:00015990       ?get_id@thread@std@@QBE?AVid@12@XZ 10099990 f i communication.obj
 0002:00015a30       ?join@thread@std@@QAEXXZ   10099a30 f i communication.obj
 0002:00015b70       ?joinable@thread@std@@QBE_NXZ 10099b70 f i communication.obj
 0002:00015be0       ?max_size@?$_Wrap_alloc@V?$allocator@Vthread@std@@@std@@@std@@QBEIU_Nil@2@@Z 10099be0 f i communication.obj
 0002:00015c40       ?max_size@?$allocator@Vthread@std@@@std@@QBEIXZ 10099c40 f i communication.obj
 0002:00015c80       ?max_size@?$allocator_traits@V?$allocator@Vthread@std@@@std@@@std@@SAIABV?$allocator@Vthread@std@@@2@@Z 10099c80 f i communication.obj
 0002:00015cd0       ?max_size@?$vector@Vthread@std@@V?$allocator@Vthread@std@@@2@@std@@QBEIXZ 10099cd0 f i communication.obj
 0002:00015d40       ?pointer_to@?$pointer_traits@PAU_Container_proxy@std@@@std@@SAPAU_Container_proxy@2@AAU32@@Z 10099d40 f i communication.obj
 0002:00015d90       ?pointer_to@?$pointer_traits@PAVthread@std@@@std@@SAPAVthread@2@AAV32@@Z 10099d90 f i communication.obj
 0002:00015de0       ?push_back@?$vector@Vthread@std@@V?$allocator@Vthread@std@@@2@@std@@QAEX$$QAVthread@2@@Z 10099de0 f i communication.obj
 0002:00016010       ?release@?$unique_ptr@V?$tuple@P6AXV?$shared_ptr@U_THREAD_CONTEXT@@@std@@@ZV12@@std@@U?$default_delete@V?$tuple@P6AXV?$shared_ptr@U_THREAD_CONTEXT@@@std@@@ZV12@@std@@@2@@std@@QAEPAV?$tuple@P6AXV?$shared_ptr@U_THREAD_CONTEXT@@@std@@@ZV12@@2@XZ 1009a010 f i communication.obj
 0002:00016080       ?size@?$vector@Vthread@std@@V?$allocator@Vthread@std@@@2@@std@@QBEIXZ 1009a080 f i communication.obj
 0002:000160f0       _HRESULT_FROM_WIN32        1009a0f0 f i communication.obj
 0002:00016160       ??$__vcrt_va_start_verify_argument_type@PBD@@YAXXZ 1009a160 f i debug.obj
 0002:00016190       ??$__vcrt_va_start_verify_argument_type@QBD@@YAXXZ 1009a190 f i debug.obj
 0002:000161c0       ?lastchars@@YAPBDPBDH@Z    1009a1c0 f i debug.obj
 0002:00016240       _LogPrint2                 1009a240 f   debug.obj
 0002:00016400       ___local_stdio_printf_options 1009a400 f i debug.obj
 0002:00016440       __vsprintf_s_l             1009a440 f i debug.obj
 0002:000164e0       _sprintf_s                 1009a4e0 f i debug.obj
 0002:00016560       _vsprintf_s                1009a560 f i debug.obj
 0002:000165c0       ?DexQueryDriver@@YAJPAE0@Z 1009a5c0 f   dll1.obj
 0002:00016780       ?DexStartDriver@@YAJEPAE@Z 1009a780 f   dll1.obj
 0002:000168f0       ?DexStopDriver@@YAJXZ      1009a8f0 f   dll1.obj
 0002:00016980       _DllMain@12                1009a980 f   dll1.obj
 0002:000169d0       _DexQueryDriver            1009a9d0 f   public_api.obj
 0002:00016b90       _DexStartDriver            1009ab90 f   public_api.obj
 0002:00016d00       _DexStopDriver             1009ad00 f   public_api.obj
 0002:00016d90       _DexTestCommand            1009ad90 f   public_api.obj
 0002:00016de0       _DexToggleProcessMonitoring 1009ade0 f   public_api.obj
 0002:00016e30       _InitializeDriverLibrary   1009ae30 f   public_api.obj
 0002:00016ef0       _UninitializeDriverLibrary 1009aef0 f   public_api.obj
 0002:00016f38       _FilterConnectCommunicationPort@24 1009af38 f   fltlib:FLTLIB.DLL
 0002:00016f3e       _FilterSendMessage@24      1009af3e f   fltlib:FLTLIB.DLL
 0002:00016f44       _FilterGetMessage@16       1009af44 f   fltlib:FLTLIB.DLL
 0002:00016f4a       _FilterReplyMessage@12     1009af4a f   fltlib:FLTLIB.DLL
 0002:00016f50       _FilterLoad@4              1009af50 f   fltlib:FLTLIB.DLL
 0002:00016f56       _FilterUnload@4            1009af56 f   fltlib:FLTLIB.DLL
 0002:00016f5c       _FilterCreate@8            1009af5c f   fltlib:FLTLIB.DLL
 0002:00016f62       _FilterClose@4             1009af62 f   fltlib:FLTLIB.DLL
 0002:00016f68       _CloseHandle@4             1009af68 f   kernel32:KERNEL32.dll
 0002:00016f6e       _GetLastError@0            1009af6e f   kernel32:KERNEL32.dll
 0002:00016f74       _GetOverlappedResult@16    1009af74 f   kernel32:KERNEL32.dll
 0002:00016f7a       _SetEvent@4                1009af7a f   kernel32:KERNEL32.dll
 0002:00016f80       _WaitForSingleObject@8     1009af80 f   kernel32:KERNEL32.dll
 0002:00016f86       _CreateEventW@16           1009af86 f   kernel32:KERNEL32.dll
 0002:00016f8c       _WaitForMultipleObjects@16 1009af8c f   kernel32:KERNEL32.dll
 0002:00016f92       _GetCurrentProcessId@0     1009af92 f   kernel32:KERNEL32.dll
 0002:00016f98       _GetCurrentThreadId@0      1009af98 f   kernel32:KERNEL32.dll
 0002:00016f9e       _OutputDebugStringA@4      1009af9e f   kernel32:KERNEL32.dll
 0002:00016fa4       _RegCloseKey@4             1009afa4 f   advapi32:ADVAPI32.dll
 0002:00016faa       _RegOpenKeyExW@20          1009afaa f   advapi32:ADVAPI32.dll
 0002:00016fb0       ??0_Init_locks@std@@QAE@XZ 1009afb0 f   libcpmtd:xlock.obj
 0002:00017010       ??0_Lockit@std@@QAE@H@Z    1009b010 f   libcpmtd:xlock.obj
 0002:00017070       ??0_Lockit@std@@QAE@XZ     1009b070 f   libcpmtd:xlock.obj
 0002:000170c0       ??1_Init_locks@std@@QAE@XZ 1009b0c0 f   libcpmtd:xlock.obj
 0002:00017120       ??1_Lockit@std@@QAE@XZ     1009b120 f   libcpmtd:xlock.obj
 0002:00017170       ?_Init_locks_ctor@_Init_locks@std@@CAXPAV12@@Z 1009b170 f   libcpmtd:xlock.obj
 0002:000171d0       ?_Init_locks_dtor@_Init_locks@std@@CAXPAV12@@Z 1009b1d0 f   libcpmtd:xlock.obj
 0002:00017230       ?_Lockit_ctor@_Lockit@std@@CAXPAV12@@Z 1009b230 f   libcpmtd:xlock.obj
 0002:00017260       ?_Lockit_ctor@_Lockit@std@@CAXPAV12@H@Z 1009b260 f   libcpmtd:xlock.obj
 0002:000172a0       ?_Lockit_ctor@_Lockit@std@@SAXH@Z 1009b2a0 f   libcpmtd:xlock.obj
 0002:000172e0       ?_Lockit_dtor@_Lockit@std@@CAXPAV12@@Z 1009b2e0 f   libcpmtd:xlock.obj
 0002:00017300       ?_Lockit_dtor@_Lockit@std@@SAXH@Z 1009b300 f   libcpmtd:xlock.obj
 0002:00017340       __Lock_at_thread_exit_mutex 1009b340 f   libcpmtd:xlock.obj
 0002:00017370       __Unlock_at_thread_exit_mutex 1009b370 f   libcpmtd:xlock.obj
 0002:000173a0       ?_Debug_message@std@@YAXPBG0I@Z 1009b3a0 f   libcpmtd:stdthrow.obj
 0002:000173c0       ?_Debug_message@std@@YAXPB_W0I@Z 1009b3c0 f   libcpmtd:stdthrow.obj
 0002:00017400       ??0bad_alloc@std@@QAE@ABV01@@Z 1009b400 f i libcpmtd:xthrow.obj
 0002:00017430       ??0bad_alloc@std@@QAE@XZ   1009b430 f i libcpmtd:xthrow.obj
 0002:00017460       ??0bad_function_call@std@@QAE@ABV01@@Z 1009b460 f i libcpmtd:xthrow.obj
 0002:00017490       ??0bad_function_call@std@@QAE@XZ 1009b490 f i libcpmtd:xthrow.obj
 0002:000174c0       ??0exception@std@@QAE@ABV01@@Z 1009b4c0 f i libcpmtd:xthrow.obj
 0002:00017510       ??0exception@std@@QAE@QBD@Z 1009b510 f i libcpmtd:xthrow.obj
 0002:00017570       ??0exception@std@@QAE@QBDH@Z 1009b570 f i libcpmtd:xthrow.obj
 0002:000175b0       ??0exception@std@@QAE@XZ   1009b5b0 f i libcpmtd:xthrow.obj
 0002:000175e0       ??0invalid_argument@std@@QAE@ABV01@@Z 1009b5e0 f i libcpmtd:xthrow.obj
 0002:00017610       ??0invalid_argument@std@@QAE@PBD@Z 1009b610 f i libcpmtd:xthrow.obj
 0002:00017640       ??0length_error@std@@QAE@ABV01@@Z 1009b640 f i libcpmtd:xthrow.obj
 0002:00017670       ??0length_error@std@@QAE@PBD@Z 1009b670 f i libcpmtd:xthrow.obj
 0002:000176a0       ??0logic_error@std@@QAE@ABV01@@Z 1009b6a0 f i libcpmtd:xthrow.obj
 0002:000176d0       ??0logic_error@std@@QAE@PBD@Z 1009b6d0 f i libcpmtd:xthrow.obj
 0002:00017700       ??0out_of_range@std@@QAE@ABV01@@Z 1009b700 f i libcpmtd:xthrow.obj
 0002:00017730       ??0out_of_range@std@@QAE@PBD@Z 1009b730 f i libcpmtd:xthrow.obj
 0002:00017760       ??0overflow_error@std@@QAE@ABV01@@Z 1009b760 f i libcpmtd:xthrow.obj
 0002:00017790       ??0overflow_error@std@@QAE@PBD@Z 1009b790 f i libcpmtd:xthrow.obj
 0002:000177c0       ??0regex_error@std@@QAE@ABV01@@Z 1009b7c0 f i libcpmtd:xthrow.obj
 0002:00017800       ??0regex_error@std@@QAE@W4error_type@regex_constants@1@@Z 1009b800 f i libcpmtd:xthrow.obj
 0002:00017850       ??0runtime_error@std@@QAE@ABV01@@Z 1009b850 f i libcpmtd:xthrow.obj
 0002:00017880       ??0runtime_error@std@@QAE@PBD@Z 1009b880 f i libcpmtd:xthrow.obj
 0002:000178b0       ??1bad_alloc@std@@UAE@XZ   1009b8b0 f i libcpmtd:xthrow.obj
 0002:000178d0       ??1bad_function_call@std@@UAE@XZ 1009b8d0 f i libcpmtd:xthrow.obj
 0002:000178f0       ??1exception@std@@UAE@XZ   1009b8f0 f i libcpmtd:xthrow.obj
 0002:00017920       ??1invalid_argument@std@@UAE@XZ 1009b920 f i libcpmtd:xthrow.obj
 0002:00017940       ??1length_error@std@@UAE@XZ 1009b940 f i libcpmtd:xthrow.obj
 0002:00017960       ??1logic_error@std@@UAE@XZ 1009b960 f i libcpmtd:xthrow.obj
 0002:00017980       ??1out_of_range@std@@UAE@XZ 1009b980 f i libcpmtd:xthrow.obj
 0002:000179a0       ??1overflow_error@std@@UAE@XZ 1009b9a0 f i libcpmtd:xthrow.obj
 0002:000179c0       ??1regex_error@std@@UAE@XZ 1009b9c0 f i libcpmtd:xthrow.obj
 0002:000179e0       ??1runtime_error@std@@UAE@XZ 1009b9e0 f i libcpmtd:xthrow.obj
 0002:00017a00       ??_Gbad_alloc@std@@UAEPAXI@Z 1009ba00 f i libcpmtd:xthrow.obj
 0002:00017a00       ??_Ebad_alloc@std@@UAEPAXI@Z 1009ba00 f i libcpmtd:xthrow.obj
 0002:00017a40       ??_Gbad_function_call@std@@UAEPAXI@Z 1009ba40 f i libcpmtd:xthrow.obj
 0002:00017a40       ??_Ebad_function_call@std@@UAEPAXI@Z 1009ba40 f i libcpmtd:xthrow.obj
 0002:00017a80       ??_Eexception@std@@UAEPAXI@Z 1009ba80 f i libcpmtd:xthrow.obj
 0002:00017a80       ??_Gexception@std@@UAEPAXI@Z 1009ba80 f i libcpmtd:xthrow.obj
 0002:00017ac0       ??_Ginvalid_argument@std@@UAEPAXI@Z 1009bac0 f i libcpmtd:xthrow.obj
 0002:00017ac0       ??_Einvalid_argument@std@@UAEPAXI@Z 1009bac0 f i libcpmtd:xthrow.obj
 0002:00017b00       ??_Elength_error@std@@UAEPAXI@Z 1009bb00 f i libcpmtd:xthrow.obj
 0002:00017b00       ??_Glength_error@std@@UAEPAXI@Z 1009bb00 f i libcpmtd:xthrow.obj
 0002:00017b40       ??_Glogic_error@std@@UAEPAXI@Z 1009bb40 f i libcpmtd:xthrow.obj
 0002:00017b40       ??_Elogic_error@std@@UAEPAXI@Z 1009bb40 f i libcpmtd:xthrow.obj
 0002:00017b80       ??_Gout_of_range@std@@UAEPAXI@Z 1009bb80 f i libcpmtd:xthrow.obj
 0002:00017b80       ??_Eout_of_range@std@@UAEPAXI@Z 1009bb80 f i libcpmtd:xthrow.obj
 0002:00017bc0       ??_Goverflow_error@std@@UAEPAXI@Z 1009bbc0 f i libcpmtd:xthrow.obj
 0002:00017bc0       ??_Eoverflow_error@std@@UAEPAXI@Z 1009bbc0 f i libcpmtd:xthrow.obj
 0002:00017c00       ??_Eregex_error@std@@UAEPAXI@Z 1009bc00 f i libcpmtd:xthrow.obj
 0002:00017c00       ??_Gregex_error@std@@UAEPAXI@Z 1009bc00 f i libcpmtd:xthrow.obj
 0002:00017c40       ??_Gruntime_error@std@@UAEPAXI@Z 1009bc40 f i libcpmtd:xthrow.obj
 0002:00017c40       ??_Eruntime_error@std@@UAEPAXI@Z 1009bc40 f i libcpmtd:xthrow.obj
 0002:00017c80       ?_Stringify@regex_error@std@@CAPBDW4error_type@regex_constants@2@@Z 1009bc80 f i libcpmtd:xthrow.obj
 0002:00017d80       ?_Xbad_alloc@std@@YAXXZ    1009bd80 f   libcpmtd:xthrow.obj
 0002:00017db0       ?_Xbad_function_call@std@@YAXXZ 1009bdb0 f   libcpmtd:xthrow.obj
 0002:00017de0       ?_Xinvalid_argument@std@@YAXPBD@Z 1009bde0 f   libcpmtd:xthrow.obj
 0002:00017e10       ?_Xlength_error@std@@YAXPBD@Z 1009be10 f   libcpmtd:xthrow.obj
 0002:00017e40       ?_Xout_of_range@std@@YAXPBD@Z 1009be40 f   libcpmtd:xthrow.obj
 0002:00017e70       ?_Xoverflow_error@std@@YAXPBD@Z 1009be70 f   libcpmtd:xthrow.obj
 0002:00017ea0       ?_Xregex_error@std@@YAXW4error_type@regex_constants@1@@Z 1009bea0 f   libcpmtd:xthrow.obj
 0002:00017ed0       ?_Xruntime_error@std@@YAXPBD@Z 1009bed0 f   libcpmtd:xthrow.obj
 0002:00017f00       ?__empty_global_delete@@YAXPAX@Z 1009bf00 f i libcpmtd:xthrow.obj
 0002:00017f10       ?__empty_global_delete@@YAXPAXI@Z 1009bf10 f i libcpmtd:xthrow.obj
 0002:00017f20       ?what@bad_function_call@std@@UBEPBDXZ 1009bf20 f i libcpmtd:xthrow.obj
 0002:00017f40       ?what@exception@std@@UBEPBDXZ 1009bf40 f i libcpmtd:xthrow.obj
 0002:00017f80       __Thrd_abort               1009bf80 f   libcpmtd:cthread.obj
 0002:00017fd0       __Thrd_create              1009bfd0 f   libcpmtd:cthread.obj
 0002:000180b0       __Thrd_current             1009c0b0 f   libcpmtd:cthread.obj
 0002:00018120       __Thrd_detach              1009c120 f   libcpmtd:cthread.obj
 0002:00018160       __Thrd_equal               1009c160 f   libcpmtd:cthread.obj
 0002:00018190       __Thrd_exit                1009c190 f   libcpmtd:cthread.obj
 0002:000181b0       __Thrd_hardware_concurrency 1009c1b0 f   libcpmtd:cthread.obj
 0002:000181d0       __Thrd_id                  1009c1d0 f   libcpmtd:cthread.obj
 0002:000181e0       __Thrd_join                1009c1e0 f   libcpmtd:cthread.obj
 0002:00018260       __Thrd_sleep               1009c260 f   libcpmtd:cthread.obj
 0002:00018320       __Thrd_start               1009c320 f   libcpmtd:cthread.obj
 0002:00018380       __Thrd_yield               1009c380 f   libcpmtd:cthread.obj
 0002:00018440       ??0stl_critical_section_concrt@details@Concurrency@@QAE@XZ 1009c440 f i libcpmtd:mutex.obj
 0002:00018480       ??0stl_critical_section_interface@details@Concurrency@@QAE@XZ 1009c480 f i libcpmtd:mutex.obj
 0002:000184a0       ??0stl_critical_section_vista@details@Concurrency@@QAE@XZ 1009c4a0 f i libcpmtd:mutex.obj
 0002:000184f0       ??0stl_critical_section_win7@details@Concurrency@@QAE@XZ 1009c4f0 f i libcpmtd:mutex.obj
 0002:00018530       ??1GlobalCore@details@Concurrency@@QAE@XZ 1009c530 f i libcpmtd:mutex.obj
 0002:00018560       ??3@YAXPAX0@Z              1009c560 f i libcpmtd:mutex.obj
 0002:00018570       ??_EGlobalCore@details@Concurrency@@QAEPAXI@Z 1009c570 f i libcpmtd:mutex.obj
 0002:00018640       ??_Gcritical_section@Concurrency@@QAEPAXI@Z 1009c640 f i libcpmtd:mutex.obj
 0002:00018680       ??_H@YGXPAXIIP6EPAX0@Z@Z   1009c680 f i libcpmtd:mutex.obj
 0002:000186d0       ?_get_cs@_Mtx_internal_imp_t@@QAEPAVstl_critical_section_interface@details@Concurrency@@XZ 1009c6d0 f i libcpmtd:mutex.obj
 0002:000186f0       ?are_vista_sync_apis_available@details@Concurrency@@YA_NXZ 1009c6f0 f i libcpmtd:mutex.obj
 0002:00018740       ?are_win7_sync_apis_available@details@Concurrency@@YA_NXZ 1009c740 f i libcpmtd:mutex.obj
 0002:00018790       ?create_stl_critical_section@details@Concurrency@@YAXPAVstl_critical_section_interface@12@@Z 1009c790 f i libcpmtd:mutex.obj
 0002:00018910       ?destroy@stl_critical_section_concrt@details@Concurrency@@UAEXXZ 1009c910 f i libcpmtd:mutex.obj
 0002:00018930       ?destroy@stl_critical_section_vista@details@Concurrency@@UAEXXZ 1009c930 f i libcpmtd:mutex.obj
 0002:00018950       ?destroy@stl_critical_section_win7@details@Concurrency@@UAEXXZ 1009c950 f i libcpmtd:mutex.obj
 0002:00018960       ?lock@stl_critical_section_concrt@details@Concurrency@@UAEXXZ 1009c960 f i libcpmtd:mutex.obj
 0002:00018980       ?lock@stl_critical_section_vista@details@Concurrency@@UAEXXZ 1009c980 f i libcpmtd:mutex.obj
 0002:000189a0       ?lock@stl_critical_section_win7@details@Concurrency@@UAEXXZ 1009c9a0 f i libcpmtd:mutex.obj
 0002:00018d50       ?try_lock@stl_critical_section_concrt@details@Concurrency@@UAE_NXZ 1009cd50 f i libcpmtd:mutex.obj
 0002:00018d70       ?try_lock@stl_critical_section_vista@details@Concurrency@@UAE_NXZ 1009cd70 f i libcpmtd:mutex.obj
 0002:00018db0       ?try_lock@stl_critical_section_win7@details@Concurrency@@UAE_NXZ 1009cdb0 f i libcpmtd:mutex.obj
 0002:00018e00       ?try_lock_for@stl_critical_section_concrt@details@Concurrency@@UAE_NI@Z 1009ce00 f i libcpmtd:mutex.obj
 0002:00018e30       ?try_lock_for@stl_critical_section_vista@details@Concurrency@@UAE_NI@Z 1009ce30 f i libcpmtd:mutex.obj
 0002:00018e50       ?try_lock_for@stl_critical_section_win7@details@Concurrency@@UAE_NI@Z 1009ce50 f i libcpmtd:mutex.obj
 0002:00018e70       ?unlock@stl_critical_section_concrt@details@Concurrency@@UAEXXZ 1009ce70 f i libcpmtd:mutex.obj
 0002:00018e90       ?unlock@stl_critical_section_vista@details@Concurrency@@UAEXXZ 1009ce90 f i libcpmtd:mutex.obj
 0002:00018eb0       ?unlock@stl_critical_section_win7@details@Concurrency@@UAEXXZ 1009ceb0 f i libcpmtd:mutex.obj
 0002:00018ed0       __Mtx_clear_owner          1009ced0 f   libcpmtd:mutex.obj
 0002:00018f00       __Mtx_current_owns         1009cf00 f   libcpmtd:mutex.obj
 0002:00018f40       __Mtx_destroy              1009cf40 f   libcpmtd:mutex.obj
 0002:00018f70       __Mtx_destroy_in_situ      1009cf70 f   libcpmtd:mutex.obj
 0002:00018fd0       __Mtx_getconcrtcs          1009cfd0 f   libcpmtd:mutex.obj
 0002:00018fe0       __Mtx_init                 1009cfe0 f   libcpmtd:mutex.obj
 0002:00019050       __Mtx_init_in_situ         1009d050 f   libcpmtd:mutex.obj
 0002:00019090       __Mtx_lock                 1009d090 f   libcpmtd:mutex.obj
 0002:000190b0       __Mtx_reset_owner          1009d0b0 f   libcpmtd:mutex.obj
 0002:000190e0       __Mtx_timedlock            1009d0e0 f   libcpmtd:mutex.obj
 0002:00019150       __Mtx_trylock              1009d150 f   libcpmtd:mutex.obj
 0002:000191c0       __Mtx_unlock               1009d1c0 f   libcpmtd:mutex.obj
 0002:00019260       ___set_stl_sync_api_mode   1009d260 f   libcpmtd:mutex.obj
 0002:00019270       ??0stl_condition_variable_concrt@details@Concurrency@@QAE@XZ 1009d270 f i libcpmtd:cond.obj
 0002:000192b0       ??0stl_condition_variable_interface@details@Concurrency@@QAE@XZ 1009d2b0 f i libcpmtd:cond.obj
 0002:000192d0       ??0stl_condition_variable_vista@details@Concurrency@@QAE@XZ 1009d2d0 f i libcpmtd:cond.obj
 0002:00019310       ??0stl_condition_variable_win7@details@Concurrency@@QAE@XZ 1009d310 f i libcpmtd:cond.obj
 0002:00019350       ??_G_Condition_variable@details@Concurrency@@QAEPAXI@Z 1009d350 f i libcpmtd:cond.obj
 0002:00019390       ?_get_cv@_Cnd_internal_imp_t@@QAEPAVstl_condition_variable_interface@details@Concurrency@@XZ 1009d390 f i libcpmtd:cond.obj
 0002:000193b0       ?create_stl_condition_variable@details@Concurrency@@YAXPAVstl_condition_variable_interface@12@@Z 1009d3b0 f i libcpmtd:cond.obj
 0002:00019530       ?destroy@stl_condition_variable_concrt@details@Concurrency@@UAEXXZ 1009d530 f i libcpmtd:cond.obj
 0002:00019550       ?destroy@stl_condition_variable_vista@details@Concurrency@@UAEXXZ 1009d550 f i libcpmtd:cond.obj
 0002:00019560       ?destroy@stl_condition_variable_win7@details@Concurrency@@UAEXXZ 1009d560 f i libcpmtd:cond.obj
 0002:00019750       ?native_handle@stl_critical_section_concrt@details@Concurrency@@QAEAAVcritical_section@3@XZ 1009d750 f i libcpmtd:cond.obj
 0002:00019770       ?native_handle@stl_critical_section_vista@details@Concurrency@@QAEPAU_RTL_CRITICAL_SECTION@@XZ 1009d770 f i libcpmtd:cond.obj
 0002:00019790       ?native_handle@stl_critical_section_win7@details@Concurrency@@QAEPAU_RTL_SRWLOCK@@XZ 1009d790 f i libcpmtd:cond.obj
 0002:000197b0       ?notify_all@stl_condition_variable_concrt@details@Concurrency@@UAEXXZ 1009d7b0 f i libcpmtd:cond.obj
 0002:000197d0       ?notify_all@stl_condition_variable_vista@details@Concurrency@@UAEXXZ 1009d7d0 f i libcpmtd:cond.obj
 0002:000197f0       ?notify_all@stl_condition_variable_win7@details@Concurrency@@UAEXXZ 1009d7f0 f i libcpmtd:cond.obj
 0002:00019810       ?notify_one@stl_condition_variable_concrt@details@Concurrency@@UAEXXZ 1009d810 f i libcpmtd:cond.obj
 0002:00019830       ?notify_one@stl_condition_variable_vista@details@Concurrency@@UAEXXZ 1009d830 f i libcpmtd:cond.obj
 0002:00019850       ?notify_one@stl_condition_variable_win7@details@Concurrency@@UAEXXZ 1009d850 f i libcpmtd:cond.obj
 0002:00019870       ?wait@stl_condition_variable_concrt@details@Concurrency@@UAEXPAVstl_critical_section_interface@23@@Z 1009d870 f i libcpmtd:cond.obj
 0002:000198a0       ?wait@stl_condition_variable_vista@details@Concurrency@@UAEXPAVstl_critical_section_interface@23@@Z 1009d8a0 f i libcpmtd:cond.obj
 0002:000198d0       ?wait@stl_condition_variable_win7@details@Concurrency@@UAEXPAVstl_critical_section_interface@23@@Z 1009d8d0 f i libcpmtd:cond.obj
 0002:00019900       ?wait_for@stl_condition_variable_concrt@details@Concurrency@@UAE_NPAVstl_critical_section_interface@23@I@Z 1009d900 f i libcpmtd:cond.obj
 0002:00019930       ?wait_for@stl_condition_variable_vista@details@Concurrency@@UAE_NPAVstl_critical_section_interface@23@I@Z 1009d930 f i libcpmtd:cond.obj
 0002:00019990       ?wait_for@stl_condition_variable_win7@details@Concurrency@@UAE_NPAVstl_critical_section_interface@23@I@Z 1009d990 f i libcpmtd:cond.obj
 0002:000199f0       __Cnd_broadcast            1009d9f0 f   libcpmtd:cond.obj
 0002:00019a10       __Cnd_destroy              1009da10 f   libcpmtd:cond.obj
 0002:00019a40       __Cnd_destroy_in_situ      1009da40 f   libcpmtd:cond.obj
 0002:00019a80       __Cnd_init                 1009da80 f   libcpmtd:cond.obj
 0002:00019af0       __Cnd_init_in_situ         1009daf0 f   libcpmtd:cond.obj
 0002:00019b10       __Cnd_signal               1009db10 f   libcpmtd:cond.obj
 0002:00019b30       __Cnd_timedwait            1009db30 f   libcpmtd:cond.obj
 0002:00019b50       __Cnd_wait                 1009db50 f   libcpmtd:cond.obj
 0002:00019b70       __Cnd_do_broadcast_at_thread_exit 1009db70 f   libcpmtd:xnotify.obj
 0002:00019cd0       __Cnd_register_at_thread_exit 1009dcd0 f   libcpmtd:xnotify.obj
 0002:00019e00       __Cnd_unregister_at_thread_exit 1009de00 f   libcpmtd:xnotify.obj
 0002:00019eb0       ??$?0$$V@?$_Compressed_pair@U?$_Wrap_alloc@V?$allocator@D@std@@@std@@V?$_String_val@U?$_Simple_types@D@std@@@2@$00@std@@QAE@U_Zero_then_variadic_args_t@1@@Z 1009deb0 f i libcpmtd:thread0.obj
 0002:00019ee0       ??$?0AAU?$_Wrap_alloc@V?$allocator@D@std@@@std@@@?$_Wrap_alloc@V?$allocator@U_Container_proxy@std@@@std@@@std@@QAE@AAU?$_Wrap_alloc@V?$allocator@D@std@@@1@@Z 1009dee0 f i libcpmtd:thread0.obj
 0002:00019f10       ??$?0D@?$allocator@U_Container_proxy@std@@@std@@QAE@ABV?$allocator@D@1@@Z 1009df10 f i libcpmtd:thread0.obj
 0002:00019f30       ??$?0U?$_Wrap_alloc@V?$allocator@D@std@@@std@@$$V@?$_Compressed_pair@U?$_Wrap_alloc@V?$allocator@D@std@@@std@@V?$_String_val@U?$_Simple_types@D@std@@@2@$00@std@@QAE@U_One_then_variadic_args_t@1@$$QAU?$_Wrap_alloc@V?$allocator@D@std@@@1@@Z 1009df30 f i libcpmtd:thread0.obj
 0002:00019f70       ??$?0U?$_Wrap_alloc@V?$allocator@D@std@@@std@@X@?$_String_alloc@U?$_String_base_types@DV?$allocator@D@std@@@std@@@std@@QAE@$$QAU?$_Wrap_alloc@V?$allocator@D@std@@@1@@Z 1009df70 f i libcpmtd:thread0.obj
 0002:0001a000       ??$?0V?$allocator@D@std@@@?$_Wrap_alloc@V?$allocator@D@std@@@std@@QAE@$$QAV?$allocator@D@1@@Z 1009e000 f i libcpmtd:thread0.obj
 0002:0001a030       ??$_Debug_pointer@$$CBD@std@@YAXPBDPB_WI@Z 1009e030 f i libcpmtd:thread0.obj
 0002:0001a060       ??$_Debug_pointer_if@$$CBD@std@@YAX_NPBDPB_WI@Z 1009e060 f i libcpmtd:thread0.obj
 0002:0001a0a0       ??$_Immortalize@V_Generic_error_category@std@@@std@@YAAAV_Generic_error_category@0@XZ 1009e0a0 f i libcpmtd:thread0.obj
 0002:0001a140       ??$_Unfancy@D@std@@YAPADPAD@Z 1009e140 f i libcpmtd:thread0.obj
 0002:0001a150       ??$addressof@PAD@std@@YAPAPADAAPAD@Z 1009e150 f i libcpmtd:thread0.obj
 0002:0001a160       ??$construct@PADAAPAD@?$_Wrap_alloc@V?$allocator@D@std@@@std@@QAEXPAPADAAPAD@Z 1009e160 f i libcpmtd:thread0.obj
 0002:0001a1a0       ??$construct@PADAAPAD@?$allocator@D@std@@QAEXPAPADAAPAD@Z 1009e1a0 f i libcpmtd:thread0.obj
 0002:0001a200       ??$construct@PADAAPAD@?$allocator_traits@V?$allocator@D@std@@@std@@SAXAAV?$allocator@D@1@PAPADAAPAD@Z 1009e200 f i libcpmtd:thread0.obj
 0002:0001a230       ??$destroy@PAD@?$_Wrap_alloc@V?$allocator@D@std@@@std@@QAEXPAPAD@Z 1009e230 f i libcpmtd:thread0.obj
 0002:0001a260       ??$destroy@PAD@?$allocator@D@std@@QAEXPAPAD@Z 1009e260 f i libcpmtd:thread0.obj
 0002:0001a270       ??$destroy@PAD@?$allocator_traits@V?$allocator@D@std@@@std@@SAXAAV?$allocator@D@1@PAPAD@Z 1009e270 f i libcpmtd:thread0.obj
 0002:0001a290       ??$forward@AAPAD@std@@YAAAPADAAPAD@Z 1009e290 f i libcpmtd:thread0.obj
 0002:0001a2a0       ??$forward@AAU?$_Wrap_alloc@V?$allocator@D@std@@@std@@@std@@YAAAU?$_Wrap_alloc@V?$allocator@D@std@@@0@AAU10@@Z 1009e2a0 f i libcpmtd:thread0.obj
 0002:0001a2b0       ??$forward@U?$_Wrap_alloc@V?$allocator@D@std@@@std@@@std@@YA$$QAU?$_Wrap_alloc@V?$allocator@D@std@@@0@AAU10@@Z 1009e2b0 f i libcpmtd:thread0.obj
 0002:0001a2c0       ??$forward@V?$allocator@D@std@@@std@@YA$$QAV?$allocator@D@0@AAV10@@Z 1009e2c0 f i libcpmtd:thread0.obj
 0002:0001a2d0       ??$forward@V?$basic_string@DU?$char_traits@D@std@@V?$allocator@D@2@@std@@@std@@YA$$QAV?$basic_string@DU?$char_traits@D@std@@V?$allocator@D@2@@0@AAV10@@Z 1009e2d0 f i libcpmtd:thread0.obj
 0002:0001a2e0       ??$move@AAU?$_Wrap_alloc@V?$allocator@D@std@@@std@@@std@@YA$$QAU?$_Wrap_alloc@V?$allocator@D@std@@@0@AAU10@@Z 1009e2e0 f i libcpmtd:thread0.obj
 0002:0001a2f0       ??0?$_Immortalizer@V_Generic_error_category@std@@@std@@QAE@XZ 1009e2f0 f i libcpmtd:thread0.obj
 0002:0001a340       ??0?$_String_alloc@U?$_String_base_types@DV?$allocator@D@std@@@std@@@std@@QAE@XZ 1009e340 f i libcpmtd:thread0.obj
 0002:0001a3c0       ??0?$_String_val@U?$_Simple_types@D@std@@@std@@QAE@XZ 1009e3c0 f i libcpmtd:thread0.obj
 0002:0001a450       ??0?$_Wrap_alloc@V?$allocator@D@std@@@std@@QAE@$$QAU01@@Z 1009e450 f i libcpmtd:thread0.obj
 0002:0001a480       ??0?$_Wrap_alloc@V?$allocator@D@std@@@std@@QAE@XZ 1009e480 f i libcpmtd:thread0.obj
 0002:0001a4a0       ??0?$allocator@D@std@@QAE@ABV01@@Z 1009e4a0 f i libcpmtd:thread0.obj
 0002:0001a4c0       ??0?$allocator@D@std@@QAE@XZ 1009e4c0 f i libcpmtd:thread0.obj
 0002:0001a4e0       ??0?$basic_string@DU?$char_traits@D@std@@V?$allocator@D@2@@std@@QAE@$$QAV01@@Z 1009e4e0 f i libcpmtd:thread0.obj
 0002:0001a580       ??0?$basic_string@DU?$char_traits@D@std@@V?$allocator@D@2@@std@@QAE@ABV01@@Z 1009e580 f i libcpmtd:thread0.obj
 0002:0001a630       ??0?$basic_string@DU?$char_traits@D@std@@V?$allocator@D@2@@std@@QAE@PBD@Z 1009e630 f i libcpmtd:thread0.obj
 0002:0001a6c0       ??0_Bxty@?$_String_val@U?$_Simple_types@D@std@@@std@@QAE@XZ 1009e6c0 f i libcpmtd:thread0.obj
 0002:0001a6e0       ??0_Generic_error_category@std@@QAE@XZ 1009e6e0 f i libcpmtd:thread0.obj
 0002:0001a720       ??0_System_error@std@@IAE@Verror_code@1@ABV?$basic_string@DU?$char_traits@D@std@@V?$allocator@D@2@@1@@Z 1009e720 f i libcpmtd:thread0.obj
 0002:0001a810       ??0_System_error@std@@QAE@ABV01@@Z 1009e810 f i libcpmtd:thread0.obj
 0002:0001a860       ??0error_category@std@@QAE@XZ 1009e860 f i libcpmtd:thread0.obj
 0002:0001a890       ??0error_code@std@@QAE@HABVerror_category@1@@Z 1009e890 f i libcpmtd:thread0.obj
 0002:0001a8c0       ??0error_condition@std@@QAE@HABVerror_category@1@@Z 1009e8c0 f i libcpmtd:thread0.obj
 0002:0001a8f0       ??0runtime_error@std@@QAE@ABV?$basic_string@DU?$char_traits@D@std@@V?$allocator@D@2@@1@@Z 1009e8f0 f i libcpmtd:thread0.obj
 0002:0001a930       ??0system_error@std@@QAE@ABV01@@Z 1009e930 f i libcpmtd:thread0.obj
 0002:0001a960       ??0system_error@std@@QAE@HABVerror_category@1@PBD@Z 1009e960 f i libcpmtd:thread0.obj
 0002:0001aa20       ??1?$_Compressed_pair@U?$_Wrap_alloc@V?$allocator@D@std@@@std@@V?$_String_val@U?$_Simple_types@D@std@@@2@$00@std@@QAE@XZ 1009ea20 f i libcpmtd:thread0.obj
 0002:0001aa40       ??1?$_Immortalizer@V_Generic_error_category@std@@@std@@QAE@XZ 1009ea40 f i libcpmtd:thread0.obj
 0002:0001aa50       ??1?$_String_alloc@U?$_String_base_types@DV?$allocator@D@std@@@std@@@std@@QAE@XZ 1009ea50 f i libcpmtd:thread0.obj
 0002:0001aab0       ??1?$_String_val@U?$_Simple_types@D@std@@@std@@QAE@XZ 1009eab0 f i libcpmtd:thread0.obj
 0002:0001aae0       ??1?$basic_string@DU?$char_traits@D@std@@V?$allocator@D@2@@std@@QAE@XZ 1009eae0 f i libcpmtd:thread0.obj
 0002:0001ab40       ??1_Bxty@?$_String_val@U?$_Simple_types@D@std@@@std@@QAE@XZ 1009eb40 f i libcpmtd:thread0.obj
 0002:0001ab50       ??1_Generic_error_category@std@@UAE@XZ 1009eb50 f i libcpmtd:thread0.obj
 0002:0001ab70       ??1_System_error@std@@UAE@XZ 1009eb70 f i libcpmtd:thread0.obj
 0002:0001ab90       ??1error_category@std@@UAE@XZ 1009eb90 f i libcpmtd:thread0.obj
 0002:0001abb0       ??1system_error@std@@UAE@XZ 1009ebb0 f i libcpmtd:thread0.obj
 0002:0001abd0       ??8error_category@std@@QBE_NABV01@@Z 1009ebd0 f i libcpmtd:thread0.obj
 0002:0001ac10       ??8std@@YA_NABVerror_condition@0@0@Z 1009ec10 f i libcpmtd:thread0.obj
 0002:0001ac80       ??_G_Generic_error_category@std@@UAEPAXI@Z 1009ec80 f i libcpmtd:thread0.obj
 0002:0001ac80       ??_E_Generic_error_category@std@@UAEPAXI@Z 1009ec80 f i libcpmtd:thread0.obj
 0002:0001acc0       ??_G_System_error@std@@UAEPAXI@Z 1009ecc0 f i libcpmtd:thread0.obj
 0002:0001acc0       ??_E_System_error@std@@UAEPAXI@Z 1009ecc0 f i libcpmtd:thread0.obj
 0002:0001ad00       ??_Gerror_category@std@@UAEPAXI@Z 1009ed00 f i libcpmtd:thread0.obj
 0002:0001ad00       ??_Eerror_category@std@@UAEPAXI@Z 1009ed00 f i libcpmtd:thread0.obj
 0002:0001ad40       ??_Esystem_error@std@@UAEPAXI@Z 1009ed40 f i libcpmtd:thread0.obj
 0002:0001ad40       ??_Gsystem_error@std@@UAEPAXI@Z 1009ed40 f i libcpmtd:thread0.obj
 0002:0001ad80       ?_Alloc_proxy@?$_String_alloc@U?$_String_base_types@DV?$allocator@D@std@@@std@@@std@@QAEXXZ 1009ed80 f i libcpmtd:thread0.obj
 0002:0001ae10       ?_Assign_rv@?$basic_string@DU?$char_traits@D@std@@V?$allocator@D@2@@std@@QAEX$$QAV12@@Z 1009ee10 f i libcpmtd:thread0.obj
 0002:0001af00       ?_Bx@?$_String_alloc@U?$_String_base_types@DV?$allocator@D@std@@@std@@@std@@QAEAAT_Bxty@?$_String_val@U?$_Simple_types@D@std@@@2@XZ 1009ef00 f i libcpmtd:thread0.obj
 0002:0001af20       ?_Check_offset@?$basic_string@DU?$char_traits@D@std@@V?$allocator@D@2@@std@@QBEXI@Z 1009ef20 f i libcpmtd:thread0.obj
 0002:0001af50       ?_Clamp_suffix_size@?$basic_string@DU?$char_traits@D@std@@V?$allocator@D@2@@std@@QBEIII@Z 1009ef50 f i libcpmtd:thread0.obj
 0002:0001af90       ?_Copy@?$basic_string@DU?$char_traits@D@std@@V?$allocator@D@2@@std@@QAEXII@Z 1009ef90 f i libcpmtd:thread0.obj
 0002:0001b1e0       ?_Eos@?$basic_string@DU?$char_traits@D@std@@V?$allocator@D@2@@std@@QAEXI@Z 1009f1e0 f i libcpmtd:thread0.obj
 0002:0001b230       ?_Free_proxy@?$_String_alloc@U?$_String_base_types@DV?$allocator@D@std@@@std@@@std@@QAEXXZ 1009f230 f i libcpmtd:thread0.obj
 0002:0001b2b0       ?_Get_data@?$_String_alloc@U?$_String_base_types@DV?$allocator@D@std@@@std@@@std@@QAEAAV?$_String_val@U?$_Simple_types@D@std@@@2@XZ 1009f2b0 f i libcpmtd:thread0.obj
 0002:0001b2d0       ?_Get_data@?$_String_alloc@U?$_String_base_types@DV?$allocator@D@std@@@std@@@std@@QBEABV?$_String_val@U?$_Simple_types@D@std@@@2@XZ 1009f2d0 f i libcpmtd:thread0.obj
 0002:0001b2f0       ?_Get_first@?$_Compressed_pair@U?$_Wrap_alloc@V?$allocator@D@std@@@std@@V?$_String_val@U?$_Simple_types@D@std@@@2@$00@std@@QAEAAU?$_Wrap_alloc@V?$allocator@D@std@@@2@XZ 1009f2f0 f i libcpmtd:thread0.obj
 0002:0001b310       ?_Get_first@?$_Compressed_pair@U?$_Wrap_alloc@V?$allocator@D@std@@@std@@V?$_String_val@U?$_Simple_types@D@std@@@2@$00@std@@QBEABU?$_Wrap_alloc@V?$allocator@D@std@@@2@XZ 1009f310 f i libcpmtd:thread0.obj
 0002:0001b330       ?_Get_second@?$_Compressed_pair@U?$_Wrap_alloc@V?$allocator@D@std@@@std@@V?$_String_val@U?$_Simple_types@D@std@@@2@$00@std@@QAEAAV?$_String_val@U?$_Simple_types@D@std@@@2@XZ 1009f330 f i libcpmtd:thread0.obj
 0002:0001b350       ?_Get_second@?$_Compressed_pair@U?$_Wrap_alloc@V?$allocator@D@std@@@std@@V?$_String_val@U?$_Simple_types@D@std@@@2@$00@std@@QBEABV?$_String_val@U?$_Simple_types@D@std@@@2@XZ 1009f350 f i libcpmtd:thread0.obj
 0002:0001b370       ?_Getal@?$_String_alloc@U?$_String_base_types@DV?$allocator@D@std@@@std@@@std@@QAEAAU?$_Wrap_alloc@V?$allocator@D@std@@@2@XZ 1009f370 f i libcpmtd:thread0.obj
 0002:0001b390       ?_Getal@?$_String_alloc@U?$_String_base_types@DV?$allocator@D@std@@@std@@@std@@QBEABU?$_Wrap_alloc@V?$allocator@D@std@@@2@XZ 1009f390 f i libcpmtd:thread0.obj
 0002:0001b3b0       ?_Grow@?$basic_string@DU?$char_traits@D@std@@V?$allocator@D@2@@std@@QAE_NI_N@Z 1009f3b0 f i libcpmtd:thread0.obj
 0002:0001b4a0       ?_Inside@?$basic_string@DU?$char_traits@D@std@@V?$allocator@D@2@@std@@QAE_NPBD@Z 1009f4a0 f i libcpmtd:thread0.obj
 0002:0001b500       ?_Makestr@_System_error@std@@CA?AV?$basic_string@DU?$char_traits@D@std@@V?$allocator@D@2@@2@Verror_code@2@V32@@Z 1009f500 f i libcpmtd:thread0.obj
 0002:0001b600       ?_Myproxy@?$_String_alloc@U?$_String_base_types@DV?$allocator@D@std@@@std@@@std@@QAEAAPAU_Container_proxy@2@XZ 1009f600 f i libcpmtd:thread0.obj
 0002:0001b620       ?_Myptr@?$_String_alloc@U?$_String_base_types@DV?$allocator@D@std@@@std@@@std@@QAEPADXZ 1009f620 f i libcpmtd:thread0.obj
 0002:0001b640       ?_Myptr@?$_String_alloc@U?$_String_base_types@DV?$allocator@D@std@@@std@@@std@@QBEPBDXZ 1009f640 f i libcpmtd:thread0.obj
 0002:0001b660       ?_Myptr@?$_String_val@U?$_Simple_types@D@std@@@std@@QAEPADXZ 1009f660 f i libcpmtd:thread0.obj
 0002:0001b6b0       ?_Myptr@?$_String_val@U?$_Simple_types@D@std@@@std@@QBEPBDXZ 1009f6b0 f i libcpmtd:thread0.obj
 0002:0001b700       ?_Myres@?$_String_alloc@U?$_String_base_types@DV?$allocator@D@std@@@std@@@std@@QAEAAIXZ 1009f700 f i libcpmtd:thread0.obj
 0002:0001b720       ?_Mysize@?$_String_alloc@U?$_String_base_types@DV?$allocator@D@std@@@std@@@std@@QAEAAIXZ 1009f720 f i libcpmtd:thread0.obj
 0002:0001b740       ?_Mysize@?$_String_alloc@U?$_String_base_types@DV?$allocator@D@std@@@std@@@std@@QBEABIXZ 1009f740 f i libcpmtd:thread0.obj
 0002:0001b760       ?_Orphan_all@?$_String_alloc@U?$_String_base_types@DV?$allocator@D@std@@@std@@@std@@QAEXXZ 1009f760 f i libcpmtd:thread0.obj
 0002:0001b780       ?_Throw_C_error@std@@YAXH@Z 1009f780 f   libcpmtd:thread0.obj
 0002:0001b7f0       ?_Throw_Cpp_error@std@@YAXH@Z 1009f7f0 f   libcpmtd:thread0.obj
 0002:0001b840       ?_Tidy@?$basic_string@DU?$char_traits@D@std@@V?$allocator@D@2@@std@@QAEX_NI@Z 1009f840 f i libcpmtd:thread0.obj
 0002:0001b930       ?_Xlen@?$basic_string@DU?$char_traits@D@std@@V?$allocator@D@2@@std@@QBEXXZ 1009f930 f i libcpmtd:thread0.obj
 0002:0001b950       ?_Xran@?$basic_string@DU?$char_traits@D@std@@V?$allocator@D@2@@std@@QBEXXZ 1009f950 f i libcpmtd:thread0.obj
 0002:0001b970       ?allocate@?$_Wrap_alloc@V?$allocator@D@std@@@std@@QAEPADI@Z 1009f970 f i libcpmtd:thread0.obj
 0002:0001b990       ?allocate@?$allocator@D@std@@QAEPADI@Z 1009f990 f i libcpmtd:thread0.obj
 0002:0001b9c0       ?append@?$basic_string@DU?$char_traits@D@std@@V?$allocator@D@2@@std@@QAEAAV12@ABV12@@Z 1009f9c0 f i libcpmtd:thread0.obj
 0002:0001b9f0       ?append@?$basic_string@DU?$char_traits@D@std@@V?$allocator@D@2@@std@@QAEAAV12@ABV12@II@Z 1009f9f0 f i libcpmtd:thread0.obj
 0002:0001bae0       ?append@?$basic_string@DU?$char_traits@D@std@@V?$allocator@D@2@@std@@QAEAAV12@PBD@Z 1009fae0 f i libcpmtd:thread0.obj
 0002:0001bb30       ?append@?$basic_string@DU?$char_traits@D@std@@V?$allocator@D@2@@std@@QAEAAV12@PBDI@Z 1009fb30 f i libcpmtd:thread0.obj
 0002:0001bc60       ?assign@?$basic_string@DU?$char_traits@D@std@@V?$allocator@D@2@@std@@QAEAAV12@ABV12@II@Z 1009fc60 f i libcpmtd:thread0.obj
 0002:0001bd20       ?assign@?$basic_string@DU?$char_traits@D@std@@V?$allocator@D@2@@std@@QAEAAV12@PBD@Z 1009fd20 f i libcpmtd:thread0.obj
 0002:0001bd70       ?assign@?$basic_string@DU?$char_traits@D@std@@V?$allocator@D@2@@std@@QAEAAV12@PBDI@Z 1009fd70 f i libcpmtd:thread0.obj
 0002:0001be50       ?assign@?$char_traits@D@std@@SAXAADABD@Z 1009fe50 f i libcpmtd:thread0.obj
 0002:0001be70       ?c_str@?$basic_string@DU?$char_traits@D@std@@V?$allocator@D@2@@std@@QBEPBDXZ 1009fe70 f i libcpmtd:thread0.obj
 0002:0001bec0       ?category@error_code@std@@QBEABVerror_category@2@XZ 1009fec0 f i libcpmtd:thread0.obj
 0002:0001bee0       ?category@error_condition@std@@QBEABVerror_category@2@XZ 1009fee0 f i libcpmtd:thread0.obj
 0002:0001bf00       ?copy@?$char_traits@D@std@@SAPADPADPBDI@Z 1009ff00 f i libcpmtd:thread0.obj
 0002:0001bf40       ?deallocate@?$_Wrap_alloc@V?$allocator@D@std@@@std@@QAEXPADI@Z 1009ff40 f i libcpmtd:thread0.obj
 0002:0001bf70       ?deallocate@?$allocator@D@std@@QAEXPADI@Z 1009ff70 f i libcpmtd:thread0.obj
 0002:0001bfa0       ?default_error_condition@error_category@std@@UBE?AVerror_condition@2@H@Z 1009ffa0 f i libcpmtd:thread0.obj
 0002:0001bfd0       ?empty@?$basic_string@DU?$char_traits@D@std@@V?$allocator@D@2@@std@@QBE_NXZ 1009ffd0 f i libcpmtd:thread0.obj
 0002:0001c010       ?equivalent@error_category@std@@UBE_NABVerror_code@2@H@Z 100a0010 f i libcpmtd:thread0.obj
 0002:0001c070       ?equivalent@error_category@std@@UBE_NHABVerror_condition@2@@Z 100a0070 f i libcpmtd:thread0.obj
 0002:0001c0c0       ?erase@?$basic_string@DU?$char_traits@D@std@@V?$allocator@D@2@@std@@QAEAAV12@I@Z 100a00c0 f i libcpmtd:thread0.obj
 0002:0001c100       ?erase@?$basic_string@DU?$char_traits@D@std@@V?$allocator@D@2@@std@@QAEAAV12@II@Z 100a0100 f i libcpmtd:thread0.obj
 0002:0001c1b0       ?generic_category@std@@YAABVerror_category@1@XZ 100a01b0 f i libcpmtd:thread0.obj
 0002:0001c200       ?length@?$char_traits@D@std@@SAIPBD@Z 100a0200 f i libcpmtd:thread0.obj
 0002:0001c240       ?max_size@?$_Wrap_alloc@V?$allocator@D@std@@@std@@QBEIU_Nil@2@@Z 100a0240 f i libcpmtd:thread0.obj
 0002:0001c260       ?max_size@?$allocator@D@std@@QBEIXZ 100a0260 f i libcpmtd:thread0.obj
 0002:0001c280       ?max_size@?$allocator_traits@V?$allocator@D@std@@@std@@SAIABV?$allocator@D@2@@Z 100a0280 f i libcpmtd:thread0.obj
 0002:0001c290       ?max_size@?$basic_string@DU?$char_traits@D@std@@V?$allocator@D@2@@std@@QBEIXZ 100a0290 f i libcpmtd:thread0.obj
 0002:0001c2e0       ?message@_Generic_error_category@std@@UBE?AV?$basic_string@DU?$char_traits@D@std@@V?$allocator@D@2@@2@H@Z 100a02e0 f i libcpmtd:thread0.obj
 0002:0001c330       ?message@error_code@std@@QBE?AV?$basic_string@DU?$char_traits@D@std@@V?$allocator@D@2@@2@XZ 100a0330 f i libcpmtd:thread0.obj
 0002:0001c3a0       ?move@?$char_traits@D@std@@SAPADPADPBDI@Z 100a03a0 f i libcpmtd:thread0.obj
 0002:0001c3e0       ?name@_Generic_error_category@std@@UBEPBDXZ 100a03e0 f i libcpmtd:thread0.obj
 0002:0001c400       ?select_on_container_copy_construction@?$_Wrap_alloc@V?$allocator@D@std@@@std@@QBE?AU12@U_Nil@2@@Z 100a0400 f i libcpmtd:thread0.obj
 0002:0001c440       ?select_on_container_copy_construction@?$allocator_traits@V?$allocator@D@std@@@std@@SA?AV?$allocator@D@2@ABV32@@Z 100a0440 f i libcpmtd:thread0.obj
 0002:0001c460       ?value@error_code@std@@QBEHXZ 100a0460 f i libcpmtd:thread0.obj
 0002:0001c480       ?value@error_condition@std@@QBEHXZ 100a0480 f i libcpmtd:thread0.obj
 0002:0001c4a0       __Mtxdst                   100a04a0 f   libcpmtd:xmtx.obj
 0002:0001c4c0       __Mtxinit                  100a04c0 f   libcpmtd:xmtx.obj
 0002:0001c4e0       __Mtxlock                  100a04e0 f   libcpmtd:xmtx.obj
 0002:0001c500       __Mtxunlock                100a0500 f   libcpmtd:xmtx.obj
 0002:0001c520       __Query_perf_counter       100a0520 f   libcpmtd:xtime.obj
 0002:0001c540       __Query_perf_frequency     100a0540 f   libcpmtd:xtime.obj
 0002:0001c560       __Xtime_diff_to_millis     100a0560 f   libcpmtd:xtime.obj
 0002:0001c5b0       __Xtime_diff_to_millis2    100a05b0 f   libcpmtd:xtime.obj
 0002:0001c650       __Xtime_get_ticks          100a0650 f   libcpmtd:xtime.obj
 0002:0001c840       _xtime_get                 100a0840 f   libcpmtd:xtime.obj
 0002:0001d010       ___crtAcquireSRWLockExclusive 100a1010 f   libcpmtd:winapisupp.obj
 0002:0001d060       ___crtCloseThreadpoolTimer 100a1060 f   libcpmtd:winapisupp.obj
 0002:0001d0b0       ___crtCloseThreadpoolWait  100a10b0 f   libcpmtd:winapisupp.obj
 0002:0001d100       ___crtCloseThreadpoolWork  100a1100 f   libcpmtd:winapisupp.obj
 0002:0001d150       ___crtCreateEventExW       100a1150 f   libcpmtd:winapisupp.obj
 0002:0001d1d0       ___crtCreateSemaphoreExW   100a11d0 f   libcpmtd:winapisupp.obj
 0002:0001d280       ___crtCreateSymbolicLinkW  100a1280 f   libcpmtd:winapisupp.obj
 0002:0001d2e0       ___crtCreateThreadpoolTimer 100a12e0 f   libcpmtd:winapisupp.obj
 0002:0001d340       ___crtCreateThreadpoolWait 100a1340 f   libcpmtd:winapisupp.obj
 0002:0001d3a0       ___crtCreateThreadpoolWork 100a13a0 f   libcpmtd:winapisupp.obj
 0002:0001d3f0       ___crtFlsAlloc             100a13f0 f   libcpmtd:winapisupp.obj
 0002:0001d440       ___crtFlsFree              100a1440 f   libcpmtd:winapisupp.obj
 0002:0001d4a0       ___crtFlsGetValue          100a14a0 f   libcpmtd:winapisupp.obj
 0002:0001d500       ___crtFlsSetValue          100a1500 f   libcpmtd:winapisupp.obj
 0002:0001d560       ___crtFlushProcessWriteBuffers 100a1560 f   libcpmtd:winapisupp.obj
 0002:0001d5b0       ___crtFreeLibraryWhenCallbackReturns 100a15b0 f   libcpmtd:winapisupp.obj
 0002:0001d600       ___crtGetCurrentProcessorNumber 100a1600 f   libcpmtd:winapisupp.obj
 0002:0001d650       ___crtGetFileInformationByHandleEx 100a1650 f   libcpmtd:winapisupp.obj
 0002:0001d6c0       ___crtGetSystemTimePreciseAsFileTime 100a16c0 f   libcpmtd:winapisupp.obj
 0002:0001d720       ___crtGetTickCount64       100a1720 f   libcpmtd:winapisupp.obj
 0002:0001d770       ___crtInitOnceExecuteOnce  100a1770 f   libcpmtd:winapisupp.obj
 0002:0001d8d0       ___crtInitializeConditionVariable 100a18d0 f   libcpmtd:winapisupp.obj
 0002:0001d920       ___crtInitializeCriticalSectionEx 100a1920 f   libcpmtd:winapisupp.obj
 0002:0001d990       ___crtInitializeSRWLock    100a1990 f   libcpmtd:winapisupp.obj
 0002:0001d9e0       ___crtIsPackagedApp        100a19e0 f   libcpmtd:winapisupp.obj
 0002:0001da30       ___crtReleaseSRWLockExclusive 100a1a30 f   libcpmtd:winapisupp.obj
 0002:0001da80       ___crtSetFileInformationByHandle 100a1a80 f   libcpmtd:winapisupp.obj
 0002:0001daf0       ___crtSetThreadpoolTimer   100a1af0 f   libcpmtd:winapisupp.obj
 0002:0001db50       ___crtSetThreadpoolWait    100a1b50 f   libcpmtd:winapisupp.obj
 0002:0001dba0       ___crtSleepConditionVariableCS 100a1ba0 f   libcpmtd:winapisupp.obj
 0002:0001dbf0       ___crtSleepConditionVariableSRW 100a1bf0 f   libcpmtd:winapisupp.obj
 0002:0001dc50       ___crtSubmitThreadpoolWork 100a1c50 f   libcpmtd:winapisupp.obj
 0002:0001dca0       ___crtTryAcquireSRWLockExclusive 100a1ca0 f   libcpmtd:winapisupp.obj
 0002:0001dcf0       ___crtWaitForThreadpoolTimerCallbacks 100a1cf0 f   libcpmtd:winapisupp.obj
 0002:0001dd40       ___crtWakeAllConditionVariable 100a1d40 f   libcpmtd:winapisupp.obj
 0002:0001dd90       ___crtWakeConditionVariable 100a1d90 f   libcpmtd:winapisupp.obj
 0002:0001dde0       ___crt_IsPackagedAppHelper 100a1de0 f   libcpmtd:winapisupp.obj
 0002:0001de50       ??$?0$$V@?$_Compressed_pair@U?$_Wrap_alloc@V?$allocator@_W@std@@@std@@V?$_String_val@U?$_Simple_types@_W@std@@@2@$00@std@@QAE@U_Zero_then_variadic_args_t@1@@Z 100a1e50 f i libcpmtd:syserror.obj
 0002:0001de80       ??$?0AAU?$_Wrap_alloc@V?$allocator@_W@std@@@std@@@?$_Wrap_alloc@V?$allocator@U_Container_proxy@std@@@std@@@std@@QAE@AAU?$_Wrap_alloc@V?$allocator@_W@std@@@1@@Z 100a1e80 f i libcpmtd:syserror.obj
 0002:0001deb0       ??$?0_W@?$allocator@U_Container_proxy@std@@@std@@QAE@ABV?$allocator@_W@1@@Z 100a1eb0 f i libcpmtd:syserror.obj
 0002:0001ded0       ??$_Unfancy@_W@std@@YAPA_WPA_W@Z 100a1ed0 f i libcpmtd:syserror.obj
 0002:0001dee0       ??$addressof@PA_W@std@@YAPAPA_WAAPA_W@Z 100a1ee0 f i libcpmtd:syserror.obj
 0002:0001def0       ??$construct@PA_WAAPA_W@?$_Wrap_alloc@V?$allocator@_W@std@@@std@@QAEXPAPA_WAAPA_W@Z 100a1ef0 f i libcpmtd:syserror.obj
 0002:0001df30       ??$construct@PA_WAAPA_W@?$allocator@_W@std@@QAEXPAPA_WAAPA_W@Z 100a1f30 f i libcpmtd:syserror.obj
 0002:0001df90       ??$construct@PA_WAAPA_W@?$allocator_traits@V?$allocator@_W@std@@@std@@SAXAAV?$allocator@_W@1@PAPA_WAAPA_W@Z 100a1f90 f i libcpmtd:syserror.obj
 0002:0001dfc0       ??$destroy@PA_W@?$_Wrap_alloc@V?$allocator@_W@std@@@std@@QAEXPAPA_W@Z 100a1fc0 f i libcpmtd:syserror.obj
 0002:0001dff0       ??$destroy@PA_W@?$allocator@_W@std@@QAEXPAPA_W@Z 100a1ff0 f i libcpmtd:syserror.obj
 0002:0001e000       ??$destroy@PA_W@?$allocator_traits@V?$allocator@_W@std@@@std@@SAXAAV?$allocator@_W@1@PAPA_W@Z 100a2000 f i libcpmtd:syserror.obj
 0002:0001e020       ??$end@$$CBU_Sys_errtab_t@std@@$0EO@@std@@YAPBU_Sys_errtab_t@0@AAY0EO@$$CBU10@@Z 100a2020 f i libcpmtd:syserror.obj
 0002:0001e030       ??$end@$$CBU_Win_errtab_t@std@@$0EK@@std@@YAPBU_Win_errtab_t@0@AAY0EK@$$CBU10@@Z 100a2030 f i libcpmtd:syserror.obj
 0002:0001e040       ??$forward@AAPA_W@std@@YAAAPA_WAAPA_W@Z 100a2040 f i libcpmtd:syserror.obj
 0002:0001e050       ??$forward@AAU?$_Wrap_alloc@V?$allocator@_W@std@@@std@@@std@@YAAAU?$_Wrap_alloc@V?$allocator@_W@std@@@0@AAU10@@Z 100a2050 f i libcpmtd:syserror.obj
 0002:0001e060       ??0?$_String_alloc@U?$_String_base_types@_WV?$allocator@_W@std@@@std@@@std@@QAE@XZ 100a2060 f i libcpmtd:syserror.obj
 0002:0001e0e0       ??0?$_String_val@U?$_Simple_types@_W@std@@@std@@QAE@XZ 100a20e0 f i libcpmtd:syserror.obj
 0002:0001e170       ??0?$_Wrap_alloc@V?$allocator@_W@std@@@std@@QAE@XZ 100a2170 f i libcpmtd:syserror.obj
 0002:0001e190       ??0?$allocator@_W@std@@QAE@XZ 100a2190 f i libcpmtd:syserror.obj
 0002:0001e1b0       ??0?$basic_string@_WU?$char_traits@_W@std@@V?$allocator@_W@2@@std@@QAE@I_W@Z 100a21b0 f i libcpmtd:syserror.obj
 0002:0001e240       ??0_Bxty@?$_String_val@U?$_Simple_types@_W@std@@@std@@QAE@XZ 100a2240 f i libcpmtd:syserror.obj
 0002:0001e260       ??1?$_Compressed_pair@U?$_Wrap_alloc@V?$allocator@_W@std@@@std@@V?$_String_val@U?$_Simple_types@_W@std@@@2@$00@std@@QAE@XZ 100a2260 f i libcpmtd:syserror.obj
 0002:0001e280       ??1?$_String_alloc@U?$_String_base_types@_WV?$allocator@_W@std@@@std@@@std@@QAE@XZ 100a2280 f i libcpmtd:syserror.obj
 0002:0001e2e0       ??1?$_String_val@U?$_Simple_types@_W@std@@@std@@QAE@XZ 100a22e0 f i libcpmtd:syserror.obj
 0002:0001e310       ??1?$basic_string@_WU?$char_traits@_W@std@@V?$allocator@_W@2@@std@@QAE@XZ 100a2310 f i libcpmtd:syserror.obj
 0002:0001e370       ??1_Bxty@?$_String_val@U?$_Simple_types@_W@std@@@std@@QAE@XZ 100a2370 f i libcpmtd:syserror.obj
 0002:0001e380       ??A?$basic_string@_WU?$char_traits@_W@std@@V?$allocator@_W@2@@std@@QAEAA_WI@Z 100a2380 f i libcpmtd:syserror.obj
 0002:0001e3e0       ?_Alloc_proxy@?$_String_alloc@U?$_String_base_types@_WV?$allocator@_W@std@@@std@@@std@@QAEXXZ 100a23e0 f i libcpmtd:syserror.obj
 0002:0001e470       ?_Bx@?$_String_alloc@U?$_String_base_types@_WV?$allocator@_W@std@@@std@@@std@@QAEAAT_Bxty@?$_String_val@U?$_Simple_types@_W@std@@@2@XZ 100a2470 f i libcpmtd:syserror.obj
 0002:0001e490       ?_Chassign@?$basic_string@_WU?$char_traits@_W@std@@V?$allocator@_W@2@@std@@QAEXII_W@Z 100a2490 f i libcpmtd:syserror.obj
 0002:0001e500       ?_Copy@?$basic_string@_WU?$char_traits@_W@std@@V?$allocator@_W@2@@std@@QAEXII@Z 100a2500 f i libcpmtd:syserror.obj
 0002:0001e750       ?_Eos@?$basic_string@_WU?$char_traits@_W@std@@V?$allocator@_W@2@@std@@QAEXI@Z 100a2750 f i libcpmtd:syserror.obj
 0002:0001e7b0       ?_Free_proxy@?$_String_alloc@U?$_String_base_types@_WV?$allocator@_W@std@@@std@@@std@@QAEXXZ 100a27b0 f i libcpmtd:syserror.obj
 0002:0001e830       ?_Get_data@?$_String_alloc@U?$_String_base_types@_WV?$allocator@_W@std@@@std@@@std@@QAEAAV?$_String_val@U?$_Simple_types@_W@std@@@2@XZ 100a2830 f i libcpmtd:syserror.obj
 0002:0001e850       ?_Get_first@?$_Compressed_pair@U?$_Wrap_alloc@V?$allocator@_W@std@@@std@@V?$_String_val@U?$_Simple_types@_W@std@@@2@$00@std@@QAEAAU?$_Wrap_alloc@V?$allocator@_W@std@@@2@XZ 100a2850 f i libcpmtd:syserror.obj
 0002:0001e870       ?_Get_first@?$_Compressed_pair@U?$_Wrap_alloc@V?$allocator@_W@std@@@std@@V?$_String_val@U?$_Simple_types@_W@std@@@2@$00@std@@QBEABU?$_Wrap_alloc@V?$allocator@_W@std@@@2@XZ 100a2870 f i libcpmtd:syserror.obj
 0002:0001e890       ?_Get_second@?$_Compressed_pair@U?$_Wrap_alloc@V?$allocator@_W@std@@@std@@V?$_String_val@U?$_Simple_types@_W@std@@@2@$00@std@@QAEAAV?$_String_val@U?$_Simple_types@_W@std@@@2@XZ 100a2890 f i libcpmtd:syserror.obj
 0002:0001e8b0       ?_Getal@?$_String_alloc@U?$_String_base_types@_WV?$allocator@_W@std@@@std@@@std@@QAEAAU?$_Wrap_alloc@V?$allocator@_W@std@@@2@XZ 100a28b0 f i libcpmtd:syserror.obj
 0002:0001e8d0       ?_Getal@?$_String_alloc@U?$_String_base_types@_WV?$allocator@_W@std@@@std@@@std@@QBEABU?$_Wrap_alloc@V?$allocator@_W@std@@@2@XZ 100a28d0 f i libcpmtd:syserror.obj
 0002:0001e8f0       ?_Grow@?$basic_string@_WU?$char_traits@_W@std@@V?$allocator@_W@2@@std@@QAE_NI_N@Z 100a28f0 f i libcpmtd:syserror.obj
 0002:0001e9e0       ?_Myproxy@?$_String_alloc@U?$_String_base_types@_WV?$allocator@_W@std@@@std@@@std@@QAEAAPAU_Container_proxy@2@XZ 100a29e0 f i libcpmtd:syserror.obj
 0002:0001ea00       ?_Myptr@?$_String_alloc@U?$_String_base_types@_WV?$allocator@_W@std@@@std@@@std@@QAEPA_WXZ 100a2a00 f i libcpmtd:syserror.obj
 0002:0001ea20       ?_Myptr@?$_String_val@U?$_Simple_types@_W@std@@@std@@QAEPA_WXZ 100a2a20 f i libcpmtd:syserror.obj
 0002:0001ea70       ?_Myres@?$_String_alloc@U?$_String_base_types@_WV?$allocator@_W@std@@@std@@@std@@QAEAAIXZ 100a2a70 f i libcpmtd:syserror.obj
 0002:0001ea90       ?_Mysize@?$_String_alloc@U?$_String_base_types@_WV?$allocator@_W@std@@@std@@@std@@QAEAAIXZ 100a2a90 f i libcpmtd:syserror.obj
 0002:0001eab0       ?_Orphan_all@?$_String_alloc@U?$_String_base_types@_WV?$allocator@_W@std@@@std@@@std@@QAEXXZ 100a2ab0 f i libcpmtd:syserror.obj
 0002:0001ead0       ?_Syserror_map@std@@YAPBDH@Z 100a2ad0 f   libcpmtd:syserror.obj
 0002:0001eb40       ?_Tidy@?$basic_string@_WU?$char_traits@_W@std@@V?$allocator@_W@2@@std@@QAEX_NI@Z 100a2b40 f i libcpmtd:syserror.obj
 0002:0001ec30       ?_Winerror_map@std@@YAHH@Z 100a2c30 f   libcpmtd:syserror.obj
 0002:0001ec90       ?_Winerror_message@std@@YAKKPADK@Z 100a2c90 f   libcpmtd:syserror.obj
 0002:0001edd0       ?_Xlen@?$basic_string@_WU?$char_traits@_W@std@@V?$allocator@_W@2@@std@@QBEXXZ 100a2dd0 f i libcpmtd:syserror.obj
 0002:0001edf0       ?allocate@?$_Wrap_alloc@V?$allocator@_W@std@@@std@@QAEPA_WI@Z 100a2df0 f i libcpmtd:syserror.obj
 0002:0001ee10       ?allocate@?$allocator@_W@std@@QAEPA_WI@Z 100a2e10 f i libcpmtd:syserror.obj
 0002:0001ee40       ?assign@?$basic_string@_WU?$char_traits@_W@std@@V?$allocator@_W@2@@std@@QAEAAV12@I_W@Z 100a2e40 f i libcpmtd:syserror.obj
 0002:0001eeb0       ?assign@?$char_traits@_W@std@@SAPA_WPA_WI_W@Z 100a2eb0 f i libcpmtd:syserror.obj
 0002:0001eed0       ?assign@?$char_traits@_W@std@@SAXAA_WAB_W@Z 100a2ed0 f i libcpmtd:syserror.obj
 0002:0001eef0       ?copy@?$char_traits@_W@std@@SAPA_WPA_WPB_WI@Z 100a2ef0 f i libcpmtd:syserror.obj
 0002:0001ef30       ?deallocate@?$_Wrap_alloc@V?$allocator@_W@std@@@std@@QAEXPA_WI@Z 100a2f30 f i libcpmtd:syserror.obj
 0002:0001ef60       ?deallocate@?$allocator@_W@std@@QAEXPA_WI@Z 100a2f60 f i libcpmtd:syserror.obj
 0002:0001ef90       ?max_size@?$_Wrap_alloc@V?$allocator@_W@std@@@std@@QBEIU_Nil@2@@Z 100a2f90 f i libcpmtd:syserror.obj
 0002:0001efb0       ?max_size@?$allocator@_W@std@@QBEIXZ 100a2fb0 f i libcpmtd:syserror.obj
 0002:0001efd0       ?max_size@?$allocator_traits@V?$allocator@_W@std@@@std@@SAIABV?$allocator@_W@2@@Z 100a2fd0 f i libcpmtd:syserror.obj
 0002:0001efe0       ?max_size@?$basic_string@_WU?$char_traits@_W@std@@V?$allocator@_W@2@@std@@QBEIXZ 100a2fe0 f i libcpmtd:syserror.obj
 0002:0001f030       _wmemcpy                   100a3030 f i libcpmtd:syserror.obj
 0002:0001f060       _wmemset                   100a3060 f i libcpmtd:syserror.obj
 0002:0001f0b0       ??2@YAPAXI@Z               100a30b0 f   LIBCMTD:new_scalar.obj
 0002:0001f110       ??3@YAXPAX@Z               100a3110 f   LIBCMTD:delete_scalar.obj
 0002:0001f130       ??3@YAXPAXI@Z              100a3130 f   LIBCMTD:delete_scalar_size.obj
 0002:0001f150       ??$__crt_fast_decode_pointer@PAP6AXXZ@@YAPAP6AXXZQAP6AXXZ@Z 100a3150 f i LIBCMTD:utility.obj
 0002:0001f180       ??$__crt_fast_encode_pointer@PAP6AXXZ@@YAPAP6AXXZQAP6AXXZ@Z 100a3180 f i LIBCMTD:utility.obj
 0002:0001f1c0       ?__crt_rotate_pointer_value@@YAIIH@Z 100a31c0 f i LIBCMTD:utility.obj
 0002:0001f1d0       ?configure_argv@__scrt_narrow_argv_policy@@SAHXZ 100a31d0 f i LIBCMTD:utility.obj
 0002:0001f330       _NtCurrentTeb              100a3330 f i LIBCMTD:utility.obj
 0002:0001f340       ___scrt_acquire_startup_lock 100a3340 f   LIBCMTD:utility.obj
 0002:0001f3a0       ___scrt_dllmain_after_initialize_c 100a33a0 f   LIBCMTD:utility.obj
 0002:0001f3e0       ___scrt_dllmain_before_initialize_c 100a33e0 f   LIBCMTD:utility.obj
 0002:0001f410       ___scrt_dllmain_crt_thread_attach 100a3410 f   LIBCMTD:utility.obj
 0002:0001f450       ___scrt_dllmain_crt_thread_detach 100a3450 f   LIBCMTD:utility.obj
 0002:0001f470       ___scrt_dllmain_exception_filter 100a3470 f   LIBCMTD:utility.obj
 0002:0001f4d0       ___scrt_dllmain_uninitialize_c 100a34d0 f   LIBCMTD:utility.obj
 0002:0001f510       ___scrt_dllmain_uninitialize_critical 100a3510 f   LIBCMTD:utility.obj
 0002:0001f530       ___scrt_initialize_crt     100a3530 f   LIBCMTD:utility.obj
 0002:0001f590       ___scrt_initialize_onexit_tables 100a3590 f   LIBCMTD:utility.obj
 0002:0001f690       ___scrt_is_nonwritable_in_current_image 100a3690 f   LIBCMTD:utility.obj
 0002:0001f810       ___scrt_release_startup_lock 100a3810 f   LIBCMTD:utility.obj
 0002:0001f840       ___scrt_uninitialize_crt   100a3840 f   LIBCMTD:utility.obj
 0002:0001f890       __onexit                   100a3890 f   LIBCMTD:utility.obj
 0002:0001f920       _at_quick_exit             100a3920 f   LIBCMTD:utility.obj
 0002:0001f980       _atexit                    100a3980 f   LIBCMTD:utility.obj
 0002:0001f9c0       @_RTC_AllocaHelper@12      100a39c0 f   LIBCMTD:_stack_.obj
 0002:0001fa00       @_RTC_CheckStackVars2@12   100a3a00 f   LIBCMTD:_stack_.obj
 0002:0001fb10       @_RTC_CheckStackVars@8     100a3b10 f   LIBCMTD:_stack_.obj
 0002:0001fb80       __RTC_CheckEsp             100a3b80 f   LIBCMTD:_stack_.obj
 0002:0001fbc0       @__security_check_cookie@4 100a3bc0 f   LIBCMTD:_secchk_.obj
 0002:0001fbe0       __CRT_RTC_INIT             100a3be0 f   LIBCMTD:_init_.obj
 0002:0001fbf0       __CRT_RTC_INITW            100a3bf0 f   LIBCMTD:_init_.obj
 0002:0001fc00       __RTC_InitBase             100a3c00 f   LIBCMTD:_init_.obj
 0002:0001fc40       __RTC_Shutdown             100a3c40 f   LIBCMTD:_init_.obj
 0002:0001fc60       ??1type_info@@UAE@XZ       100a3c60 f   LIBCMTD:std_type_info_static.obj
 0002:0001fc80       ??_Gtype_info@@UAEPAXI@Z   100a3c80 f i LIBCMTD:std_type_info_static.obj
 0002:0001fc80       ??_Etype_info@@UAEPAXI@Z   100a3c80 f i LIBCMTD:std_type_info_static.obj
 0002:0001fcc0       ___raise_securityfailure   100a3cc0 f   LIBCMTD:gs_report.obj
 0002:0001fd00       ___report_gsfailure        100a3d00 f   LIBCMTD:gs_report.obj
 0002:0001fe50       ___report_rangecheckfailure 100a3e50 f   LIBCMTD:gs_report.obj
 0002:0001fe60       ___report_securityfailure  100a3e60 f   LIBCMTD:gs_report.obj
 0002:0001ff70       ___report_securityfailureEx 100a3f70 f   LIBCMTD:gs_report.obj
 0002:000200e0       __alloca_probe             100a40e0 f   LIBCMTD:chkstk.obj
 0002:000200e0       __chkstk                   100a40e0 f   LIBCMTD:chkstk.obj
 0002:000206e0       __CRT_INIT@12              100a46e0 f   LIBCMTD:dll_dllmain.obj
 0002:00020700       __DllMainCRTStartup@12     100a4700 f   LIBCMTD:dll_dllmain.obj
 0002:00020730       @_guard_check_icall@4      100a4730 f i LIBCMTD:checkcfg.obj
 0002:00020750       ??_M@YGXPAXIHP6EX0@Z@Z     100a4750 f   LIBCMTD:ehvecdtr.obj
 0002:00020780       ??_M@YGXPAXIIP6EX0@Z@Z     100a4780 f   LIBCMTD:ehvecdtr.obj
 0002:000208b0       ?__ArrayUnwind@@YGXPAXIIP6EX0@Z@Z 100a48b0 f   LIBCMTD:ehvecdtr.obj
 0002:00020980       ??_V@YAXPAXI@Z             100a4980 f   LIBCMTD:delete_array_size.obj
 0002:000209a0       __allmul                   100a49a0 f   LIBCMTD:llmul.obj
 0002:000209f0       __allshl                   100a49f0 f   LIBCMTD:llshl.obj
 0002:00020a20       __aulldiv                  100a4a20 f   LIBCMTD:ulldiv.obj
 0002:00020ab0       __aullrem                  100a4ab0 f   LIBCMTD:ullrem.obj
 0002:00020b50       ??0bad_alloc@std@@AAE@QBD@Z 100a4b50 f i LIBCMTD:throw_bad_alloc.obj
 0002:00020b80       ??0bad_array_new_length@std@@QAE@ABV01@@Z 100a4b80 f i LIBCMTD:throw_bad_alloc.obj
 0002:00020bb0       ??0bad_array_new_length@std@@QAE@XZ 100a4bb0 f i LIBCMTD:throw_bad_alloc.obj
 0002:00020be0       ??1bad_array_new_length@std@@UAE@XZ 100a4be0 f i LIBCMTD:throw_bad_alloc.obj
 0002:00020c00       ??_Ebad_array_new_length@std@@UAEPAXI@Z 100a4c00 f i LIBCMTD:throw_bad_alloc.obj
 0002:00020c00       ??_Gbad_array_new_length@std@@UAEPAXI@Z 100a4c00 f i LIBCMTD:throw_bad_alloc.obj
 0002:00020c40       ?__scrt_throw_std_bad_alloc@@YAXXZ 100a4c40 f   LIBCMTD:throw_bad_alloc.obj
 0002:00020c70       ?__scrt_throw_std_bad_array_new_length@@YAXXZ 100a4c70 f   LIBCMTD:throw_bad_alloc.obj
 0002:00020ca0       ___isa_available_init      100a4ca0 f   LIBCMTD:_cpu_disp_.obj
 0002:00021030       __get_startup_argv_mode    100a5030 f   LIBCMTD:argv_mode.obj
 0002:00021040       ___scrt_is_ucrt_dll_in_use 100a5040 f   LIBCMTD:ucrt_detection.obj
 0002:00021070       ___scrt_fastfail           100a5070 f   LIBCMTD:utility_desktop.obj
 0002:00021200       ___scrt_get_show_window_mode 100a5200 f   LIBCMTD:utility_desktop.obj
 0002:00021250       ___scrt_initialize_winrt   100a5250 f   LIBCMTD:utility_desktop.obj
 0002:00021260       ___scrt_is_managed_app     100a5260 f   LIBCMTD:utility_desktop.obj
 0002:00021310       ___scrt_set_unhandled_exception_filter 100a5310 f   LIBCMTD:utility_desktop.obj
 0002:00021330       ___scrt_unhandled_exception_filter@4 100a5330 f   LIBCMTD:utility_desktop.obj
 0002:000213b0       __crt_debugger_hook        100a53b0 f   LIBCMTD:utility_desktop.obj
 0002:00021570       ?_RTC_AllocaFailure@@YAXPAXPAU_RTC_ALLOCA_NODE@@H@Z 100a5570 f   LIBCMTD:_error_.obj
 0002:000216e0       ?_RTC_Failure@@YAXPAXH@Z   100a56e0 f   LIBCMTD:_error_.obj
 0002:00021750       ?_RTC_StackFailure@@YAXPAXPBD@Z 100a5750 f   LIBCMTD:_error_.obj
 0002:00021bd0       __RTC_UninitUse            100a5bd0 f   LIBCMTD:_error_.obj
 0002:00021d00       ?_RTC_GetErrorFunc@@YAP6AHHPBDH00ZZPBX@Z 100a5d00 f   LIBCMTD:_userapi_.obj
 0002:00021d10       ?_RTC_GetErrorFuncW@@YAP6AHHPB_WH00ZZPBX@Z 100a5d10 f   LIBCMTD:_userapi_.obj
 0002:00021d20       __RTC_GetErrDesc           100a5d20 f   LIBCMTD:_userapi_.obj
 0002:00021d40       __RTC_NumErrors            100a5d40 f   LIBCMTD:_userapi_.obj
 0002:00021d50       __RTC_SetErrorFunc         100a5d50 f   LIBCMTD:_userapi_.obj
 0002:00021d80       __RTC_SetErrorFuncW        100a5d80 f   LIBCMTD:_userapi_.obj
 0002:00021db0       __RTC_SetErrorType         100a5db0 f   LIBCMTD:_userapi_.obj
 0002:00021de0       ___security_init_cookie    100a5de0 f   LIBCMTD:gs_support.obj
 0002:00021f00       ?__scrt_initialize_type_info@@YAXXZ 100a5f00 f   LIBCMTD:tncleanup.obj
 0002:00021f20       ?__scrt_uninitialize_type_info@@YAXXZ 100a5f20 f   LIBCMTD:tncleanup.obj
 0002:00021f40       ___local_stdio_scanf_options 100a5f40 f i LIBCMTD:default_local_stdio_options.obj
 0002:00021f50       ___scrt_initialize_default_local_stdio_options 100a5f50 f   LIBCMTD:default_local_stdio_options.obj
 0002:00021fa0       ___scrt_get_dyn_tls_init_callback 100a5fa0 f   LIBCMTD:dyn_tls_init.obj
 0002:00021fb0       __RTC_Initialize           100a5fb0 f   LIBCMTD:_initsect_.obj
 0002:00021ff0       __RTC_Terminate            100a5ff0 f   LIBCMTD:_initsect_.obj
 0002:00022030       @_guard_check_icall_nop@4  100a6030 f i LIBCMTD:guard_support.obj
 0002:00022040       __guard_icall_checks_enforced 100a6040 f i LIBCMTD:guard_support.obj
 0002:00022070       ??_V@YAXPAX@Z              100a6070 f   LIBCMTD:delete_array.obj
 0002:00022650       ?_RTC_GetSrcLine@@YAHPAEPA_WKPAH1K@Z 100a6650 f   LIBCMTD:_pdblkup_.obj
 0002:00022a80       ??0?$_SpinWait@$00@details@Concurrency@@QAE@P6AXXZ@Z 100a6a80 f i libconcrtd:rtlocks.obj
 0002:00022ab0       ??0?$_SpinWait@$0A@@details@Concurrency@@QAE@P6AXXZ@Z 100a6ab0 f i libconcrtd:rtlocks.obj
 0002:00022ae0       ??0LockQueueNode@details@Concurrency@@QAE@I@Z 100a6ae0 f i libconcrtd:rtlocks.obj
 0002:00022c00       ??0LockQueueNode@details@Concurrency@@QAE@PAVContext@2@I@Z 100a6c00 f i libconcrtd:rtlocks.obj
 0002:00022c60       ??0_NonReentrantBlockingLock@details@Concurrency@@QAE@XZ 100a6c60 f   libconcrtd:rtlocks.obj
 0002:00022cb0       ??0_NonReentrantPPLLock@details@Concurrency@@QAE@XZ 100a6cb0 f   libconcrtd:rtlocks.obj
 0002:00022cd0       ??0_ReaderWriterLock@details@Concurrency@@QAE@XZ 100a6cd0 f   libconcrtd:rtlocks.obj
 0002:00022d00       ??0_ReentrantBlockingLock@details@Concurrency@@QAE@XZ 100a6d00 f   libconcrtd:rtlocks.obj
 0002:00022d50       ??0_ReentrantLock@details@Concurrency@@QAE@XZ 100a6d50 f   libconcrtd:rtlocks.obj
 0002:00022d80       ??0_ReentrantPPLLock@details@Concurrency@@QAE@XZ 100a6d80 f   libconcrtd:rtlocks.obj
 0002:00022dc0       ??0_Scoped_lock@_NonReentrantPPLLock@details@Concurrency@@QAE@AAV123@@Z 100a6dc0 f   libconcrtd:rtlocks.obj
 0002:00022e80       ??0_Scoped_lock@_ReentrantPPLLock@details@Concurrency@@QAE@AAV123@@Z 100a6e80 f   libconcrtd:rtlocks.obj
 0002:00022f40       ??0critical_section@Concurrency@@QAE@XZ 100a6f40 f   libconcrtd:rtlocks.obj
 0002:00023000       ??0improper_lock@Concurrency@@QAE@ABV01@@Z 100a7000 f i libconcrtd:rtlocks.obj
 0002:00023030       ??0reader_writer_lock@Concurrency@@QAE@XZ 100a7030 f   libconcrtd:rtlocks.obj
 0002:00023110       ??0scoped_lock@critical_section@Concurrency@@QAE@AAV12@@Z 100a7110 f   libconcrtd:rtlocks.obj
 0002:000231e0       ??0scoped_lock@reader_writer_lock@Concurrency@@QAE@AAV12@@Z 100a71e0 f   libconcrtd:rtlocks.obj
 0002:000232b0       ??0scoped_lock_read@reader_writer_lock@Concurrency@@QAE@AAV12@@Z 100a72b0 f   libconcrtd:rtlocks.obj
 0002:000232e0       ??1_NonReentrantBlockingLock@details@Concurrency@@QAE@XZ 100a72e0 f   libconcrtd:rtlocks.obj
 0002:00023310       ??1_ReentrantBlockingLock@details@Concurrency@@QAE@XZ 100a7310 f   libconcrtd:rtlocks.obj
 0002:00023340       ??1_Scoped_lock@_NonReentrantPPLLock@details@Concurrency@@QAE@XZ 100a7340 f   libconcrtd:rtlocks.obj
 0002:00023390       ??1_Scoped_lock@_ReentrantPPLLock@details@Concurrency@@QAE@XZ 100a7390 f   libconcrtd:rtlocks.obj
 0002:000233e0       ??1critical_section@Concurrency@@QAE@XZ 100a73e0 f   libconcrtd:rtlocks.obj
 0002:00023430       ??1improper_lock@Concurrency@@UAE@XZ 100a7430 f i libconcrtd:rtlocks.obj
 0002:00023450       ??1reader_writer_lock@Concurrency@@QAE@XZ 100a7450 f   libconcrtd:rtlocks.obj
 0002:000234a0       ??1scoped_lock@critical_section@Concurrency@@QAE@XZ 100a74a0 f   libconcrtd:rtlocks.obj
 0002:000234f0       ??1scoped_lock@reader_writer_lock@Concurrency@@QAE@XZ 100a74f0 f   libconcrtd:rtlocks.obj
 0002:00023540       ??1scoped_lock_read@reader_writer_lock@Concurrency@@QAE@XZ 100a7540 f   libconcrtd:rtlocks.obj
 0002:00023590       ??_Eimproper_lock@Concurrency@@UAEPAXI@Z 100a7590 f i libconcrtd:rtlocks.obj
 0002:00023590       ??_Gimproper_lock@Concurrency@@UAEPAXI@Z 100a7590 f i libconcrtd:rtlocks.obj
 0002:000235d0       ?Block@LockQueueNode@details@Concurrency@@QAEXI@Z 100a75d0 f i libconcrtd:rtlocks.obj
 0002:00023750       ?Copy@LockQueueNode@details@Concurrency@@QAEXPAV123@@Z 100a7750 f i libconcrtd:rtlocks.obj
 0002:00023820       ?CurrentContext@SchedulerBase@details@Concurrency@@SAPAVContextBase@23@XZ 100a7820 f i libconcrtd:rtlocks.obj
 0002:00023870       ?DerefTimerNode@LockQueueNode@details@Concurrency@@QAEXXZ 100a7870 f i libconcrtd:rtlocks.obj
 0002:000238c0       ?DispatchNodeTimeoutTimer@LockQueueNode@details@Concurrency@@SGXPAU_TP_CALLBACK_INSTANCE@@PAXPAU_TP_TIMER@@@Z 100a78c0 f i libconcrtd:rtlocks.obj
 0002:00023940       ?DispatchNodeTimeoutTimerXP@LockQueueNode@details@Concurrency@@SGXPAXE@Z 100a7940 f i libconcrtd:rtlocks.obj
 0002:000239d0       ?GetCurrent@UMSThreadProxy@details@Concurrency@@SAPAV123@XZ 100a79d0 f i libconcrtd:rtlocks.obj
 0002:000239f0       ?GetDebugBits@details@Concurrency@@YAJXZ 100a79f0 f   libconcrtd:rtlocks.obj
 0002:00023b50       ?IsBlocked@LockQueueNode@details@Concurrency@@AAE_NXZ 100a7b50 f i libconcrtd:rtlocks.obj
 0002:00023b90       ?IsOneShotInitialized@SchedulerBase@details@Concurrency@@SA_NXZ 100a7b90 f i libconcrtd:rtlocks.obj
 0002:00023bc0       ?IsPreviousBlocked@LockQueueNode@details@Concurrency@@AAE_NXZ 100a7bc0 f i libconcrtd:rtlocks.obj
 0002:00023c00       ?IsShutdownValidations@ContextBase@details@Concurrency@@QBE_NXZ 100a7c00 f i libconcrtd:rtlocks.obj
 0002:00023c20       ?IsShutdownValidations@UMSThreadProxy@details@Concurrency@@QBE_NXZ 100a7c20 f i libconcrtd:rtlocks.obj
 0002:00023c40       ?IsTicketValid@LockQueueNode@details@Concurrency@@AAE_NXZ 100a7c40 f i libconcrtd:rtlocks.obj
 0002:00023c80       ?IsTransmogrified@UMSThreadProxy@details@Concurrency@@QBE_NXZ 100a7c80 f i libconcrtd:rtlocks.obj
 0002:00023cc0       ?TryCompensateTimer@LockQueueNode@details@Concurrency@@QAEXXZ 100a7cc0 f i libconcrtd:rtlocks.obj
 0002:00023d00       ?Unblock@LockQueueNode@details@Concurrency@@QAE_NXZ 100a7d00 f i libconcrtd:rtlocks.obj
 0002:00023d70       ?UnblockWithoutContext@LockQueueNode@details@Concurrency@@QAEXXZ 100a7d70 f i libconcrtd:rtlocks.obj
 0002:00023d90       ?UpdateBlockingState@LockQueueNode@details@Concurrency@@QAEXPAV123@@Z 100a7d90 f i libconcrtd:rtlocks.obj
 0002:00023e10       ?UpdateQueuePosition@LockQueueNode@details@Concurrency@@QAEXPAV123@@Z 100a7e10 f i libconcrtd:rtlocks.obj
 0002:00023f30       ?ValidateDebugBits@details@Concurrency@@YAXJ@Z 100a7f30 f   libconcrtd:rtlocks.obj
 0002:00023f70       ?WaitForNextNode@LockQueueNode@details@Concurrency@@QAEPAV123@XZ 100a7f70 f i libconcrtd:rtlocks.obj
 0002:00023fc0       ?_Acquire@_NonReentrantBlockingLock@details@Concurrency@@QAEXXZ 100a7fc0 f   libconcrtd:rtlocks.obj
 0002:00023ff0       ?_Acquire@_NonReentrantPPLLock@details@Concurrency@@QAEXPAX@Z 100a7ff0 f   libconcrtd:rtlocks.obj
 0002:00024020       ?_Acquire@_ReentrantBlockingLock@details@Concurrency@@QAEXXZ 100a8020 f   libconcrtd:rtlocks.obj
 0002:00024050       ?_Acquire@_ReentrantLock@details@Concurrency@@QAEXXZ 100a8050 f   libconcrtd:rtlocks.obj
 0002:00024160       ?_Acquire@_ReentrantPPLLock@details@Concurrency@@QAEXPAX@Z 100a8160 f   libconcrtd:rtlocks.obj
 0002:000241d0       ?_AcquireRead@_ReaderWriterLock@details@Concurrency@@QAEXXZ 100a81d0 f   libconcrtd:rtlocks.obj
 0002:000242a0       ?_AcquireWrite@_ReaderWriterLock@details@Concurrency@@QAEXXZ 100a82a0 f   libconcrtd:rtlocks.obj
 0002:00024300       ?_Acquire_lock@critical_section@Concurrency@@QAE_NPAX_N@Z 100a8300 f   libconcrtd:rtlocks.obj
 0002:00024430       ?_Acquire_lock@reader_writer_lock@Concurrency@@QAEXPAX_N@Z 100a8430 f   libconcrtd:rtlocks.obj
 0002:00024550       ?_DebugAcquire@_NonReentrantLock@details@Concurrency@@AAEXXZ 100a8550 f   libconcrtd:rtlocks.obj
 0002:000245e0       ?_DebugTryAcquire@_NonReentrantLock@details@Concurrency@@AAE_NXZ 100a85e0 f   libconcrtd:rtlocks.obj
 0002:00024670       ?_DoYield@?$_SpinWait@$00@details@Concurrency@@IAEXXZ 100a8670 f i libconcrtd:rtlocks.obj
 0002:000246f0       ?_DoYield@?$_SpinWait@$0A@@details@Concurrency@@IAEXXZ 100a86f0 f i libconcrtd:rtlocks.obj
 0002:00024770       ?_FlushWriteOwners@_ReaderWriterLock@details@Concurrency@@QAEXXZ 100a8770 f   libconcrtd:rtlocks.obj
 0002:000247b0       ?_Flush_current_owner@critical_section@Concurrency@@QAEXXZ 100a87b0 f   libconcrtd:rtlocks.obj
 0002:000247e0       ?_Get_reader_convoy@reader_writer_lock@Concurrency@@AAEPAXXZ 100a87e0 f   libconcrtd:rtlocks.obj
 0002:00024840       ?_Initialize@_SpinCount@details@Concurrency@@SAXXZ 100a8840 f   libconcrtd:rtlocks.obj
 0002:00024880       ?_NumberOfSpins@?$_SpinWait@$00@details@Concurrency@@IAEKXZ 100a8880 f i libconcrtd:rtlocks.obj
 0002:000248a0       ?_NumberOfSpins@?$_SpinWait@$0A@@details@Concurrency@@IAEKXZ 100a88a0 f i libconcrtd:rtlocks.obj
 0002:000248c0       ?_Release@_NonReentrantBlockingLock@details@Concurrency@@QAEXXZ 100a88c0 f   libconcrtd:rtlocks.obj
 0002:000248f0       ?_Release@_NonReentrantPPLLock@details@Concurrency@@QAEXXZ 100a88f0 f   libconcrtd:rtlocks.obj
 0002:00024910       ?_Release@_ReentrantBlockingLock@details@Concurrency@@QAEXXZ 100a8910 f   libconcrtd:rtlocks.obj
 0002:00024940       ?_Release@_ReentrantLock@details@Concurrency@@QAEXXZ 100a8940 f   libconcrtd:rtlocks.obj
 0002:000249c0       ?_Release@_ReentrantPPLLock@details@Concurrency@@QAEXXZ 100a89c0 f   libconcrtd:rtlocks.obj
 0002:00024aa0       ?_ReleaseRead@_ReaderWriterLock@details@Concurrency@@QAEXXZ 100a8aa0 f   libconcrtd:rtlocks.obj
 0002:00024b00       ?_ReleaseWrite@_ReaderWriterLock@details@Concurrency@@QAEXXZ 100a8b00 f   libconcrtd:rtlocks.obj
 0002:00024bc0       ?_Remove_last_writer@reader_writer_lock@Concurrency@@AAEXPAX@Z 100a8bc0 f   libconcrtd:rtlocks.obj
 0002:00024c30       ?_Reset@?$_SpinWait@$00@details@Concurrency@@IAEXXZ 100a8c30 f i libconcrtd:rtlocks.obj
 0002:00024ca0       ?_Reset@?$_SpinWait@$0A@@details@Concurrency@@IAEXXZ 100a8ca0 f i libconcrtd:rtlocks.obj
 0002:00024d10       ?_SetSpinCount@?$_SpinWait@$00@details@Concurrency@@QAEXI@Z 100a8d10 f i libconcrtd:rtlocks.obj
 0002:00024da0       ?_SetSpinCount@?$_SpinWait@$0A@@details@Concurrency@@QAEXI@Z 100a8da0 f i libconcrtd:rtlocks.obj
 0002:00024e30       ?_Set_next_writer@reader_writer_lock@Concurrency@@AAE_NPAX@Z 100a8e30 f   libconcrtd:rtlocks.obj
 0002:00024eb0       ?_ShouldSpinAgain@?$_SpinWait@$00@details@Concurrency@@IAE_NXZ 100a8eb0 f i libconcrtd:rtlocks.obj
 0002:00024f00       ?_ShouldSpinAgain@?$_SpinWait@$0A@@details@Concurrency@@IAE_NXZ 100a8f00 f i libconcrtd:rtlocks.obj
 0002:00024f50       ?_SpinOnce@?$_SpinWait@$00@details@Concurrency@@QAE_NXZ 100a8f50 f i libconcrtd:rtlocks.obj
 0002:000250d0       ?_SpinOnce@?$_SpinWait@$0A@@details@Concurrency@@QAE_NXZ 100a90d0 f i libconcrtd:rtlocks.obj
 0002:00025250       ?_Switch_to_active@critical_section@Concurrency@@AAEXPAX@Z 100a9250 f   libconcrtd:rtlocks.obj
 0002:00025310       ?_Switch_to_active@reader_writer_lock@Concurrency@@AAEXPAX@Z 100a9310 f   libconcrtd:rtlocks.obj
 0002:00025420       ?_TryAcquire@_NonReentrantBlockingLock@details@Concurrency@@QAE_NXZ 100a9420 f   libconcrtd:rtlocks.obj
 0002:00025470       ?_TryAcquire@_ReentrantBlockingLock@details@Concurrency@@QAE_NXZ 100a9470 f   libconcrtd:rtlocks.obj
 0002:000254c0       ?_TryAcquire@_ReentrantLock@details@Concurrency@@QAE_NXZ 100a94c0 f   libconcrtd:rtlocks.obj
 0002:00025590       ?_TryAcquireWrite@_ReaderWriterLock@details@Concurrency@@QAE_NXZ 100a9590 f   libconcrtd:rtlocks.obj
 0002:000255e0       ?_Unlock_reader@reader_writer_lock@Concurrency@@AAEXXZ 100a95e0 f   libconcrtd:rtlocks.obj
 0002:00025670       ?_Unlock_writer@reader_writer_lock@Concurrency@@AAEXXZ 100a9670 f   libconcrtd:rtlocks.obj
 0002:000257e0       ?_Value@_SpinCount@details@Concurrency@@SAIXZ 100a97e0 f   libconcrtd:rtlocks.obj
 0002:000257f0       ?_WaitEquals@_ReaderWriterLock@details@Concurrency@@CAXADJJJ@Z 100a97f0 f   libconcrtd:rtlocks.obj
 0002:00025880       ?lock@critical_section@Concurrency@@QAEXXZ 100a9880 f   libconcrtd:rtlocks.obj
 0002:000258d0       ?lock@reader_writer_lock@Concurrency@@QAEXXZ 100a98d0 f   libconcrtd:rtlocks.obj
 0002:00025920       ?lock_read@reader_writer_lock@Concurrency@@QAEXXZ 100a9920 f   libconcrtd:rtlocks.obj
 0002:00025a70       ?native_handle@critical_section@Concurrency@@QAEAAV12@XZ 100a9a70 f   libconcrtd:rtlocks.obj
 0002:00025a90       ?try_lock@critical_section@Concurrency@@QAE_NXZ 100a9a90 f   libconcrtd:rtlocks.obj
 0002:00025b10       ?try_lock@reader_writer_lock@Concurrency@@QAE_NXZ 100a9b10 f   libconcrtd:rtlocks.obj
 0002:00025bc0       ?try_lock_for@critical_section@Concurrency@@QAE_NI@Z 100a9bc0 f   libconcrtd:rtlocks.obj
 0002:00025cb0       ?try_lock_read@reader_writer_lock@Concurrency@@QAE_NXZ 100a9cb0 f   libconcrtd:rtlocks.obj
 0002:00025d10       ?unlock@critical_section@Concurrency@@QAEXXZ 100a9d10 f   libconcrtd:rtlocks.obj
 0002:00025e80       ?unlock@reader_writer_lock@Concurrency@@QAEXXZ 100a9e80 f   libconcrtd:rtlocks.obj
 0002:00025f00       ??0?$_MallocaArrayHolder@PAVContext@Concurrency@@@details@Concurrency@@QAE@XZ 100a9f00 f i libconcrtd:event.obj
 0002:00025f40       ??0EventWaitNode@details@Concurrency@@QAE@PAVWaitBlock@12@@Z 100a9f40 f i libconcrtd:event.obj
 0002:00025f60       ??0MultiWaitBlock@details@Concurrency@@QAE@I_N0@Z 100a9f60 f i libconcrtd:event.obj
 0002:00026010       ??0MultiWaitBlockHolder@details@Concurrency@@QAE@_NI00@Z 100aa010 f   libconcrtd:event.obj
 0002:00026290       ??0SingleWaitBlock@details@Concurrency@@QAE@XZ 100aa290 f i libconcrtd:event.obj
 0002:000262c0       ??0TimedSingleWaitBlock@details@Concurrency@@QAE@_N@Z 100aa2c0 f i libconcrtd:event.obj
 0002:00026340       ??0WaitAllBlock@details@Concurrency@@QAE@I_N0@Z 100aa340 f i libconcrtd:event.obj
 0002:00026390       ??0WaitAnyBlock@details@Concurrency@@QAE@I_N0@Z 100aa390 f i libconcrtd:event.obj
 0002:000263e0       ??0WaitBlock@details@Concurrency@@QAE@XZ 100aa3e0 f i libconcrtd:event.obj
 0002:00026430       ??0_Condition_variable@details@Concurrency@@QAE@XZ 100aa430 f   libconcrtd:event.obj
 0002:00026460       ??0event@Concurrency@@QAE@XZ 100aa460 f   libconcrtd:event.obj
 0002:000264a0       ??1?$_MallocaArrayHolder@PAVContext@Concurrency@@@details@Concurrency@@UAE@XZ 100aa4a0 f i libconcrtd:event.obj
 0002:00026500       ??1MultiWaitBlockHolder@details@Concurrency@@QAE@XZ 100aa500 f   libconcrtd:event.obj
 0002:00026590       ??1_Condition_variable@details@Concurrency@@QAE@XZ 100aa590 f   libconcrtd:event.obj
 0002:00026600       ??1event@Concurrency@@QAE@XZ 100aa600 f   libconcrtd:event.obj
 0002:000266f0       ??2@YAPAXIV_ConcRTNewMoniker@@PBDH@Z 100aa6f0 f i libconcrtd:event.obj
 0002:00026720       ??3@YAXPAXV_ConcRTNewMoniker@@PBDH@Z 100aa720 f i libconcrtd:event.obj
 0002:00026740       ??_E?$_MallocaArrayHolder@PAVContext@Concurrency@@@details@Concurrency@@UAEPAXI@Z 100aa740 f i libconcrtd:event.obj
 0002:00026740       ??_G?$_MallocaArrayHolder@PAVContext@Concurrency@@@details@Concurrency@@UAEPAXI@Z 100aa740 f i libconcrtd:event.obj
 0002:00026780       ??_U@YAPAXIV_ConcRTNewMoniker@@PBDH@Z 100aa780 f i libconcrtd:event.obj
 0002:000267b0       ?Destroy@EventWaitNode@details@Concurrency@@QAEXXZ 100aa7b0 f i libconcrtd:event.obj
 0002:000267f0       ?Destroy@SingleWaitBlock@details@Concurrency@@UAEXXZ 100aa7f0 f   libconcrtd:event.obj
 0002:00026840       ?Destroy@TimedSingleWaitBlock@details@Concurrency@@UAEXXZ 100aa840 f   libconcrtd:event.obj
 0002:00026890       ?Destroy@WaitAllBlock@details@Concurrency@@UAEXXZ 100aa890 f   libconcrtd:event.obj
 0002:000268b0       ?Destroy@WaitAnyBlock@details@Concurrency@@UAEXXZ 100aa8b0 f   libconcrtd:event.obj
 0002:000268c0       ?DispatchEventTimer@MultiWaitBlock@details@Concurrency@@SGXPAU_TP_CALLBACK_INSTANCE@@PAXPAU_TP_TIMER@@@Z 100aa8c0 f   libconcrtd:event.obj
 0002:00026980       ?DispatchEventTimer@TimedSingleWaitBlock@details@Concurrency@@SGXPAU_TP_CALLBACK_INSTANCE@@PAXPAU_TP_TIMER@@@Z 100aa980 f   libconcrtd:event.obj
 0002:000269e0       ?DispatchEventTimerXP@MultiWaitBlock@details@Concurrency@@SGXPAXE@Z 100aa9e0 f   libconcrtd:event.obj
 0002:00026a90       ?DispatchEventTimerXP@TimedSingleWaitBlock@details@Concurrency@@SGXPAXE@Z 100aaa90 f   libconcrtd:event.obj
 0002:00026ad0       ?GetIndexOfNode@MultiWaitBlockHolder@details@Concurrency@@QBEIPAVEventWaitNode@23@@Z 100aaad0 f i libconcrtd:event.obj
 0002:00026b00       ?GetSharedTimerQueue@details@Concurrency@@YAPAXXZ 100aab00 f   libconcrtd:event.obj
 0002:00026bd0       ?GetWaitBlock@MultiWaitBlockHolder@details@Concurrency@@QBEPAVMultiWaitBlock@23@XZ 100aabd0 f i libconcrtd:event.obj
 0002:00026bf0       ?GetWaitNode@MultiWaitBlockHolder@details@Concurrency@@QBEPAVEventWaitNode@23@I@Z 100aabf0 f i libconcrtd:event.obj
 0002:00026c20       ?NotifyCompletedNode@MultiWaitBlock@details@Concurrency@@QAEXXZ 100aac20 f   libconcrtd:event.obj
 0002:00026c80       ?Release@MultiWaitBlockHolder@details@Concurrency@@QAEXXZ 100aac80 f i libconcrtd:event.obj
 0002:00026ca0       ?Reset@EventWaitNode@details@Concurrency@@QAE_NXZ 100aaca0 f i libconcrtd:event.obj
 0002:00026ce0       ?Reset@SingleWaitBlock@details@Concurrency@@UAE_NXZ 100aace0 f   libconcrtd:event.obj
 0002:00026d30       ?Reset@WaitAllBlock@details@Concurrency@@UAE_NXZ 100aad30 f   libconcrtd:event.obj
 0002:00026dc0       ?Reset@WaitAnyBlock@details@Concurrency@@UAE_NXZ 100aadc0 f   libconcrtd:event.obj
 0002:00026e10       ?Satisfy@EventWaitNode@details@Concurrency@@QAE_NPAPAVContext@3@@Z 100aae10 f i libconcrtd:event.obj
 0002:00026e60       ?Satisfy@SingleWaitBlock@details@Concurrency@@UAE_NPAPAVContext@3@PAVEventWaitNode@23@@Z 100aae60 f   libconcrtd:event.obj
 0002:00026f30       ?Satisfy@TimedSingleWaitBlock@details@Concurrency@@UAE_NPAPAVContext@3@PAVEventWaitNode@23@@Z 100aaf30 f   libconcrtd:event.obj
 0002:00026ff0       ?Satisfy@WaitAllBlock@details@Concurrency@@UAE_NPAPAVContext@3@PAVEventWaitNode@23@@Z 100aaff0 f   libconcrtd:event.obj
 0002:000270c0       ?Satisfy@WaitAnyBlock@details@Concurrency@@UAE_NPAPAVContext@3@PAVEventWaitNode@23@@Z 100ab0c0 f   libconcrtd:event.obj
 0002:00027190       ?Set@StructuredEvent@details@Concurrency@@QAEXXZ 100ab190 f   libconcrtd:event.obj
 0002:00027230       ?SingleSatisfy@MultiWaitBlock@details@Concurrency@@MAEXPAPAVContext@3@PAVEventWaitNode@23@@Z 100ab230 f   libconcrtd:event.obj
 0002:000273e0       ?Sweep@details@Concurrency@@YAPAVEventWaitNode@12@PAV312@_N@Z 100ab3e0 f   libconcrtd:event.obj
 0002:00027470       ?SweepResetNode@EventWaitNode@details@Concurrency@@QAE_NXZ 100ab470 f i libconcrtd:event.obj
 0002:000274b0       ?SweepResetNode@SingleWaitBlock@details@Concurrency@@UAE_NXZ 100ab4b0 f   libconcrtd:event.obj
 0002:00027500       ?SweepResetNode@WaitAllBlock@details@Concurrency@@UAE_NXZ 100ab500 f   libconcrtd:event.obj
 0002:000275d0       ?SweepResetNode@WaitAnyBlock@details@Concurrency@@UAE_NXZ 100ab5d0 f   libconcrtd:event.obj
 0002:00027620       ?SweepWaitNode@EventWaitNode@details@Concurrency@@QAE_NXZ 100ab620 f i libconcrtd:event.obj
 0002:00027660       ?SweepWaitNode@SingleWaitBlock@details@Concurrency@@UAE_NXZ 100ab660 f   libconcrtd:event.obj
 0002:00027670       ?SweepWaitNode@TimedSingleWaitBlock@details@Concurrency@@UAE_NXZ 100ab670 f   libconcrtd:event.obj
 0002:000276c0       ?SweepWaitNode@WaitAllBlock@details@Concurrency@@UAE_NXZ 100ab6c0 f   libconcrtd:event.obj
 0002:000277c0       ?SweepWaitNode@WaitAnyBlock@details@Concurrency@@UAE_NXZ 100ab7c0 f   libconcrtd:event.obj
 0002:00027860       ?Wait@StructuredEvent@details@Concurrency@@QAEXXZ 100ab860 f   libconcrtd:event.obj
 0002:00027920       ?_InitOnRawMalloca@?$_MallocaArrayHolder@PAVContext@Concurrency@@@details@Concurrency@@QAEPAPAVContext@3@PAX@Z 100ab920 f i libconcrtd:event.obj
 0002:00027970       ?_Initialize@?$_MallocaArrayHolder@PAVContext@Concurrency@@@details@Concurrency@@QAEXPAPAVContext@3@@Z 100ab970 f i libconcrtd:event.obj
 0002:000279f0       ?createTimer@TimedSingleWaitBlock@details@Concurrency@@QAE_NI@Z 100ab9f0 f i libconcrtd:event.obj
 0002:00027ad0       ?destroyTimer@TimedSingleWaitBlock@details@Concurrency@@QAEX_N@Z 100abad0 f i libconcrtd:event.obj
 0002:00027b70       ?getEventNode@TimedSingleWaitBlock@details@Concurrency@@QAEPAVEventWaitNode@23@XZ 100abb70 f i libconcrtd:event.obj
 0002:00027b90       ?notify_all@_Condition_variable@details@Concurrency@@QAEXXZ 100abb90 f   libconcrtd:event.obj
 0002:00027c50       ?notify_one@_Condition_variable@details@Concurrency@@QAEXXZ 100abc50 f   libconcrtd:event.obj
 0002:00027d70       ?reset@event@Concurrency@@QAEXXZ 100abd70 f   libconcrtd:event.obj
 0002:00027e70       ?set@event@Concurrency@@QAEXXZ 100abe70 f   libconcrtd:event.obj
 0002:000280e0       ?wait@_Condition_variable@details@Concurrency@@QAEXAAVcritical_section@3@@Z 100ac0e0 f   libconcrtd:event.obj
 0002:000281b0       ?wait@event@Concurrency@@QAEII@Z 100ac1b0 f   libconcrtd:event.obj
 0002:00028360       ?wait_for@_Condition_variable@details@Concurrency@@QAE_NAAVcritical_section@3@I@Z 100ac360 f   libconcrtd:event.obj
 0002:00028550       ?wait_for_multiple@event@Concurrency@@SAIPAPAV12@I_NI@Z 100ac550 f   libconcrtd:event.obj
 0002:00028b10       __MallocaComputeSize       100acb10 f i libconcrtd:event.obj
 0002:00028b50       __MarkAllocaS              100acb50 f i libconcrtd:event.obj
 0002:00028b80       __freea                    100acb80 f i libconcrtd:event.obj
 0002:00028c10       ??0DefaultWaiterPool@platform@details@Concurrency@@QAE@XZ 100acc10 f i libconcrtd:Platform.obj
 0002:00028c30       ??0scheduler_resource_allocation_error@Concurrency@@QAE@ABV01@@Z 100acc30 f i libconcrtd:Platform.obj
 0002:00028c70       ??1DefaultWaiterPool@platform@details@Concurrency@@QAE@XZ 100acc70 f i libconcrtd:Platform.obj
 0002:00028cd0       ??1WaiterThreadPool@platform@details@Concurrency@@QAE@XZ 100accd0 f i libconcrtd:Platform.obj
 0002:00028d40       ??1scheduler_resource_allocation_error@Concurrency@@UAE@XZ 100acd40 f i libconcrtd:Platform.obj
 0002:00028d60       ??_GWaiterThreadPool@platform@details@Concurrency@@QAEPAXI@Z 100acd60 f i libconcrtd:Platform.obj
 0002:00028da0       ??_Escheduler_resource_allocation_error@Concurrency@@UAEPAXI@Z 100acda0 f i libconcrtd:Platform.obj
 0002:00028da0       ??_Gscheduler_resource_allocation_error@Concurrency@@UAEPAXI@Z 100acda0 f i libconcrtd:Platform.obj
 0002:00028de0       ?InitializeSystemFunctionPointers@platform@details@Concurrency@@YAXXZ 100acde0 f   libconcrtd:Platform.obj
 0002:00028f00       ?__ChangeTimerQueueTimer@platform@details@Concurrency@@YAHPAX0KK@Z 100acf00 f   libconcrtd:Platform.obj
 0002:00028f30       ?__CloseThreadHandle@platform@details@Concurrency@@YAXPAX@Z 100acf30 f   libconcrtd:Platform.obj
 0002:00028f50       ?__CreateAutoResetEvent@platform@details@Concurrency@@YAPAX_N@Z 100acf50 f   libconcrtd:Platform.obj
 0002:00028fe0       ?__CreateManualResetEvent@platform@details@Concurrency@@YAPAX_N@Z 100acfe0 f   libconcrtd:Platform.obj
 0002:00029070       ?__CreateThread@platform@details@Concurrency@@YAPAXPAU_SECURITY_ATTRIBUTES@@IP6GKPAX@Z1KPAK@Z 100ad070 f   libconcrtd:Platform.obj
 0002:000290a0       ?__CreateTimerQueueTimer@platform@details@Concurrency@@YAHPAPAXPAXP6GX1E@Z1KKK@Z 100ad0a0 f   libconcrtd:Platform.obj
 0002:000290d0       ?__DeleteTimerQueueTimer@platform@details@Concurrency@@YAXPAX00@Z 100ad0d0 f   libconcrtd:Platform.obj
 0002:00029130       ?__GetCurrentProcessorNumberEx@platform@details@Concurrency@@YAXPAU_PROCESSOR_NUMBER@@@Z 100ad130 f   libconcrtd:Platform.obj
 0002:00029170       ?__GetLogicalProcessorInformation@platform@details@Concurrency@@YAPAU_SYSTEM_LOGICAL_PROCESSOR_INFORMATION@@PAK@Z 100ad170 f   libconcrtd:Platform.obj
 0002:000292e0       ?__GetLogicalProcessorInformationEx@platform@details@Concurrency@@YAPAU_SYSTEM_LOGICAL_PROCESSOR_INFORMATION_EX@@W4_LOGICAL_PROCESSOR_RELATIONSHIP@@PAK@Z 100ad2e0 f   libconcrtd:Platform.obj
 0002:000294d0       ?__GetNumaHighestNodeNumber@platform@details@Concurrency@@YAKXZ 100ad4d0 f   libconcrtd:Platform.obj
 0002:00029530       ?__GetThreadGroupAffinity@platform@details@Concurrency@@YAHPAXPAU_GROUP_AFFINITY@@@Z 100ad530 f   libconcrtd:Platform.obj
 0002:000295f0       ?__GetThreadPriority@platform@details@Concurrency@@YAHPAX@Z 100ad5f0 f   libconcrtd:Platform.obj
 0002:00029610       ?__GetTickCount64@platform@details@Concurrency@@YA_KXZ 100ad610 f   libconcrtd:Platform.obj
 0002:00029620       ?__InitializeCriticalSectionEx@platform@details@Concurrency@@YAHPAU_RTL_CRITICAL_SECTION@@K@Z 100ad620 f   libconcrtd:Platform.obj
 0002:00029640       ?__RegisterWaitForSingleObject@platform@details@Concurrency@@YAPAXPAXP6GX0E@Z0@Z 100ad640 f   libconcrtd:Platform.obj
 0002:000296b0       ?__SetThreadGroupAffinity@platform@details@Concurrency@@YAHPAXPBU_GROUP_AFFINITY@@@Z 100ad6b0 f   libconcrtd:Platform.obj
 0002:00029790       ?__SetThreadPriority@platform@details@Concurrency@@YAXPAXH@Z 100ad790 f   libconcrtd:Platform.obj
 0002:000297f0       ?__SignalObjectAndWait@platform@details@Concurrency@@YAKPAX0KH@Z 100ad7f0 f   libconcrtd:Platform.obj
 0002:00029820       ?__Sleep@platform@details@Concurrency@@YAXK@Z 100ad820 f   libconcrtd:Platform.obj
 0002:00029840       ?__SwitchToThread@platform@details@Concurrency@@YAXXZ 100ad840 f   libconcrtd:Platform.obj
 0002:00029850       ?__TlsAlloc@platform@details@Concurrency@@YAKXZ 100ad850 f   libconcrtd:Platform.obj
 0002:000298b0       ?__TlsFree@platform@details@Concurrency@@YAXK@Z 100ad8b0 f   libconcrtd:Platform.obj
 0002:000298d0       ?__TlsGetValue@platform@details@Concurrency@@YAPAXK@Z 100ad8d0 f   libconcrtd:Platform.obj
 0002:000298f0       ?__TlsSetValue@platform@details@Concurrency@@YAXKPAX@Z 100ad8f0 f   libconcrtd:Platform.obj
 0002:00029950       ?__UnregisterWait@platform@details@Concurrency@@YAXPAX@Z 100ad950 f   libconcrtd:Platform.obj
 0002:00029970       ?__WaitForThread@platform@details@Concurrency@@YAKPAXK@Z 100ad970 f   libconcrtd:Platform.obj
 0002:00029990       ?notify@WaiterThread@platform@details@Concurrency@@AAEX_N@Z 100ad990 f i libconcrtd:Platform.obj
 0002:00029a20       ?stop@WaiterThread@platform@details@Concurrency@@QAEXXZ 100ada20 f i libconcrtd:Platform.obj
 0002:00029a70       __concrt_static_cleanup    100ada70 f   libconcrtd:utils.obj
 0002:00029a90       ??$ConcRT_FillBuffer@$0EAB@@details@Concurrency@@YAXAAY0EAB@_WPB_WPAD@Z 100ada90 f i libconcrtd:utils.obj
 0002:00029c20       ??$__vcrt_va_start_verify_argument_type@PB_W@@YAXXZ 100adc20 f i libconcrtd:utils.obj
 0002:00029c30       ??$__vcrt_va_start_verify_argument_type@QB_W@@YAXXZ 100adc30 f i libconcrtd:utils.obj
 0002:00029c40       ??0_SpinLock@details@Concurrency@@QAE@ACJ@Z 100adc40 f   libconcrtd:utils.obj
 0002:00029cb0       ??1_SpinLock@details@Concurrency@@QAE@XZ 100adcb0 f   libconcrtd:utils.obj
 0002:00029cd0       ?DecodePointer@Security@details@Concurrency@@SAPAXPAX@Z 100adcd0 f   libconcrtd:utils.obj
 0002:00029cf0       ?DeleteAsyncTimerAndUnloadLibrary@details@Concurrency@@YAXPAU_TP_TIMER@@@Z 100adcf0 f   libconcrtd:utils.obj
 0002:00029d80       ?EncodePointer@Security@details@Concurrency@@SAPAXPAX@Z 100add80 f   libconcrtd:utils.obj
 0002:00029dc0       ?FreeLibraryAndDestroyThread@details@Concurrency@@YAXK@Z 100addc0 f   libconcrtd:utils.obj
 0002:00029e00       ?InitializeCookie@Security@details@Concurrency@@SAKXZ 100ade00 f   libconcrtd:utils.obj
 0002:00029eb0       ?InitializeUtilityRoutines@details@Concurrency@@YAXXZ 100adeb0 f   libconcrtd:utils.obj
 0002:00029ec0       ?LoadLibraryAndCreateThread@details@Concurrency@@YAPAXPAU_SECURITY_ATTRIBUTES@@KP6GKPAX@Z1KPAK@Z 100adec0 f   libconcrtd:utils.obj
 0002:00029f30       ?Log2@details@Concurrency@@YAKI@Z 100adf30 f   libconcrtd:utils.obj
 0002:00029f50       ?ReferenceLoadLibrary@details@Concurrency@@YAXXZ 100adf50 f   libconcrtd:utils.obj
 0002:0002a040       ?ReferenceStaticOneShot@SchedulerBase@details@Concurrency@@SAJXZ 100ae040 f i libconcrtd:utils.obj
 0002:0002a060       ?RegisterAsyncTimerAndLoadLibrary@details@Concurrency@@YAPAU_TP_TIMER@@KP6GXPAU_TP_CALLBACK_INSTANCE@@PAXPAU3@@Z1_N@Z 100ae060 f   libconcrtd:utils.obj
 0002:0002a120       ?RegisterAsyncWaitAndLoadLibrary@details@Concurrency@@YAPAU_TP_WAIT@@PAXP6GXPAU_TP_CALLBACK_INSTANCE@@0PAU3@K@Z0@Z 100ae120 f   libconcrtd:utils.obj
 0002:0002a180       ?UnRegisterAsyncTimerAndUnloadLibrary@details@Concurrency@@YAXPAU_TP_CALLBACK_INSTANCE@@PAU_TP_TIMER@@@Z 100ae180 f   libconcrtd:utils.obj
 0002:0002a210       ?UnRegisterAsyncWaitAndUnloadLibrary@details@Concurrency@@YAXPAU_TP_CALLBACK_INSTANCE@@PAU_TP_WAIT@@@Z 100ae210 f   libconcrtd:utils.obj
 0002:0002a290       ?_Acquire@_CriticalNonReentrantLock@details@Concurrency@@QAEXXZ 100ae290 f   libconcrtd:utils.obj
 0002:0002a2b0       ?_Acquire@_HyperNonReentrantLock@details@Concurrency@@QAEXXZ 100ae2b0 f   libconcrtd:utils.obj
 0002:0002a2d0       ?_Acquire@_NonReentrantLock@details@Concurrency@@QAEXXZ 100ae2d0 f i libconcrtd:utils.obj
 0002:0002a2f0       ?_ConcRT_CoreAssert@details@Concurrency@@YAXPBD0H@Z 100ae2f0 f   libconcrtd:utils.obj
 0002:0002a300       ?_ConcRT_Trace@details@Concurrency@@YAXHPB_WZZ 100ae300 f   libconcrtd:utils.obj
 0002:0002a480       ?_GetConcurrency@details@Concurrency@@YAIXZ 100ae480 f   libconcrtd:utils.obj
 0002:0002a490       ?_Release@_CriticalNonReentrantLock@details@Concurrency@@QAEXXZ 100ae490 f   libconcrtd:utils.obj
 0002:0002a4b0       ?_Release@_HyperNonReentrantLock@details@Concurrency@@QAEXXZ 100ae4b0 f   libconcrtd:utils.obj
 0002:0002a4d0       ?_Release@_NonReentrantLock@details@Concurrency@@QAEXXZ 100ae4d0 f i libconcrtd:utils.obj
 0002:0002a4f0       ?_Sleep0@details@Concurrency@@YAXXZ 100ae4f0 f   libconcrtd:utils.obj
 0002:0002a510       ?_TryAcquire@_CriticalNonReentrantLock@details@Concurrency@@QAE_NXZ 100ae510 f   libconcrtd:utils.obj
 0002:0002a550       ?_TryAcquire@_HyperNonReentrantLock@details@Concurrency@@QAE_NXZ 100ae550 f   libconcrtd:utils.obj
 0002:0002a590       ?_TryAcquire@_NonReentrantLock@details@Concurrency@@QAE_NXZ 100ae590 f i libconcrtd:utils.obj
 0002:0002a5b0       ?_UnderlyingYield@details@Concurrency@@YAXXZ 100ae5b0 f   libconcrtd:utils.obj
 0002:0002a600       __vfwprintf_l              100ae600 f i libconcrtd:utils.obj
 0002:0002a640       __vswprintf_s_l            100ae640 f i libconcrtd:utils.obj
 0002:0002a6a0       _fwprintf                  100ae6a0 f i libconcrtd:utils.obj
 0002:0002a6f0       _swprintf_s                100ae6f0 f i libconcrtd:utils.obj
 0002:0002a740       _vswprintf_s               100ae740 f i libconcrtd:utils.obj
 0002:0002a770       ??0bad_target@Concurrency@@QAE@PBD@Z 100ae770 f   libconcrtd:Exceptions.obj
 0002:0002a7a0       ??0bad_target@Concurrency@@QAE@XZ 100ae7a0 f   libconcrtd:Exceptions.obj
 0002:0002a7d0       ??0context_self_unblock@Concurrency@@QAE@PBD@Z 100ae7d0 f   libconcrtd:Exceptions.obj
 0002:0002a800       ??0context_self_unblock@Concurrency@@QAE@XZ 100ae800 f   libconcrtd:Exceptions.obj
 0002:0002a830       ??0context_unblock_unbalanced@Concurrency@@QAE@PBD@Z 100ae830 f   libconcrtd:Exceptions.obj
 0002:0002a860       ??0context_unblock_unbalanced@Concurrency@@QAE@XZ 100ae860 f   libconcrtd:Exceptions.obj
 0002:0002a890       ??0default_scheduler_exists@Concurrency@@QAE@PBD@Z 100ae890 f   libconcrtd:Exceptions.obj
 0002:0002a8c0       ??0default_scheduler_exists@Concurrency@@QAE@XZ 100ae8c0 f   libconcrtd:Exceptions.obj
 0002:0002a8f0       ??0improper_lock@Concurrency@@QAE@PBD@Z 100ae8f0 f   libconcrtd:Exceptions.obj
 0002:0002a920       ??0improper_lock@Concurrency@@QAE@XZ 100ae920 f   libconcrtd:Exceptions.obj
 0002:0002a950       ??0improper_scheduler_attach@Concurrency@@QAE@PBD@Z 100ae950 f   libconcrtd:Exceptions.obj
 0002:0002a980       ??0improper_scheduler_attach@Concurrency@@QAE@XZ 100ae980 f   libconcrtd:Exceptions.obj
 0002:0002a9b0       ??0improper_scheduler_detach@Concurrency@@QAE@PBD@Z 100ae9b0 f   libconcrtd:Exceptions.obj
 0002:0002a9e0       ??0improper_scheduler_detach@Concurrency@@QAE@XZ 100ae9e0 f   libconcrtd:Exceptions.obj
 0002:0002aa10       ??0improper_scheduler_reference@Concurrency@@QAE@PBD@Z 100aea10 f   libconcrtd:Exceptions.obj
 0002:0002aa40       ??0improper_scheduler_reference@Concurrency@@QAE@XZ 100aea40 f   libconcrtd:Exceptions.obj
 0002:0002aa70       ??0invalid_link_target@Concurrency@@QAE@PBD@Z 100aea70 f   libconcrtd:Exceptions.obj
 0002:0002aaa0       ??0invalid_link_target@Concurrency@@QAE@XZ 100aeaa0 f   libconcrtd:Exceptions.obj
 0002:0002aad0       ??0invalid_multiple_scheduling@Concurrency@@QAE@PBD@Z 100aead0 f   libconcrtd:Exceptions.obj
 0002:0002ab00       ??0invalid_multiple_scheduling@Concurrency@@QAE@XZ 100aeb00 f   libconcrtd:Exceptions.obj
 0002:0002ab30       ??0invalid_oversubscribe_operation@Concurrency@@QAE@PBD@Z 100aeb30 f   libconcrtd:Exceptions.obj
 0002:0002ab60       ??0invalid_oversubscribe_operation@Concurrency@@QAE@XZ 100aeb60 f   libconcrtd:Exceptions.obj
 0002:0002ab90       ??0invalid_scheduler_policy_key@Concurrency@@QAE@PBD@Z 100aeb90 f   libconcrtd:Exceptions.obj
 0002:0002abc0       ??0invalid_scheduler_policy_key@Concurrency@@QAE@XZ 100aebc0 f   libconcrtd:Exceptions.obj
 0002:0002abf0       ??0invalid_scheduler_policy_thread_specification@Concurrency@@QAE@PBD@Z 100aebf0 f   libconcrtd:Exceptions.obj
 0002:0002ac20       ??0invalid_scheduler_policy_thread_specification@Concurrency@@QAE@XZ 100aec20 f   libconcrtd:Exceptions.obj
 0002:0002ac50       ??0invalid_scheduler_policy_value@Concurrency@@QAE@PBD@Z 100aec50 f   libconcrtd:Exceptions.obj
 0002:0002ac80       ??0invalid_scheduler_policy_value@Concurrency@@QAE@XZ 100aec80 f   libconcrtd:Exceptions.obj
 0002:0002acb0       ??0message_not_found@Concurrency@@QAE@PBD@Z 100aecb0 f   libconcrtd:Exceptions.obj
 0002:0002ace0       ??0message_not_found@Concurrency@@QAE@XZ 100aece0 f   libconcrtd:Exceptions.obj
 0002:0002ad10       ??0missing_wait@Concurrency@@QAE@PBD@Z 100aed10 f   libconcrtd:Exceptions.obj
 0002:0002ad40       ??0missing_wait@Concurrency@@QAE@XZ 100aed40 f   libconcrtd:Exceptions.obj
 0002:0002ad70       ??0nested_scheduler_missing_detach@Concurrency@@QAE@PBD@Z 100aed70 f   libconcrtd:Exceptions.obj
 0002:0002ada0       ??0nested_scheduler_missing_detach@Concurrency@@QAE@XZ 100aeda0 f   libconcrtd:Exceptions.obj
 0002:0002add0       ??0operation_timed_out@Concurrency@@QAE@PBD@Z 100aedd0 f   libconcrtd:Exceptions.obj
 0002:0002ae00       ??0operation_timed_out@Concurrency@@QAE@XZ 100aee00 f   libconcrtd:Exceptions.obj
 0002:0002ae30       ??0scheduler_not_attached@Concurrency@@QAE@PBD@Z 100aee30 f   libconcrtd:Exceptions.obj
 0002:0002ae60       ??0scheduler_not_attached@Concurrency@@QAE@XZ 100aee60 f   libconcrtd:Exceptions.obj
 0002:0002ae90       ??0scheduler_resource_allocation_error@Concurrency@@QAE@J@Z 100aee90 f   libconcrtd:Exceptions.obj
 0002:0002aed0       ??0scheduler_resource_allocation_error@Concurrency@@QAE@PBDJ@Z 100aeed0 f   libconcrtd:Exceptions.obj
 0002:0002af10       ??0scheduler_worker_creation_error@Concurrency@@QAE@J@Z 100aef10 f   libconcrtd:Exceptions.obj
 0002:0002af40       ??0scheduler_worker_creation_error@Concurrency@@QAE@PBDJ@Z 100aef40 f   libconcrtd:Exceptions.obj
 0002:0002af80       ??0unsupported_os@Concurrency@@QAE@PBD@Z 100aef80 f   libconcrtd:Exceptions.obj
 0002:0002afb0       ??0unsupported_os@Concurrency@@QAE@XZ 100aefb0 f   libconcrtd:Exceptions.obj
 0002:0002afe0       ??1bad_target@Concurrency@@UAE@XZ 100aefe0 f i libconcrtd:Exceptions.obj
 0002:0002b000       ??1context_self_unblock@Concurrency@@UAE@XZ 100af000 f i libconcrtd:Exceptions.obj
 0002:0002b020       ??1context_unblock_unbalanced@Concurrency@@UAE@XZ 100af020 f i libconcrtd:Exceptions.obj
 0002:0002b040       ??1default_scheduler_exists@Concurrency@@UAE@XZ 100af040 f i libconcrtd:Exceptions.obj
 0002:0002b060       ??1improper_scheduler_attach@Concurrency@@UAE@XZ 100af060 f i libconcrtd:Exceptions.obj
 0002:0002b080       ??1improper_scheduler_detach@Concurrency@@UAE@XZ 100af080 f i libconcrtd:Exceptions.obj
 0002:0002b0a0       ??1improper_scheduler_reference@Concurrency@@UAE@XZ 100af0a0 f i libconcrtd:Exceptions.obj
 0002:0002b0c0       ??1invalid_link_target@Concurrency@@UAE@XZ 100af0c0 f i libconcrtd:Exceptions.obj
 0002:0002b0e0       ??1invalid_multiple_scheduling@Concurrency@@UAE@XZ 100af0e0 f i libconcrtd:Exceptions.obj
 0002:0002b100       ??1invalid_oversubscribe_operation@Concurrency@@UAE@XZ 100af100 f i libconcrtd:Exceptions.obj
 0002:0002b120       ??1invalid_scheduler_policy_key@Concurrency@@UAE@XZ 100af120 f i libconcrtd:Exceptions.obj
 0002:0002b140       ??1invalid_scheduler_policy_thread_specification@Concurrency@@UAE@XZ 100af140 f i libconcrtd:Exceptions.obj
 0002:0002b160       ??1invalid_scheduler_policy_value@Concurrency@@UAE@XZ 100af160 f i libconcrtd:Exceptions.obj
 0002:0002b180       ??1message_not_found@Concurrency@@UAE@XZ 100af180 f i libconcrtd:Exceptions.obj
 0002:0002b1a0       ??1missing_wait@Concurrency@@UAE@XZ 100af1a0 f i libconcrtd:Exceptions.obj
 0002:0002b1c0       ??1nested_scheduler_missing_detach@Concurrency@@UAE@XZ 100af1c0 f i libconcrtd:Exceptions.obj
 0002:0002b1e0       ??1operation_timed_out@Concurrency@@UAE@XZ 100af1e0 f i libconcrtd:Exceptions.obj
 0002:0002b200       ??1scheduler_not_attached@Concurrency@@UAE@XZ 100af200 f i libconcrtd:Exceptions.obj
 0002:0002b220       ??1scheduler_worker_creation_error@Concurrency@@UAE@XZ 100af220 f i libconcrtd:Exceptions.obj
 0002:0002b240       ??1unsupported_os@Concurrency@@UAE@XZ 100af240 f i libconcrtd:Exceptions.obj
 0002:0002b260       ??_Ebad_target@Concurrency@@UAEPAXI@Z 100af260 f i libconcrtd:Exceptions.obj
 0002:0002b260       ??_Gbad_target@Concurrency@@UAEPAXI@Z 100af260 f i libconcrtd:Exceptions.obj
 0002:0002b2a0       ??_Econtext_self_unblock@Concurrency@@UAEPAXI@Z 100af2a0 f i libconcrtd:Exceptions.obj
 0002:0002b2a0       ??_Gcontext_self_unblock@Concurrency@@UAEPAXI@Z 100af2a0 f i libconcrtd:Exceptions.obj
 0002:0002b2e0       ??_Econtext_unblock_unbalanced@Concurrency@@UAEPAXI@Z 100af2e0 f i libconcrtd:Exceptions.obj
 0002:0002b2e0       ??_Gcontext_unblock_unbalanced@Concurrency@@UAEPAXI@Z 100af2e0 f i libconcrtd:Exceptions.obj
 0002:0002b320       ??_Edefault_scheduler_exists@Concurrency@@UAEPAXI@Z 100af320 f i libconcrtd:Exceptions.obj
 0002:0002b320       ??_Gdefault_scheduler_exists@Concurrency@@UAEPAXI@Z 100af320 f i libconcrtd:Exceptions.obj
 0002:0002b360       ??_Eimproper_scheduler_attach@Concurrency@@UAEPAXI@Z 100af360 f i libconcrtd:Exceptions.obj
 0002:0002b360       ??_Gimproper_scheduler_attach@Concurrency@@UAEPAXI@Z 100af360 f i libconcrtd:Exceptions.obj
 0002:0002b3a0       ??_Gimproper_scheduler_detach@Concurrency@@UAEPAXI@Z 100af3a0 f i libconcrtd:Exceptions.obj
 0002:0002b3a0       ??_Eimproper_scheduler_detach@Concurrency@@UAEPAXI@Z 100af3a0 f i libconcrtd:Exceptions.obj
 0002:0002b3e0       ??_Eimproper_scheduler_reference@Concurrency@@UAEPAXI@Z 100af3e0 f i libconcrtd:Exceptions.obj
 0002:0002b3e0       ??_Gimproper_scheduler_reference@Concurrency@@UAEPAXI@Z 100af3e0 f i libconcrtd:Exceptions.obj
 0002:0002b420       ??_Einvalid_link_target@Concurrency@@UAEPAXI@Z 100af420 f i libconcrtd:Exceptions.obj
 0002:0002b420       ??_Ginvalid_link_target@Concurrency@@UAEPAXI@Z 100af420 f i libconcrtd:Exceptions.obj
 0002:0002b460       ??_Einvalid_multiple_scheduling@Concurrency@@UAEPAXI@Z 100af460 f i libconcrtd:Exceptions.obj
 0002:0002b460       ??_Ginvalid_multiple_scheduling@Concurrency@@UAEPAXI@Z 100af460 f i libconcrtd:Exceptions.obj
 0002:0002b4a0       ??_Einvalid_oversubscribe_operation@Concurrency@@UAEPAXI@Z 100af4a0 f i libconcrtd:Exceptions.obj
 0002:0002b4a0       ??_Ginvalid_oversubscribe_operation@Concurrency@@UAEPAXI@Z 100af4a0 f i libconcrtd:Exceptions.obj
 0002:0002b4e0       ??_Einvalid_scheduler_policy_key@Concurrency@@UAEPAXI@Z 100af4e0 f i libconcrtd:Exceptions.obj
 0002:0002b4e0       ??_Ginvalid_scheduler_policy_key@Concurrency@@UAEPAXI@Z 100af4e0 f i libconcrtd:Exceptions.obj
 0002:0002b520       ??_Ginvalid_scheduler_policy_thread_specification@Concurrency@@UAEPAXI@Z 100af520 f i libconcrtd:Exceptions.obj
 0002:0002b520       ??_Einvalid_scheduler_policy_thread_specification@Concurrency@@UAEPAXI@Z 100af520 f i libconcrtd:Exceptions.obj
 0002:0002b560       ??_Ginvalid_scheduler_policy_value@Concurrency@@UAEPAXI@Z 100af560 f i libconcrtd:Exceptions.obj
 0002:0002b560       ??_Einvalid_scheduler_policy_value@Concurrency@@UAEPAXI@Z 100af560 f i libconcrtd:Exceptions.obj
 0002:0002b5a0       ??_Emessage_not_found@Concurrency@@UAEPAXI@Z 100af5a0 f i libconcrtd:Exceptions.obj
 0002:0002b5a0       ??_Gmessage_not_found@Concurrency@@UAEPAXI@Z 100af5a0 f i libconcrtd:Exceptions.obj
 0002:0002b5e0       ??_Emissing_wait@Concurrency@@UAEPAXI@Z 100af5e0 f i libconcrtd:Exceptions.obj
 0002:0002b5e0       ??_Gmissing_wait@Concurrency@@UAEPAXI@Z 100af5e0 f i libconcrtd:Exceptions.obj
 0002:0002b620       ??_Enested_scheduler_missing_detach@Concurrency@@UAEPAXI@Z 100af620 f i libconcrtd:Exceptions.obj
 0002:0002b620       ??_Gnested_scheduler_missing_detach@Concurrency@@UAEPAXI@Z 100af620 f i libconcrtd:Exceptions.obj
 0002:0002b660       ??_Eoperation_timed_out@Concurrency@@UAEPAXI@Z 100af660 f i libconcrtd:Exceptions.obj
 0002:0002b660       ??_Goperation_timed_out@Concurrency@@UAEPAXI@Z 100af660 f i libconcrtd:Exceptions.obj
 0002:0002b6a0       ??_Gscheduler_not_attached@Concurrency@@UAEPAXI@Z 100af6a0 f i libconcrtd:Exceptions.obj
 0002:0002b6a0       ??_Escheduler_not_attached@Concurrency@@UAEPAXI@Z 100af6a0 f i libconcrtd:Exceptions.obj
 0002:0002b6e0       ??_Escheduler_worker_creation_error@Concurrency@@UAEPAXI@Z 100af6e0 f i libconcrtd:Exceptions.obj
 0002:0002b6e0       ??_Gscheduler_worker_creation_error@Concurrency@@UAEPAXI@Z 100af6e0 f i libconcrtd:Exceptions.obj
 0002:0002b720       ??_Eunsupported_os@Concurrency@@UAEPAXI@Z 100af720 f i libconcrtd:Exceptions.obj
 0002:0002b720       ??_Gunsupported_os@Concurrency@@UAEPAXI@Z 100af720 f i libconcrtd:Exceptions.obj
 0002:0002b760       ?get_error_code@scheduler_resource_allocation_error@Concurrency@@QBEJXZ 100af760 f   libconcrtd:Exceptions.obj
 0002:0002b780       ??0_Context@details@Concurrency@@QAE@PAVContext@2@@Z 100af780 f i libconcrtd:Context.obj
 0002:0002b7a0       ?Block@Context@Concurrency@@SAXXZ 100af7a0 f   libconcrtd:Context.obj
 0002:0002b7e0       ?CurrentContext@Context@Concurrency@@SAPAV12@XZ 100af7e0 f   libconcrtd:Context.obj
 0002:0002b7f0       ?GetExecutingCollection@ContextBase@details@Concurrency@@QAEPAV_TaskCollectionBase@23@XZ 100af7f0 f i libconcrtd:Context.obj
 0002:0002b810       ?Id@Context@Concurrency@@SAIXZ 100af810 f   libconcrtd:Context.obj
 0002:0002b860       ?IsCurrentTaskCollectionCanceling@Context@Concurrency@@SA_NXZ 100af860 f   libconcrtd:Context.obj
 0002:0002b8f0       ?Oversubscribe@Context@Concurrency@@SAX_N@Z 100af8f0 f   libconcrtd:Context.obj
 0002:0002b930       ?ScheduleGroupId@Context@Concurrency@@SAIXZ 100af930 f   libconcrtd:Context.obj
 0002:0002b980       ?VirtualProcessorId@Context@Concurrency@@SAIXZ 100af980 f   libconcrtd:Context.obj
 0002:0002b9d0       ?Yield@Context@Concurrency@@SAXXZ 100af9d0 f   libconcrtd:Context.obj
 0002:0002ba10       ?_CurrentContext@_Context@details@Concurrency@@SA?AV123@XZ 100afa10 f   libconcrtd:Context.obj
 0002:0002ba30       ?_IsStructured@_TaskCollectionBase@details@Concurrency@@QAE_NXZ 100afa30 f i libconcrtd:Context.obj
 0002:0002ba70       ?_IsSynchronouslyBlocked@_Context@details@Concurrency@@QBE_NXZ 100afa70 f   libconcrtd:Context.obj
 0002:0002bab0       ?_Oversubscribe@_Context@details@Concurrency@@SAX_N@Z 100afab0 f   libconcrtd:Context.obj
 0002:0002baf0       ?_SpinYield@Context@Concurrency@@SAXXZ 100afaf0 f   libconcrtd:Context.obj
 0002:0002bb30       ?_Yield@_Context@details@Concurrency@@SAXXZ 100afb30 f   libconcrtd:Context.obj
 0002:0002bb70       ??0?$List@VExecutionResource@details@Concurrency@@VCount@CollectionTypes@23@@details@Concurrency@@QAE@XZ 100afb70 f i libconcrtd:ResourceManager.obj
 0002:0002bba0       ??0?$List@VSchedulerProxy@details@Concurrency@@VCount@CollectionTypes@23@@details@Concurrency@@QAE@XZ 100afba0 f i libconcrtd:ResourceManager.obj
 0002:0002bbd0       ??0AffinityRestriction@ResourceManager@details@Concurrency@@QAE@GPAUHardwareAffinity@23@@Z 100afbd0 f i libconcrtd:ResourceManager.obj
 0002:0002bc00       ??0Count@CollectionTypes@details@Concurrency@@QAE@XZ 100afc00 f i libconcrtd:ResourceManager.obj
 0002:0002bc20       ??0HardwareAffinity@details@Concurrency@@QAE@ABU012@@Z 100afc20 f i libconcrtd:ResourceManager.obj
 0002:0002bc50       ??0HardwareAffinity@details@Concurrency@@QAE@GK@Z 100afc50 f i libconcrtd:ResourceManager.obj
 0002:0002bc90       ??0HardwareAffinity@details@Concurrency@@QAE@K@Z 100afc90 f i libconcrtd:ResourceManager.obj
 0002:0002bcd0       ??0HardwareAffinity@details@Concurrency@@QAE@PAX@Z 100afcd0 f   libconcrtd:ResourceManager.obj
 0002:0002bd10       ??0HardwareAffinity@details@Concurrency@@QAE@XZ 100afd10 f i libconcrtd:ResourceManager.obj
 0002:0002bd50       ??0IResourceManager@Concurrency@@QAE@XZ 100afd50 f i libconcrtd:ResourceManager.obj
 0002:0002bd70       ??0ITopologyExecutionResource@Concurrency@@QAE@XZ 100afd70 f i libconcrtd:ResourceManager.obj
 0002:0002bd90       ??0ITopologyNode@Concurrency@@QAE@XZ 100afd90 f i libconcrtd:ResourceManager.obj
 0002:0002bdb0       ??0ResourceManager@details@Concurrency@@AAE@XZ 100afdb0 f   libconcrtd:ResourceManager.obj
 0002:0002c040       ??0SchedulerCore@details@Concurrency@@QAE@XZ 100b0040 f i libconcrtd:ResourceManager.obj
 0002:0002c060       ??0TopologyObject@GlobalCore@details@Concurrency@@QAE@PAU123@@Z 100b0060 f i libconcrtd:ResourceManager.obj
 0002:0002c0a0       ??0TopologyObject@GlobalNode@details@Concurrency@@QAE@PAU123@@Z 100b00a0 f i libconcrtd:ResourceManager.obj
 0002:0002c0e0       ??0_Scoped_lock@_NonReentrantBlockingLock@details@Concurrency@@QAE@AAV123@@Z 100b00e0 f i libconcrtd:ResourceManager.obj
 0002:0002c110       ??0_Scoped_lock@_NonReentrantLock@details@Concurrency@@QAE@AAV123@@Z 100b0110 f i libconcrtd:ResourceManager.obj
 0002:0002c140       ??0invalid_operation@Concurrency@@QAE@ABV01@@Z 100b0140 f i libconcrtd:ResourceManager.obj
 0002:0002c170       ??0invalid_operation@Concurrency@@QAE@XZ 100b0170 f i libconcrtd:ResourceManager.obj
 0002:0002c1a0       ??0unsupported_os@Concurrency@@QAE@ABV01@@Z 100b01a0 f i libconcrtd:ResourceManager.obj
 0002:0002c1d0       ??1AffinityRestriction@ResourceManager@details@Concurrency@@QAE@XZ 100b01d0 f i libconcrtd:ResourceManager.obj
 0002:0002c200       ??1GlobalNode@details@Concurrency@@QAE@XZ 100b0200 f i libconcrtd:ResourceManager.obj
 0002:0002c230       ??1ResourceManager@details@Concurrency@@AAE@XZ 100b0230 f   libconcrtd:ResourceManager.obj
 0002:0002c490       ??1_Scoped_lock@_NonReentrantBlockingLock@details@Concurrency@@QAE@XZ 100b0490 f i libconcrtd:ResourceManager.obj
 0002:0002c4e0       ??1_Scoped_lock@_NonReentrantLock@details@Concurrency@@QAE@XZ 100b04e0 f i libconcrtd:ResourceManager.obj
 0002:0002c530       ??1invalid_operation@Concurrency@@UAE@XZ 100b0530 f i libconcrtd:ResourceManager.obj
 0002:0002c550       ??4HardwareAffinity@details@Concurrency@@QAEAAU012@ABU012@@Z 100b0550 f i libconcrtd:ResourceManager.obj
 0002:0002c590       ??_EGlobalNode@details@Concurrency@@QAEPAXI@Z 100b0590 f i libconcrtd:ResourceManager.obj
 0002:0002c660       ??_GAffinityRestriction@ResourceManager@details@Concurrency@@QAEPAXI@Z 100b0660 f i libconcrtd:ResourceManager.obj
 0002:0002c6a0       ??_GResourceManager@details@Concurrency@@AAEPAXI@Z 100b06a0 f i libconcrtd:ResourceManager.obj
 0002:0002c6e0       ??_Einvalid_operation@Concurrency@@UAEPAXI@Z 100b06e0 f i libconcrtd:ResourceManager.obj
 0002:0002c6e0       ??_Ginvalid_operation@Concurrency@@UAEPAXI@Z 100b06e0 f i libconcrtd:ResourceManager.obj
 0002:0002c720       ??_V@YAXPAXV_ConcRTNewMoniker@@PBDH@Z 100b0720 f i libconcrtd:ResourceManager.obj
 0002:0002c740       ?AddTail@?$List@VSchedulerProxy@details@Concurrency@@VCount@CollectionTypes@23@@details@Concurrency@@QAEXPAVSchedulerProxy@23@@Z 100b0740 f i libconcrtd:ResourceManager.obj
 0002:0002c810       ?AdjustDynamicAllocation@ResourceManager@details@Concurrency@@AAEIIII@Z 100b0810 f   libconcrtd:ResourceManager.obj
 0002:0002c9c0       ?ApplyAffinityLimits@AffinityRestriction@ResourceManager@details@Concurrency@@QAEXPAU_GROUP_AFFINITY@@@Z 100b09c0 f i libconcrtd:ResourceManager.obj
 0002:0002ca20       ?ApplyAffinityRestrictions@ResourceManager@details@Concurrency@@CAXPAK@Z 100b0a20 f   libconcrtd:ResourceManager.obj
 0002:0002ca90       ?ApplyAffinityRestrictions@ResourceManager@details@Concurrency@@CAXPAU_GROUP_AFFINITY@@@Z 100b0a90 f   libconcrtd:ResourceManager.obj
 0002:0002cb30       ?ApplyTo@HardwareAffinity@details@Concurrency@@QAEXPAX@Z 100b0b30 f   libconcrtd:ResourceManager.obj
 0002:0002cb60       ?CaptureProcessAffinity@ResourceManager@details@Concurrency@@CAXXZ 100b0b60 f   libconcrtd:ResourceManager.obj
 0002:0002ceb0       ?CleanupTopologyInformation@ResourceManager@details@Concurrency@@CAXXZ 100b0eb0 f   libconcrtd:ResourceManager.obj
 0002:0002cee0       ?CommitStolenCores@ResourceManager@details@Concurrency@@AAEXPAVSchedulerProxy@23@@Z 100b0ee0 f   libconcrtd:ResourceManager.obj
 0002:0002d1c0       ?ComputeDesiredHWThreadsWithExternalThread@SchedulerProxy@details@Concurrency@@QBEIXZ 100b11c0 f i libconcrtd:ResourceManager.obj
 0002:0002d220       ?ComputeMinHWThreadsWithExternalThread@SchedulerProxy@details@Concurrency@@QBEIXZ 100b1220 f i libconcrtd:ResourceManager.obj
 0002:0002d280       ?Count@?$List@VExecutionResource@details@Concurrency@@VCount@CollectionTypes@23@@details@Concurrency@@QBEHXZ 100b1280 f i libconcrtd:ResourceManager.obj
 0002:0002d2a0       ?CreateAllocatedNodeData@ResourceManager@details@Concurrency@@QAEPAUSchedulerNode@23@XZ 100b12a0 f   libconcrtd:ResourceManager.obj
 0002:0002d540       ?CreateDynamicRMWorker@ResourceManager@details@Concurrency@@AAEXXZ 100b1540 f   libconcrtd:ResourceManager.obj
 0002:0002d5d0       ?CreateNodeTopology@ResourceManager@details@Concurrency@@UAEXIPAIPAPAI0@Z 100b15d0 f   libconcrtd:ResourceManager.obj
 0002:0002d9b0       ?CreateResourceManager@Concurrency@@YAPAUIResourceManager@1@XZ 100b19b0 f   libconcrtd:ResourceManager.obj
 0002:0002d9c0       ?CreateSchedulerProxy@ResourceManager@details@Concurrency@@AAEPAVSchedulerProxy@23@PAUIScheduler@3@@Z 100b19c0 f   libconcrtd:ResourceManager.obj
 0002:0002dad0       ?CreateSingleton@ResourceManager@details@Concurrency@@SAPAV123@XZ 100b1ad0 f   libconcrtd:ResourceManager.obj
 0002:0002dca0       ?CurrentSubscriptionLevel@ResourceManager@details@Concurrency@@QAEIII@Z 100b1ca0 f   libconcrtd:ResourceManager.obj
 0002:0002dd90       ?Decrement@Count@CollectionTypes@details@Concurrency@@QAEXXZ 100b1d90 f i libconcrtd:ResourceManager.obj
 0002:0002ddb0       ?DesiredHWThreads@SchedulerProxy@details@Concurrency@@QBEIXZ 100b1db0 f i libconcrtd:ResourceManager.obj
 0002:0002de80       ?DestroyAllocatedNodeData@ResourceManager@details@Concurrency@@QAEXPAUSchedulerNode@23@@Z 100b1e80 f   libconcrtd:ResourceManager.obj
 0002:0002def0       ?DetermineTopology@ResourceManager@details@Concurrency@@AAEXXZ 100b1ef0 f   libconcrtd:ResourceManager.obj
 0002:0002e8b0       ?DiscardExistingSchedulerStatistics@ResourceManager@details@Concurrency@@AAEXXZ 100b28b0 f   libconcrtd:ResourceManager.obj
 0002:0002ea00       ?DistributeCoresToSurvivingScheduler@ResourceManager@details@Concurrency@@AAE_NXZ 100b2a00 f   libconcrtd:ResourceManager.obj
 0002:0002ef40       ?DistributeExclusiveCores@ResourceManager@details@Concurrency@@AAEXIIIII@Z 100b2f40 f   libconcrtd:ResourceManager.obj
 0002:0002f240       ?DistributeIdleCores@ResourceManager@details@Concurrency@@AAEXII@Z 100b3240 f   libconcrtd:ResourceManager.obj
 0002:0002f630       ?DoCoreMigration@ResourceManager@details@Concurrency@@AAEXXZ 100b3630 f   libconcrtd:ResourceManager.obj
 0002:00030050       ?DoHillClimbing@SchedulerProxy@details@Concurrency@@QAEIIIII@Z 100b4050 f i libconcrtd:ResourceManager.obj
 0002:00030090       ?DynamicAssignCores@ResourceManager@details@Concurrency@@AAEXPAVSchedulerProxy@23@II_N@Z 100b4090 f   libconcrtd:ResourceManager.obj
 0002:00030320       ?DynamicMigrateCores@ResourceManager@details@Concurrency@@AAEXPAUDynamicAllocationData@23@PAVSchedulerProxy@23@II@Z 100b4320 f   libconcrtd:ResourceManager.obj
 0002:00030990       ?DynamicRMThreadProc@ResourceManager@details@Concurrency@@CGKPAX@Z 100b4990 f   libconcrtd:ResourceManager.obj
 0002:000309c0       ?DynamicResourceManager@ResourceManager@details@Concurrency@@AAEXXZ 100b49c0 f   libconcrtd:ResourceManager.obj
 0002:00030cc0       ?Empty@?$List@VSchedulerProxy@details@Concurrency@@VCount@CollectionTypes@23@@details@Concurrency@@QBE_NXZ 100b4cc0 f i libconcrtd:ResourceManager.obj
 0002:00030d00       ?FindBestFitExclusiveAllocation@ResourceManager@details@Concurrency@@AAEIAAI0PAUDynamicAllocationData@23@II@Z 100b4d00 f   libconcrtd:ResourceManager.obj
 0002:00031c50       ?FindBestFitIdleAllocation@ResourceManager@details@Concurrency@@AAEIIPAUDynamicAllocationData@23@I@Z 100b5c50 f   libconcrtd:ResourceManager.obj
 0002:00032180       ?FindCoreForPartiallyFilledNode@ResourceManager@details@Concurrency@@AAE_NAAI0PAUDynamicAllocationData@23@I@Z 100b6180 f   libconcrtd:ResourceManager.obj
 0002:00032510       ?FindGroupAffinity@AffinityRestriction@ResourceManager@details@Concurrency@@QAEPAUHardwareAffinity@34@G@Z 100b6510 f i libconcrtd:ResourceManager.obj
 0002:00032590       ?First@?$List@VSchedulerProxy@details@Concurrency@@VCount@CollectionTypes@23@@details@Concurrency@@QBEPAVSchedulerProxy@23@XZ 100b6590 f i libconcrtd:ResourceManager.obj
 0002:000325d0       ?FlushStoreBuffers@ResourceManager@details@Concurrency@@QAEXXZ 100b65d0 f   libconcrtd:ResourceManager.obj
 0002:00032710       ?GetAllocatedNodes@SchedulerProxy@details@Concurrency@@QBEPAUSchedulerNode@23@XZ 100b6710 f i libconcrtd:ResourceManager.obj
 0002:00032730       ?GetAvailableNodeCount@ResourceManager@details@Concurrency@@UBEIXZ 100b6730 f i libconcrtd:ResourceManager.obj
 0002:00032750       ?GetCoreCount@ResourceManager@details@Concurrency@@SAIXZ 100b6750 f   libconcrtd:ResourceManager.obj
 0002:000327f0       ?GetCurrentNodeAndCore@ResourceManager@details@Concurrency@@QAEIPAI@Z 100b67f0 f   libconcrtd:ResourceManager.obj
 0002:00032a80       ?GetDynamicAllocationData@SchedulerProxy@details@Concurrency@@QAEPAUDynamicAllocationData@23@XZ 100b6a80 f i libconcrtd:ResourceManager.obj
 0002:00032aa0       ?GetExecutionContextId@Concurrency@@YAIXZ 100b6aa0 f   libconcrtd:ResourceManager.obj
 0002:00032ab0       ?GetExecutionContextId@ResourceManager@details@Concurrency@@SAIXZ 100b6ab0 f i libconcrtd:ResourceManager.obj
 0002:00032ad0       ?GetExecutionResourceCount@TopologyObject@GlobalNode@details@Concurrency@@UBEIXZ 100b6ad0 f i libconcrtd:ResourceManager.obj
 0002:00032af0       ?GetFirstExecutionResource@TopologyObject@GlobalNode@details@Concurrency@@UBEPAUITopologyExecutionResource@4@XZ 100b6af0 f i libconcrtd:ResourceManager.obj
 0002:00032b10       ?GetFirstNode@ResourceManager@details@Concurrency@@UBEPAUITopologyNode@3@XZ 100b6b10 f i libconcrtd:ResourceManager.obj
 0002:00032b30       ?GetGroup@HardwareAffinity@details@Concurrency@@QAEGXZ 100b6b30 f i libconcrtd:ResourceManager.obj
 0002:00032b50       ?GetId@TopologyObject@GlobalCore@details@Concurrency@@UBEIXZ 100b6b50 f i libconcrtd:ResourceManager.obj
 0002:00032b70       ?GetId@TopologyObject@GlobalNode@details@Concurrency@@UBEIXZ 100b6b70 f i libconcrtd:ResourceManager.obj
 0002:00032b90       ?GetMask@HardwareAffinity@details@Concurrency@@QAEKXZ 100b6b90 f i libconcrtd:ResourceManager.obj
 0002:00032bb0       ?GetNext@TopologyObject@GlobalCore@details@Concurrency@@UBEPAUITopologyExecutionResource@4@XZ 100b6bb0 f   libconcrtd:ResourceManager.obj
 0002:00032c00       ?GetNext@TopologyObject@GlobalNode@details@Concurrency@@UBEPAUITopologyNode@4@XZ 100b6c00 f   libconcrtd:ResourceManager.obj
 0002:00032c50       ?GetNextGlobalCore@GlobalNode@details@Concurrency@@QAEPAUGlobalCore@23@PBU423@@Z 100b6c50 f i libconcrtd:ResourceManager.obj
 0002:00032cb0       ?GetNextGlobalNode@ResourceManager@details@Concurrency@@QAEPAUGlobalNode@23@PBU423@@Z 100b6cb0 f i libconcrtd:ResourceManager.obj
 0002:00032d10       ?GetNodeCount@ResourceManager@details@Concurrency@@SAIXZ 100b6d10 f   libconcrtd:ResourceManager.obj
 0002:00032db0       ?GetNumAllocatedCores@SchedulerProxy@details@Concurrency@@QBEIXZ 100b6db0 f i libconcrtd:ResourceManager.obj
 0002:00032dd0       ?GetNumBorrowedCores@SchedulerNode@details@Concurrency@@QAEIXZ 100b6dd0 f i libconcrtd:ResourceManager.obj
 0002:00032df0       ?GetNumBorrowedCores@SchedulerProxy@details@Concurrency@@QBEIXZ 100b6df0 f i libconcrtd:ResourceManager.obj
 0002:00032e10       ?GetNumBorrowedIdleCores@SchedulerNode@details@Concurrency@@QAEIXZ 100b6e10 f i libconcrtd:ResourceManager.obj
 0002:00032e30       ?GetNumBorrowedInUseCores@SchedulerNode@details@Concurrency@@QAEIXZ 100b6e30 f i libconcrtd:ResourceManager.obj
 0002:00032ea0       ?GetNumExternalThreads@SchedulerProxy@details@Concurrency@@QAEIXZ 100b6ea0 f i libconcrtd:ResourceManager.obj
 0002:00032ec0       ?GetNumMigratableCores@SchedulerNode@details@Concurrency@@QAEIXZ 100b6ec0 f i libconcrtd:ResourceManager.obj
 0002:00032ee0       ?GetNumNestedThreadSubscriptions@SchedulerProxy@details@Concurrency@@QAEIXZ 100b6ee0 f i libconcrtd:ResourceManager.obj
 0002:00032f00       ?GetNumOwnedCores@SchedulerProxy@details@Concurrency@@QBEIXZ 100b6f00 f i libconcrtd:ResourceManager.obj
 0002:00032f30       ?GetNumOwnedMigratableCores@SchedulerNode@details@Concurrency@@QAEIXZ 100b6f30 f i libconcrtd:ResourceManager.obj
 0002:00032f60       ?GetNumaNode@TopologyObject@GlobalNode@details@Concurrency@@UBEKXZ 100b6f60 f i libconcrtd:ResourceManager.obj
 0002:00032f80       ?GetOSVersion@Concurrency@@YA?AW4OSVersion@IResourceManager@1@XZ 100b6f80 f   libconcrtd:ResourceManager.obj
 0002:00032f90       ?GetProcessorCount@Concurrency@@YAIXZ 100b6f90 f   libconcrtd:ResourceManager.obj
 0002:00032fa0       ?GetProcessorNodeCount@Concurrency@@YAIXZ 100b6fa0 f   libconcrtd:ResourceManager.obj
 0002:00032fb0       ?GetQueueLength@SchedulerProxy@details@Concurrency@@QAEIXZ 100b6fb0 f i libconcrtd:ResourceManager.obj
 0002:00032fd0       ?GetSchedulerId@Concurrency@@YAIXZ 100b6fd0 f   libconcrtd:ResourceManager.obj
 0002:00032fe0       ?GetSchedulerId@ResourceManager@details@Concurrency@@SAIXZ 100b6fe0 f i libconcrtd:ResourceManager.obj
 0002:00033000       ?GetSchedulerProxy@ExecutionResource@details@Concurrency@@QAEPAVSchedulerProxy@23@XZ 100b7000 f i libconcrtd:ResourceManager.obj
 0002:00033020       ?GetSortedNodeOrder@SchedulerProxy@details@Concurrency@@QBEPAIXZ 100b7020 f i libconcrtd:ResourceManager.obj
 0002:00033040       ?GetStaticAllocationData@SchedulerProxy@details@Concurrency@@QAEPAUStaticAllocationData@23@XZ 100b7040 f i libconcrtd:ResourceManager.obj
 0002:00033060       ?GetTopologyInformation@ResourceManager@details@Concurrency@@CAXW4_LOGICAL_PROCESSOR_RELATIONSHIP@@@Z 100b7060 f   libconcrtd:ResourceManager.obj
 0002:00033140       ?HandleBorrowedCores@ResourceManager@details@Concurrency@@AAEXPAVSchedulerProxy@23@PAUAllocationData@23@@Z 100b7140 f   libconcrtd:ResourceManager.obj
 0002:000334c0       ?HandleSharedCores@ResourceManager@details@Concurrency@@AAEXPAVSchedulerProxy@23@PAUDynamicAllocationData@23@@Z 100b74c0 f   libconcrtd:ResourceManager.obj
 0002:000338c0       ?IncreaseFullyLoadedSchedulerAllocations@ResourceManager@details@Concurrency@@AAEXXZ 100b78c0 f   libconcrtd:ResourceManager.obj
 0002:000339e0       ?Increment@Count@CollectionTypes@details@Concurrency@@QAEXXZ 100b79e0 f i libconcrtd:ResourceManager.obj
 0002:00033a00       ?Initialize@GlobalCore@details@Concurrency@@QAEXPAUGlobalNode@23@IE@Z 100b7a00 f i libconcrtd:ResourceManager.obj
 0002:00033ae0       ?Initialize@GlobalNode@details@Concurrency@@QAEXPAVResourceManager@23@GGKII@Z 100b7ae0 f i libconcrtd:ResourceManager.obj
 0002:00033df0       ?Initialize@GlobalNumaNode@details@Concurrency@@QAEXKGK@Z 100b7df0 f i libconcrtd:ResourceManager.obj
 0002:00033e30       ?InitializeRMBuffers@ResourceManager@details@Concurrency@@AAEXXZ 100b7e30 f   libconcrtd:ResourceManager.obj
 0002:000340b0       ?InitializeSystemInformation@ResourceManager@details@Concurrency@@CAX_N@Z 100b80b0 f   libconcrtd:ResourceManager.obj
 0002:00034710       ?IntersectWith@HardwareAffinity@details@Concurrency@@QAEXK@Z 100b8710 f i libconcrtd:ResourceManager.obj
 0002:00034730       ?IsBorrowed@SchedulerCore@details@Concurrency@@QAE_NXZ 100b8730 f i libconcrtd:ResourceManager.obj
 0002:00034750       ?IsFixed@SchedulerCore@details@Concurrency@@QAE_NXZ 100b8750 f i libconcrtd:ResourceManager.obj
 0002:00034790       ?IsHillClimbingEnabled@SchedulerProxy@details@Concurrency@@QAE_NXZ 100b8790 f i libconcrtd:ResourceManager.obj
 0002:000347b0       ?IsIdle@SchedulerCore@details@Concurrency@@QAE_NXZ 100b87b0 f i libconcrtd:ResourceManager.obj
 0002:000347d0       ?MinHWThreads@SchedulerProxy@details@Concurrency@@QBEIXZ 100b87d0 f i libconcrtd:ResourceManager.obj
 0002:00034850       ?MinVprocHWThreads@SchedulerProxy@details@Concurrency@@QBEIXZ 100b8850 f i libconcrtd:ResourceManager.obj
 0002:00034900       ?Next@?$List@VSchedulerProxy@details@Concurrency@@VCount@CollectionTypes@23@@details@Concurrency@@QBEPAVSchedulerProxy@23@PAV423@@Z 100b8900 f i libconcrtd:ResourceManager.obj
 0002:00034940       ?NumberOfBitsSet@details@Concurrency@@YAGK@Z 100b8940 f i libconcrtd:ResourceManager.obj
 0002:00034980       ?PerformAllocation@ResourceManager@details@Concurrency@@QAEPAVExecutionResource@23@PAVSchedulerProxy@23@_N1@Z 100b8980 f   libconcrtd:ResourceManager.obj
 0002:00035000       ?PopulateCommonAllocationData@ResourceManager@details@Concurrency@@AAEXIPAVSchedulerProxy@23@PAUAllocationData@23@@Z 100b9000 f   libconcrtd:ResourceManager.obj
 0002:00035150       ?PopulateDynamicAllocationData@ResourceManager@details@Concurrency@@AAEXXZ 100b9150 f   libconcrtd:ResourceManager.obj
 0002:00035510       ?PreProcessDynamicAllocationData@ResourceManager@details@Concurrency@@AAEXXZ 100b9510 f   libconcrtd:ResourceManager.obj
 0002:00035830       ?PreProcessStaticAllocationData@ResourceManager@details@Concurrency@@AAEXXZ 100b9830 f   libconcrtd:ResourceManager.obj
 0002:00035910       ?PrepareReceiversForCoreTransfer@ResourceManager@details@Concurrency@@AAEII@Z 100b9910 f   libconcrtd:ResourceManager.obj
 0002:00035e00       ?RedistributeCoresAmongAll@ResourceManager@details@Concurrency@@AAEIPAVSchedulerProxy@23@III@Z 100b9e00 f   libconcrtd:ResourceManager.obj
 0002:00036af0       ?Reference@ResourceManager@details@Concurrency@@UAEIXZ 100baaf0 f   libconcrtd:ResourceManager.obj
 0002:00036b20       ?RegisterScheduler@ResourceManager@details@Concurrency@@UAEPAUISchedulerProxy@3@PAUIScheduler@3@I@Z 100bab20 f   libconcrtd:ResourceManager.obj
 0002:00036ba0       ?Release@ResourceManager@details@Concurrency@@UAEIXZ 100baba0 f   libconcrtd:ResourceManager.obj
 0002:00036d70       ?ReleaseCoresOnExistingSchedulers@ResourceManager@details@Concurrency@@AAEIPAVSchedulerProxy@23@II@Z 100bad70 f   libconcrtd:ResourceManager.obj
 0002:00036f20       ?ReleaseSchedulerResources@ResourceManager@details@Concurrency@@AAE_NPAVSchedulerProxy@23@0I@Z 100baf20 f   libconcrtd:ResourceManager.obj
 0002:00037630       ?Remove@?$List@VSchedulerProxy@details@Concurrency@@VCount@CollectionTypes@23@@details@Concurrency@@QAEXPAVSchedulerProxy@23@@Z 100bb630 f i libconcrtd:ResourceManager.obj
 0002:00037710       ?RemoveExecutionResource@ResourceManager@details@Concurrency@@QAEXPAVExecutionResource@23@@Z 100bb710 f   libconcrtd:ResourceManager.obj
 0002:00037840       ?RequestInitialVirtualProcessors@ResourceManager@details@Concurrency@@QAEPAUIExecutionResource@3@PAVSchedulerProxy@23@_N@Z 100bb840 f   libconcrtd:ResourceManager.obj
 0002:00037bb0       ?ReserveAtHigherUseCounts@ResourceManager@details@Concurrency@@AAEIPAVSchedulerProxy@23@I@Z 100bbbb0 f   libconcrtd:ResourceManager.obj
 0002:00037c20       ?ReserveCores@ResourceManager@details@Concurrency@@AAEIPAVSchedulerProxy@23@II@Z 100bbc20 f   libconcrtd:ResourceManager.obj
 0002:000380f0       ?ResetGlobalAllocationData@ResourceManager@details@Concurrency@@AAEXXZ 100bc0f0 f   libconcrtd:ResourceManager.obj
 0002:000381a0       ?RetrieveSystemVersionInformation@ResourceManager@details@Concurrency@@CAXXZ 100bc1a0 f   libconcrtd:ResourceManager.obj
 0002:00038350       ?RoundUpScaledAllocations@ResourceManager@details@Concurrency@@CAXPAPAUAllocationData@23@II@Z 100bc350 f   libconcrtd:ResourceManager.obj
 0002:00038a10       ?SafeInterlockedIncrement@details@Concurrency@@YA_NPCJ@Z 100bca10 f i libconcrtd:ResourceManager.obj
 0002:00038a50       ?SafeReference@ResourceManager@details@Concurrency@@AAE_NXZ 100bca50 f   libconcrtd:ResourceManager.obj
 0002:00038a70       ?Scheduler@SchedulerProxy@details@Concurrency@@QBEPAUIScheduler@3@XZ 100bca70 f i libconcrtd:ResourceManager.obj
 0002:00038a90       ?SchedulersNeedNotifications@ResourceManager@details@Concurrency@@QAE_NXZ 100bca90 f i libconcrtd:ResourceManager.obj
 0002:00038ad0       ?SendResourceNotifications@ResourceManager@details@Concurrency@@QAEXPAVSchedulerProxy@23@@Z 100bcad0 f   libconcrtd:ResourceManager.obj
 0002:00038e60       ?SetAllocatedNodes@SchedulerProxy@details@Concurrency@@QAEXPAUSchedulerNode@23@@Z 100bce60 f i libconcrtd:ResourceManager.obj
 0002:00038ed0       ?SetQueueLength@SchedulerProxy@details@Concurrency@@QAEXI@Z 100bced0 f i libconcrtd:ResourceManager.obj
 0002:00038ef0       ?SetTaskExecutionResources@ResourceManager@details@Concurrency@@SAXGPAU_GROUP_AFFINITY@@@Z 100bcef0 f   libconcrtd:ResourceManager.obj
 0002:00039570       ?SetTaskExecutionResources@ResourceManager@details@Concurrency@@SAXK@Z 100bd570 f   libconcrtd:ResourceManager.obj
 0002:00039820       ?SetupStaticAllocationData@ResourceManager@details@Concurrency@@AAEXPAVSchedulerProxy@23@_N@Z 100bd820 f   libconcrtd:ResourceManager.obj
 0002:000399d0       ?ShouldReceiveNotifications@SchedulerProxy@details@Concurrency@@QAE_NXZ 100bd9d0 f i libconcrtd:ResourceManager.obj
 0002:00039a20       ?Shutdown@ResourceManager@details@Concurrency@@QAEXPAVSchedulerProxy@23@@Z 100bda20 f   libconcrtd:ResourceManager.obj
 0002:00039c90       ?SubscribeCurrentThread@ResourceManager@details@Concurrency@@QAEPAVExecutionResource@23@PAVSchedulerProxy@23@@Z 100bdc90 f   libconcrtd:ResourceManager.obj
 0002:00039d40       ?ToggleRMIdleState@ResourceManager@details@Concurrency@@AAEXPAUSchedulerNode@23@PAUSchedulerCore@23@PAUGlobalNode@23@PAUGlobalCore@23@PAUAllocationData@23@@Z 100bdd40 f   libconcrtd:ResourceManager.obj
 0002:00039f30       ?ValidateBorrowedCores@ResourceManager@details@Concurrency@@AAEXXZ 100bdf30 f   libconcrtd:ResourceManager.obj
 0002:0003a080       ?ValidateDRMSchedulerState@ResourceManager@details@Concurrency@@AAEXXZ 100be080 f   libconcrtd:ResourceManager.obj
 0002:0003a120       ?ValidateStaticSchedulerState@ResourceManager@details@Concurrency@@AAEXPAVSchedulerProxy@23@@Z 100be120 f   libconcrtd:ResourceManager.obj
 0002:0003a220       ?Value@Count@CollectionTypes@details@Concurrency@@QBEHXZ 100be220 f i libconcrtd:ResourceManager.obj
 0002:0003a240       ?Version@ResourceManager@details@Concurrency@@SA?AW4OSVersion@IResourceManager@3@XZ 100be240 f   libconcrtd:ResourceManager.obj
 0002:0003a2d0       ?WakeupDynamicRMWorker@ResourceManager@details@Concurrency@@QAEXXZ 100be2d0 f i libconcrtd:ResourceManager.obj
 0002:0003a2f0       ?set_task_execution_resources@Concurrency@@YAXGPAU_GROUP_AFFINITY@@@Z 100be2f0 f   libconcrtd:ResourceManager.obj
 0002:0003a310       ?set_task_execution_resources@Concurrency@@YAXK@Z 100be310 f   libconcrtd:ResourceManager.obj
 0002:0003a330       ??$_InternalDeleteHelper@VExternalContextBase@details@Concurrency@@@details@Concurrency@@YAXPAVExternalContextBase@01@@Z 100be330 f i libconcrtd:SchedulerBase.obj
 0002:0003a390       ??$_InternalDeleteHelper@VExternalStatistics@details@Concurrency@@@details@Concurrency@@YAXPAVExternalStatistics@01@@Z 100be390 f i libconcrtd:SchedulerBase.obj
 0002:0003a3c0       ??$_InternalDeleteHelper@VInternalContextBase@details@Concurrency@@@details@Concurrency@@YAXPAVInternalContextBase@01@@Z 100be3c0 f i libconcrtd:SchedulerBase.obj
 0002:0003a420       ??$_InternalDeleteHelper@VScheduleGroupBase@details@Concurrency@@@details@Concurrency@@YAXPAVScheduleGroupBase@01@@Z 100be420 f i libconcrtd:SchedulerBase.obj
 0002:0003a480       ??0?$Hash@II@details@Concurrency@@QAE@H@Z 100be480 f i libconcrtd:SchedulerBase.obj
 0002:0003a520       ??0?$List@UBoostedObject@details@Concurrency@@VNoCount@CollectionTypes@23@@details@Concurrency@@QAE@XZ 100be520 f i libconcrtd:SchedulerBase.obj
 0002:0003a540       ??0?$List@VWaitNode@SchedulerBase@details@Concurrency@@VNoCount@CollectionTypes@34@@details@Concurrency@@QAE@XZ 100be540 f i libconcrtd:SchedulerBase.obj
 0002:0003a560       ??0?$ListArray@VExternalStatistics@details@Concurrency@@@details@Concurrency@@QAE@PAVSchedulerBase@12@HH@Z 100be560 f i libconcrtd:SchedulerBase.obj
 0002:0003a810       ??0?$ListArray@VScheduleGroupBase@details@Concurrency@@@details@Concurrency@@QAE@PAVSchedulerBase@12@HH@Z 100be810 f i libconcrtd:SchedulerBase.obj
 0002:0003aac0       ??0?$LockFreePushStack@VContextNode@SchedulerBase@details@Concurrency@@@details@Concurrency@@QAE@XZ 100beac0 f i libconcrtd:SchedulerBase.obj
 0002:0003aae0       ??0?$LockFreeStack@VExternalContextBase@details@Concurrency@@@details@Concurrency@@QAE@XZ 100beae0 f i libconcrtd:SchedulerBase.obj
 0002:0003ab00       ??0?$LockFreeStack@VInternalContextBase@details@Concurrency@@@details@Concurrency@@QAE@XZ 100beb00 f i libconcrtd:SchedulerBase.obj
 0002:0003ab20       ??0?$LockFreeStack@VRealizedChore@details@Concurrency@@@details@Concurrency@@QAE@XZ 100beb20 f i libconcrtd:SchedulerBase.obj
 0002:0003ab40       ??0?$SQueue@VInternalContextBase@details@Concurrency@@@details@Concurrency@@QAE@XZ 100beb40 f i libconcrtd:SchedulerBase.obj
 0002:0003ab70       ??0?$SQueue@VSafePointInvocation@details@Concurrency@@@details@Concurrency@@QAE@XZ 100beb70 f i libconcrtd:SchedulerBase.obj
 0002:0003aba0       ??0?$SafeRWList@UBoostedObject@details@Concurrency@@VNoCount@CollectionTypes@23@V_ReaderWriterLock@23@@details@Concurrency@@QAE@XZ 100beba0 f i libconcrtd:SchedulerBase.obj
 0002:0003abd0       ??0?$SafeRWList@VWaitNode@SchedulerBase@details@Concurrency@@VNoCount@CollectionTypes@34@V_ReaderWriterLock@34@@details@Concurrency@@QAE@XZ 100bebd0 f i libconcrtd:SchedulerBase.obj
 0002:0003ac00       ??0?$SafeSQueue@VInternalContextBase@details@Concurrency@@V_HyperNonReentrantLock@23@@details@Concurrency@@QAE@XZ 100bec00 f i libconcrtd:SchedulerBase.obj
 0002:0003ac30       ??0?$SafeSQueue@VSafePointInvocation@details@Concurrency@@V_HyperNonReentrantLock@23@@details@Concurrency@@QAE@XZ 100bec30 f i libconcrtd:SchedulerBase.obj
 0002:0003ac60       ??0ArrayNode@?$ListArray@VExternalStatistics@details@Concurrency@@@details@Concurrency@@QAE@PAPAVExternalStatistics@23@@Z 100bec60 f i libconcrtd:SchedulerBase.obj
 0002:0003aca0       ??0ArrayNode@?$ListArray@VScheduleGroupBase@details@Concurrency@@@details@Concurrency@@QAE@PAPAVScheduleGroupBase@23@@Z 100beca0 f i libconcrtd:SchedulerBase.obj
 0002:0003ace0       ??0CacheLocalScheduleGroup@details@Concurrency@@QAE@PAVSchedulerBase@12@PAVlocation@2@@Z 100bece0 f i libconcrtd:SchedulerBase.obj
 0002:0003ad20       ??0CacheLocalScheduleGroupSegment@details@Concurrency@@QAE@PAVScheduleGroupBase@12@PAVSchedulingRing@12@PAVlocation@2@@Z 100bed20 f i libconcrtd:SchedulerBase.obj
 0002:0003adb0       ??0ClaimTicket@VirtualProcessor@details@Concurrency@@QAE@XZ 100bedb0 f i libconcrtd:SchedulerBase.obj
 0002:0003add0       ??0ContextNode@SchedulerBase@details@Concurrency@@QAE@PAVInternalContextBase@23@@Z 100bedd0 f i libconcrtd:SchedulerBase.obj
 0002:0003adf0       ??0FairScheduleGroup@details@Concurrency@@QAE@PAVSchedulerBase@12@PAVlocation@2@@Z 100bedf0 f i libconcrtd:SchedulerBase.obj
 0002:0003aed0       ??0FairScheduleGroupSegment@details@Concurrency@@QAE@PAVScheduleGroupBase@12@PAVSchedulingRing@12@PAVlocation@2@@Z 100beed0 f i libconcrtd:SchedulerBase.obj
 0002:0003af60       ??0ListNode@?$Hash@II@details@Concurrency@@QAE@ABI0@Z 100bef60 f i libconcrtd:SchedulerBase.obj
 0002:0003afa0       ??0NumaInformation@SchedulerBase@details@Concurrency@@QAE@XZ 100befa0 f i libconcrtd:SchedulerBase.obj
 0002:0003b010       ??0QuickBitSet@details@Concurrency@@QAE@$$QAV012@@Z 100bf010 f i libconcrtd:SchedulerBase.obj
 0002:0003b060       ??0QuickBitSet@details@Concurrency@@QAE@I@Z 100bf060 f i libconcrtd:SchedulerBase.obj
 0002:0003b100       ??0QuickBitSet@details@Concurrency@@QAE@XZ 100bf100 f i libconcrtd:SchedulerBase.obj
 0002:0003b130       ??0RealizedChore@details@Concurrency@@QAE@P6AXPAX@Z0@Z 100bf130 f i libconcrtd:SchedulerBase.obj
 0002:0003b1c0       ??0ReferenceCountedQuickBitSet@details@Concurrency@@QAE@XZ 100bf1c0 f i libconcrtd:SchedulerBase.obj
 0002:0003b1f0       ??0Scheduler@Concurrency@@IAE@XZ 100bf1f0 f i libconcrtd:SchedulerBase.obj
 0002:0003b210       ??0SchedulerBase@details@Concurrency@@QAE@ABVSchedulerPolicy@2@@Z 100bf210 f   libconcrtd:SchedulerBase.obj
 0002:0003b7b0       ??0Slot@?$Mailbox@V_UnrealizedChore@details@Concurrency@@@details@Concurrency@@QAE@XZ 100bf7b0 f i libconcrtd:SchedulerBase.obj
 0002:0003b7e0       ??0SubAllocator@details@Concurrency@@QAE@XZ 100bf7e0 f i libconcrtd:SchedulerBase.obj
 0002:0003b820       ??0_Chore@details@Concurrency@@IAE@XZ 100bf820 f i libconcrtd:SchedulerBase.obj
 0002:0003b840       ??0_HyperNonReentrantLock@details@Concurrency@@QAE@XZ 100bf840 f i libconcrtd:SchedulerBase.obj
 0002:0003b860       ??0_NonReentrantLock@details@Concurrency@@QAE@XZ 100bf860 f i libconcrtd:SchedulerBase.obj
 0002:0003b880       ??0_Scoped_lock@_HyperNonReentrantLock@details@Concurrency@@QAE@AAV123@@Z 100bf880 f i libconcrtd:SchedulerBase.obj
 0002:0003b8b0       ??0_Scoped_lock@_ReaderWriterLock@details@Concurrency@@QAE@AAV123@@Z 100bf8b0 f i libconcrtd:SchedulerBase.obj
 0002:0003b8e0       ??0default_scheduler_exists@Concurrency@@QAE@ABV01@@Z 100bf8e0 f i libconcrtd:SchedulerBase.obj
 0002:0003b910       ??0improper_scheduler_attach@Concurrency@@QAE@ABV01@@Z 100bf910 f i libconcrtd:SchedulerBase.obj
 0002:0003b940       ??0improper_scheduler_detach@Concurrency@@QAE@ABV01@@Z 100bf940 f i libconcrtd:SchedulerBase.obj
 0002:0003b970       ??0improper_scheduler_reference@Concurrency@@QAE@ABV01@@Z 100bf970 f i libconcrtd:SchedulerBase.obj
 0002:0003b9a0       ??0location@Concurrency@@QAE@ABV01@@Z 100bf9a0 f i libconcrtd:SchedulerBase.obj
 0002:0003b9d0       ??0location@Concurrency@@QAE@XZ 100bf9d0 f i libconcrtd:SchedulerBase.obj
 0002:0003ba30       ??1?$Hash@II@details@Concurrency@@QAE@XZ 100bfa30 f i libconcrtd:SchedulerBase.obj
 0002:0003baa0       ??1?$ListArray@VExternalStatistics@details@Concurrency@@@details@Concurrency@@QAE@XZ 100bfaa0 f i libconcrtd:SchedulerBase.obj
 0002:0003bbf0       ??1?$ListArray@VScheduleGroupBase@details@Concurrency@@@details@Concurrency@@QAE@XZ 100bfbf0 f i libconcrtd:SchedulerBase.obj
 0002:0003bd40       ??1?$LockFreePushStack@VContextNode@SchedulerBase@details@Concurrency@@@details@Concurrency@@QAE@XZ 100bfd40 f i libconcrtd:SchedulerBase.obj
 0002:0003bda0       ??1CacheLocalScheduleGroup@details@Concurrency@@UAE@XZ 100bfda0 f i libconcrtd:SchedulerBase.obj
 0002:0003bdc0       ??1CacheLocalScheduleGroupSegment@details@Concurrency@@UAE@XZ 100bfdc0 f i libconcrtd:SchedulerBase.obj
 0002:0003bde0       ??1FairScheduleGroup@details@Concurrency@@UAE@XZ 100bfde0 f i libconcrtd:SchedulerBase.obj
 0002:0003be00       ??1FairScheduleGroupSegment@details@Concurrency@@UAE@XZ 100bfe00 f i libconcrtd:SchedulerBase.obj
 0002:0003be20       ??1NumaInformation@SchedulerBase@details@Concurrency@@QAE@XZ 100bfe20 f i libconcrtd:SchedulerBase.obj
 0002:0003be50       ??1QuickBitSet@details@Concurrency@@QAE@XZ 100bfe50 f i libconcrtd:SchedulerBase.obj
 0002:0003be80       ??1RealizedChore@details@Concurrency@@UAE@XZ 100bfe80 f i libconcrtd:SchedulerBase.obj
 0002:0003bea0       ??1ReferenceCountedQuickBitSet@details@Concurrency@@QAE@XZ 100bfea0 f i libconcrtd:SchedulerBase.obj
 0002:0003bee0       ??1ScheduleGroup@Concurrency@@MAE@XZ 100bfee0 f i libconcrtd:SchedulerBase.obj
 0002:0003bf00       ??1ScheduleGroupBase@details@Concurrency@@UAE@XZ 100bff00 f i libconcrtd:SchedulerBase.obj
 0002:0003bf30       ??1Scheduler@Concurrency@@MAE@XZ 100bff30 f i libconcrtd:SchedulerBase.obj
 0002:0003bf50       ??1SchedulerBase@details@Concurrency@@UAE@XZ 100bff50 f   libconcrtd:SchedulerBase.obj
 0002:0003c060       ??1SubAllocator@details@Concurrency@@QAE@XZ 100c0060 f i libconcrtd:SchedulerBase.obj
 0002:0003c0c0       ??1_Chore@details@Concurrency@@MAE@XZ 100c00c0 f i libconcrtd:SchedulerBase.obj
 0002:0003c0e0       ??1_Scoped_lock@_HyperNonReentrantLock@details@Concurrency@@QAE@XZ 100c00e0 f i libconcrtd:SchedulerBase.obj
 0002:0003c130       ??1_Scoped_lock@_ReaderWriterLock@details@Concurrency@@QAE@XZ 100c0130 f i libconcrtd:SchedulerBase.obj
 0002:0003c180       ??1location@Concurrency@@QAE@XZ 100c0180 f i libconcrtd:SchedulerBase.obj
 0002:0003c190       ??4QuickBitSet@details@Concurrency@@QAEAAV012@ABV012@@Z 100c0190 f i libconcrtd:SchedulerBase.obj
 0002:0003c1c0       ??A?$ListArray@VExternalStatistics@details@Concurrency@@@details@Concurrency@@QBEPAVExternalStatistics@12@H@Z 100c01c0 f i libconcrtd:SchedulerBase.obj
 0002:0003c290       ??A?$ListArray@VScheduleGroupSegmentBase@details@Concurrency@@@details@Concurrency@@QBEPAVScheduleGroupSegmentBase@12@H@Z 100c0290 f i libconcrtd:SchedulerBase.obj
 0002:0003c360       ??A?$ListArray@VVirtualProcessor@details@Concurrency@@@details@Concurrency@@QBEPAVVirtualProcessor@12@H@Z 100c0360 f i libconcrtd:SchedulerBase.obj
 0002:0003c430       ??_ENumaInformation@SchedulerBase@details@Concurrency@@QAEPAXI@Z 100c0430 f i libconcrtd:SchedulerBase.obj
 0002:0003c500       ??_ECacheLocalScheduleGroup@details@Concurrency@@UAEPAXI@Z 100c0500 f i libconcrtd:SchedulerBase.obj
 0002:0003c500       ??_GCacheLocalScheduleGroup@details@Concurrency@@UAEPAXI@Z 100c0500 f i libconcrtd:SchedulerBase.obj
 0002:0003c540       ??_GCacheLocalScheduleGroupSegment@details@Concurrency@@UAEPAXI@Z 100c0540 f i libconcrtd:SchedulerBase.obj
 0002:0003c540       ??_ECacheLocalScheduleGroupSegment@details@Concurrency@@UAEPAXI@Z 100c0540 f i libconcrtd:SchedulerBase.obj
 0002:0003c580       ??_EFairScheduleGroup@details@Concurrency@@UAEPAXI@Z 100c0580 f i libconcrtd:SchedulerBase.obj
 0002:0003c580       ??_GFairScheduleGroup@details@Concurrency@@UAEPAXI@Z 100c0580 f i libconcrtd:SchedulerBase.obj
 0002:0003c5c0       ??_GFairScheduleGroupSegment@details@Concurrency@@UAEPAXI@Z 100c05c0 f i libconcrtd:SchedulerBase.obj
 0002:0003c5c0       ??_EFairScheduleGroupSegment@details@Concurrency@@UAEPAXI@Z 100c05c0 f i libconcrtd:SchedulerBase.obj
 0002:0003c600       ??_ERealizedChore@details@Concurrency@@UAEPAXI@Z 100c0600 f i libconcrtd:SchedulerBase.obj
 0002:0003c600       ??_GRealizedChore@details@Concurrency@@UAEPAXI@Z 100c0600 f i libconcrtd:SchedulerBase.obj
 0002:0003c640       ??_GScheduleGroup@Concurrency@@MAEPAXI@Z 100c0640 f i libconcrtd:SchedulerBase.obj
 0002:0003c640       ??_EScheduleGroup@Concurrency@@MAEPAXI@Z 100c0640 f i libconcrtd:SchedulerBase.obj
 0002:0003c680       ??_GScheduleGroupBase@details@Concurrency@@UAEPAXI@Z 100c0680 f i libconcrtd:SchedulerBase.obj
 0002:0003c680       ??_EScheduleGroupBase@details@Concurrency@@UAEPAXI@Z 100c0680 f i libconcrtd:SchedulerBase.obj
 0002:0003c6c0       ??_EScheduler@Concurrency@@MAEPAXI@Z 100c06c0 f i libconcrtd:SchedulerBase.obj
 0002:0003c6c0       ??_GScheduler@Concurrency@@MAEPAXI@Z 100c06c0 f i libconcrtd:SchedulerBase.obj
 0002:0003c700       ??_ESchedulerBase@details@Concurrency@@UAEPAXI@Z 100c0700 f i libconcrtd:SchedulerBase.obj
 0002:0003c700       ??_GSchedulerBase@details@Concurrency@@UAEPAXI@Z 100c0700 f i libconcrtd:SchedulerBase.obj
 0002:0003c740       ??_GSchedulerPolicy@Concurrency@@QAEPAXI@Z 100c0740 f i libconcrtd:SchedulerBase.obj
 0002:0003c780       ??_GSchedulingNode@details@Concurrency@@QAEPAXI@Z 100c0780 f i libconcrtd:SchedulerBase.obj
 0002:0003c7c0       ??_GSchedulingRing@details@Concurrency@@QAEPAXI@Z 100c07c0 f i libconcrtd:SchedulerBase.obj
 0002:0003c800       ??_GSubAllocator@details@Concurrency@@QAEPAXI@Z 100c0800 f i libconcrtd:SchedulerBase.obj
 0002:0003c840       ??_E_Chore@details@Concurrency@@MAEPAXI@Z 100c0840 f i libconcrtd:SchedulerBase.obj
 0002:0003c840       ??_G_Chore@details@Concurrency@@MAEPAXI@Z 100c0840 f i libconcrtd:SchedulerBase.obj
 0002:0003c880       ?ASIZE@QuickBitSet@details@Concurrency@@IBEIXZ 100c0880 f i libconcrtd:SchedulerBase.obj
 0002:0003c8a0       ?Acquire@?$SafeSQueue@VSafePointInvocation@details@Concurrency@@V_HyperNonReentrantLock@23@@details@Concurrency@@QBEXXZ 100c08a0 f i libconcrtd:SchedulerBase.obj
 0002:0003c8c0       ?AcquireWrite@?$SafeRWList@UBoostedObject@details@Concurrency@@VNoCount@CollectionTypes@23@V_ReaderWriterLock@23@@details@Concurrency@@QBEXXZ 100c08c0 f i libconcrtd:SchedulerBase.obj
 0002:0003c8e0       ?Add@?$ListArray@VScheduleGroupBase@details@Concurrency@@@details@Concurrency@@QAEHPAVScheduleGroupBase@23@@Z 100c08e0 f i libconcrtd:SchedulerBase.obj
 0002:0003ccd0       ?AddContext@SchedulerBase@details@Concurrency@@QAEXPAVInternalContextBase@23@@Z 100c0cd0 f   libconcrtd:SchedulerBase.obj
 0002:0003cda0       ?AddHead@?$List@UBoostedObject@details@Concurrency@@VNoCount@CollectionTypes@23@@details@Concurrency@@QAEXPAUBoostedObject@23@@Z 100c0da0 f i libconcrtd:SchedulerBase.obj
 0002:0003ce70       ?AddTail@?$List@VWaitNode@SchedulerBase@details@Concurrency@@VNoCount@CollectionTypes@34@@details@Concurrency@@QAEXPAVWaitNode@SchedulerBase@23@@Z 100c0e70 f i libconcrtd:SchedulerBase.obj
 0002:0003cf30       ?AddTail@?$SafeRWList@VWaitNode@SchedulerBase@details@Concurrency@@VNoCount@CollectionTypes@34@V_ReaderWriterLock@34@@details@Concurrency@@QAEXPAVWaitNode@SchedulerBase@23@@Z 100c0f30 f i libconcrtd:SchedulerBase.obj
 0002:0003cfc0       ?AddVirtualProcessors@SchedulerBase@details@Concurrency@@IAEXPAPAUIVirtualProcessorRoot@3@I@Z 100c0fc0 f   libconcrtd:SchedulerBase.obj
 0002:0003d160       ?AllocateSegment@CacheLocalScheduleGroup@details@Concurrency@@MAEPAVScheduleGroupSegmentBase@23@PAVSchedulingRing@23@PAVlocation@3@@Z 100c1160 f i libconcrtd:SchedulerBase.obj
 0002:0003d230       ?AllocateSegment@FairScheduleGroup@details@Concurrency@@MAEPAVScheduleGroupSegmentBase@23@PAVSchedulingRing@23@PAVlocation@3@@Z 100c1230 f i libconcrtd:SchedulerBase.obj
 0002:0003d320       ?AllowGeneralFetchOfReservedContexts@SchedulerBase@details@Concurrency@@MAE_NXZ 100c1320 f i libconcrtd:SchedulerBase.obj
 0002:0003d330       ?Attach@SchedulerBase@details@Concurrency@@UAEXXZ 100c1330 f   libconcrtd:SchedulerBase.obj
 0002:0003d3e0       ?AttachExternalContext@SchedulerBase@details@Concurrency@@AAEPAVExternalContextBase@23@_N@Z 100c13e0 f   libconcrtd:SchedulerBase.obj
 0002:0003d4f0       ?AttemptSchedulerSweep@SchedulerBase@details@Concurrency@@IAEXXZ 100c14f0 f   libconcrtd:SchedulerBase.obj
 0002:0003d5c0       ?CancelAllContexts@SchedulerBase@details@Concurrency@@MAEXXZ 100c15c0 f   libconcrtd:SchedulerBase.obj
 0002:0003d650       ?ChangeThrottlingTimer@SchedulerBase@details@Concurrency@@AAEXK@Z 100c1650 f   libconcrtd:SchedulerBase.obj
 0002:0003d700       ?CheckForDeletion@?$ListArray@VExternalStatistics@details@Concurrency@@@details@Concurrency@@AAEXXZ 100c1700 f i libconcrtd:SchedulerBase.obj
 0002:0003d760       ?CheckForDeletion@?$ListArray@VScheduleGroupBase@details@Concurrency@@@details@Concurrency@@AAEXXZ 100c1760 f i libconcrtd:SchedulerBase.obj
 0002:0003d7c0       ?CheckForDeletionBridge@?$ListArray@VExternalStatistics@details@Concurrency@@@details@Concurrency@@CAXPAV123@@Z 100c17c0 f i libconcrtd:SchedulerBase.obj
 0002:0003d7d0       ?CheckForDeletionBridge@?$ListArray@VScheduleGroupBase@details@Concurrency@@@details@Concurrency@@CAXPAV123@@Z 100c17d0 f i libconcrtd:SchedulerBase.obj
 0002:0003d7e0       ?CheckOneShotStaticDestruction@SchedulerBase@details@Concurrency@@SAXXZ 100c17e0 f   libconcrtd:SchedulerBase.obj
 0002:0003d870       ?CheckStaticConstruction@SchedulerBase@details@Concurrency@@CAXXZ 100c1870 f   libconcrtd:SchedulerBase.obj
 0002:0003d930       ?Cleanup@SchedulerBase@details@Concurrency@@AAEXXZ 100c1930 f   libconcrtd:SchedulerBase.obj
 0002:0003daf0       ?ClearCriticalRegion@ContextBase@details@Concurrency@@QAEXXZ 100c1af0 f i libconcrtd:SchedulerBase.obj
 0002:0003db20       ?CommitSafePoints@SchedulerBase@details@Concurrency@@QAEXXZ 100c1b20 f   libconcrtd:SchedulerBase.obj
 0002:0003dbc0       ?CommitToVersion@SchedulerBase@details@Concurrency@@AAEXK@Z 100c1bc0 f   libconcrtd:SchedulerBase.obj
 0002:0003dcb0       ?ComputeSafePointCommitVersion@SchedulerBase@details@Concurrency@@AAEKXZ 100c1cb0 f   libconcrtd:SchedulerBase.obj
 0002:0003ddb0       ?CopyFrom@QuickBitSet@details@Concurrency@@IAEXABV123@@Z 100c1db0 f i libconcrtd:SchedulerBase.obj
 0002:0003de40       ?Count@?$LockFreeStack@VExternalContextBase@details@Concurrency@@@details@Concurrency@@QBEHXZ 100c1e40 f i libconcrtd:SchedulerBase.obj
 0002:0003de60       ?Count@?$LockFreeStack@VRealizedChore@details@Concurrency@@@details@Concurrency@@QBEHXZ 100c1e60 f i libconcrtd:SchedulerBase.obj
 0002:0003de80       ?Count@?$LockFreeStack@VSubAllocator@details@Concurrency@@@details@Concurrency@@QBEHXZ 100c1e80 f i libconcrtd:SchedulerBase.obj
 0002:0003dea0       ?Create@Scheduler@Concurrency@@SAPAV12@ABVSchedulerPolicy@2@@Z 100c1ea0 f   libconcrtd:SchedulerBase.obj
 0002:0003def0       ?Create@SchedulerBase@details@Concurrency@@SAPAV123@ABVSchedulerPolicy@3@@Z 100c1ef0 f   libconcrtd:SchedulerBase.obj
 0002:0003df20       ?CreateContextFromDefaultScheduler@SchedulerBase@details@Concurrency@@SAPAVContextBase@23@XZ 100c1f20 f   libconcrtd:SchedulerBase.obj
 0002:0003dfc0       ?CreateScheduleGroup@SchedulerBase@details@Concurrency@@UAEPAVScheduleGroup@3@AAVlocation@3@@Z 100c1fc0 f i libconcrtd:SchedulerBase.obj
 0002:0003dfe0       ?CreateScheduleGroup@SchedulerBase@details@Concurrency@@UAEPAVScheduleGroup@3@XZ 100c1fe0 f i libconcrtd:SchedulerBase.obj
 0002:0003e060       ?CreateWithoutInitializing@SchedulerBase@details@Concurrency@@SAPAV123@ABVSchedulerPolicy@3@@Z 100c2060 f   libconcrtd:SchedulerBase.obj
 0002:0003e0c0       ?Current@?$SQueue@VSafePointInvocation@details@Concurrency@@@details@Concurrency@@QBEPAVSafePointInvocation@23@XZ 100c20c0 f i libconcrtd:SchedulerBase.obj
 0002:0003e0e0       ?CurrentScheduler@SchedulerBase@details@Concurrency@@SAPAV123@XZ 100c20e0 f   libconcrtd:SchedulerBase.obj
 0002:0003e100       ?Decrement@NoCount@CollectionTypes@details@Concurrency@@SAXXZ 100c2100 f i libconcrtd:SchedulerBase.obj
 0002:0003e110       ?DecrementInternalContextCount@SchedulerBase@details@Concurrency@@QAEXXZ 100c2110 f   libconcrtd:SchedulerBase.obj
 0002:0003e190       ?DeferredGetInternalContext@SchedulerBase@details@Concurrency@@QAEXXZ 100c2190 f   libconcrtd:SchedulerBase.obj
 0002:0003e1d0       ?DeleteElements@?$ListArray@VExternalStatistics@details@Concurrency@@@details@Concurrency@@AAEXPAU_SINGLE_LIST_ENTRY@@@Z 100c21d0 f i libconcrtd:SchedulerBase.obj
 0002:0003e220       ?DeleteElements@?$ListArray@VScheduleGroupBase@details@Concurrency@@@details@Concurrency@@AAEXPAU_SINGLE_LIST_ENTRY@@@Z 100c2220 f i libconcrtd:SchedulerBase.obj
 0002:0003e270       ?DeleteKey@?$Hash@II@details@Concurrency@@CAXAAI@Z 100c2270 f i libconcrtd:SchedulerBase.obj
 0002:0003e280       ?DeleteValue@?$Hash@II@details@Concurrency@@CAXAAI@Z 100c2280 f i libconcrtd:SchedulerBase.obj
 0002:0003e290       ?Delta@?$LockFreePushStack@VContextNode@SchedulerBase@details@Concurrency@@@details@Concurrency@@CAPAVContextNode@SchedulerBase@23@PAX@Z 100c2290 f i libconcrtd:SchedulerBase.obj
 0002:0003e2c0       ?Delta@?$LockFreeStack@VExternalContextBase@details@Concurrency@@@details@Concurrency@@CAPAVExternalContextBase@23@PAX@Z 100c22c0 f i libconcrtd:SchedulerBase.obj
 0002:0003e2f0       ?Delta@?$LockFreeStack@VInternalContextBase@details@Concurrency@@@details@Concurrency@@CAPAVInternalContextBase@23@PAX@Z 100c22f0 f i libconcrtd:SchedulerBase.obj
 0002:0003e320       ?Delta@?$LockFreeStack@VRealizedChore@details@Concurrency@@@details@Concurrency@@CAPAVRealizedChore@23@PAX@Z 100c2320 f i libconcrtd:SchedulerBase.obj
 0002:0003e350       ?Delta@?$LockFreeStack@VSubAllocator@details@Concurrency@@@details@Concurrency@@CAPAVSubAllocator@23@PAX@Z 100c2350 f i libconcrtd:SchedulerBase.obj
 0002:0003e380       ?Dequeue@?$SQueue@VInternalContextBase@details@Concurrency@@@details@Concurrency@@QAEPAVInternalContextBase@23@XZ 100c2380 f i libconcrtd:SchedulerBase.obj
 0002:0003e3e0       ?Dequeue@?$SQueue@VSafePointInvocation@details@Concurrency@@@details@Concurrency@@QAEPAVSafePointInvocation@23@XZ 100c23e0 f i libconcrtd:SchedulerBase.obj
 0002:0003e440       ?Dequeue@?$SafeSQueue@VInternalContextBase@details@Concurrency@@V_HyperNonReentrantLock@23@@details@Concurrency@@QAEPAVInternalContextBase@23@XZ 100c2440 f i libconcrtd:SchedulerBase.obj
 0002:0003e4d0       ?DereferenceStaticOneShot@SchedulerBase@details@Concurrency@@SAJXZ 100c24d0 f i libconcrtd:SchedulerBase.obj
 0002:0003e4f0       ?DestroySchedulerEventHandlers@SchedulerBase@details@Concurrency@@MAEXXZ 100c24f0 f   libconcrtd:SchedulerBase.obj
 0002:0003e580       ?Detach@SchedulerBase@details@Concurrency@@QAEXXZ 100c2580 f   libconcrtd:SchedulerBase.obj
 0002:0003e680       ?DetachExternalContext@SchedulerBase@details@Concurrency@@AAEXPAVExternalContextBase@23@_N@Z 100c2680 f   libconcrtd:SchedulerBase.obj
 0002:0003e760       ?Empty@?$List@VWaitNode@SchedulerBase@details@Concurrency@@VNoCount@CollectionTypes@34@@details@Concurrency@@QBE_NXZ 100c2760 f i libconcrtd:SchedulerBase.obj
 0002:0003e7a0       ?Empty@?$SQueue@VInternalContextBase@details@Concurrency@@@details@Concurrency@@QBE_NXZ 100c27a0 f i libconcrtd:SchedulerBase.obj
 0002:0003e7e0       ?Empty@?$SQueue@VSafePointInvocation@details@Concurrency@@@details@Concurrency@@QBE_NXZ 100c27e0 f i libconcrtd:SchedulerBase.obj
 0002:0003e820       ?Enqueue@?$SQueue@VSafePointInvocation@details@Concurrency@@@details@Concurrency@@QAEXPAVSafePointInvocation@23@@Z 100c2820 f i libconcrtd:SchedulerBase.obj
 0002:0003e8a0       ?Exercise@ClaimTicket@VirtualProcessor@details@Concurrency@@QAE_NPAVScheduleGroupSegmentBase@34@@Z 100c28a0 f i libconcrtd:SchedulerBase.obj
 0002:0003e930       ?ExerciseWakesExisting@ClaimTicket@VirtualProcessor@details@Concurrency@@QBE_NXZ 100c2930 f i libconcrtd:SchedulerBase.obj
 0002:0003e970       ?FastCurrentContext@SchedulerBase@details@Concurrency@@SAPAVContextBase@23@XZ 100c2970 f   libconcrtd:SchedulerBase.obj
 0002:0003e9c0       ?FastCurrentScheduler@SchedulerBase@details@Concurrency@@SAPAV123@XZ 100c29c0 f   libconcrtd:SchedulerBase.obj
 0002:0003ea00       ?Fill@QuickBitSet@details@Concurrency@@QAEXXZ 100c2a00 f i libconcrtd:SchedulerBase.obj
 0002:0003ea60       ?Finalize@SchedulerBase@details@Concurrency@@AAEXXZ 100c2a60 f   libconcrtd:SchedulerBase.obj
 0002:0003ecc0       ?Find@?$Hash@II@details@Concurrency@@QAEPAUListNode@123@ABIPAI@Z 100c2cc0 f i libconcrtd:SchedulerBase.obj
 0002:0003ed30       ?FindCurrentNode@SchedulerBase@details@Concurrency@@QAEPAVSchedulingNode@23@XZ 100c2d30 f   libconcrtd:SchedulerBase.obj
 0002:0003ede0       ?FindNodeByLocation@SchedulerBase@details@Concurrency@@QAEPAVSchedulingNode@23@PAVlocation@3@@Z 100c2de0 f   libconcrtd:SchedulerBase.obj
 0002:0003eec0       ?FindScheduleGroupSegment@SchedulingRing@details@Concurrency@@AAEPAVScheduleGroupSegmentBase@23@HHPAHPAV?$ListArray@VScheduleGroupSegmentBase@details@Concurrency@@@23@@Z 100c2ec0 f i libconcrtd:SchedulerBase.obj
 0002:0003ef30       ?FindVirtualProcessor@SchedulingNode@details@Concurrency@@QAEPAVVirtualProcessor@23@HHPAH@Z 100c2f30 f i libconcrtd:SchedulerBase.obj
 0002:0003efa0       ?Flush@?$LockFreePushStack@VContextNode@SchedulerBase@details@Concurrency@@@details@Concurrency@@QAEPAVContextNode@SchedulerBase@23@XZ 100c2fa0 f i libconcrtd:SchedulerBase.obj
 0002:0003efd0       ?Flush@?$LockFreeStack@VExternalContextBase@details@Concurrency@@@details@Concurrency@@QAEPAVExternalContextBase@23@XZ 100c2fd0 f i libconcrtd:SchedulerBase.obj
 0002:0003f000       ?Flush@?$LockFreeStack@VRealizedChore@details@Concurrency@@@details@Concurrency@@QAEPAVRealizedChore@23@XZ 100c3000 f i libconcrtd:SchedulerBase.obj
 0002:0003f030       ?FoundAvailableVirtualProcessor@SchedulerBase@details@Concurrency@@QAE_NAAVClaimTicket@VirtualProcessor@23@Vlocation@3@K@Z 100c3030 f   libconcrtd:SchedulerBase.obj
 0002:0003f2b0       ?FoundBlockedContexts@SchedulerBase@details@Concurrency@@AAE_NXZ 100c32b0 f   libconcrtd:SchedulerBase.obj
 0002:0003f430       ?FoundUnstartedChores@SchedulerBase@details@Concurrency@@AAE_NXZ 100c3430 f   libconcrtd:SchedulerBase.obj
 0002:0003f630       ?FreeNode@?$Hash@II@details@Concurrency@@CAXPAUListNode@123@@Z 100c3630 f i libconcrtd:SchedulerBase.obj
 0002:0003f680       ?GetAnonymousScheduleGroup@SchedulerBase@details@Concurrency@@QAEPAVScheduleGroupBase@23@XZ 100c3680 f i libconcrtd:SchedulerBase.obj
 0002:0003f6a0       ?GetAnonymousScheduleGroupSegment@SchedulerBase@details@Concurrency@@QAEPAVScheduleGroupSegmentBase@23@XZ 100c36a0 f   libconcrtd:SchedulerBase.obj
 0002:0003f6c0       ?GetAnonymousScheduleGroupSegment@SchedulingRing@details@Concurrency@@QBEPAVScheduleGroupSegmentBase@23@XZ 100c36c0 f i libconcrtd:SchedulerBase.obj
 0002:0003f6e0       ?GetBitSet@SchedulerBase@details@Concurrency@@QAE?AVQuickBitSet@23@PBVlocation@3@@Z 100c36e0 f   libconcrtd:SchedulerBase.obj
 0002:0003f8a0       ?GetDefaultScheduler@SchedulerBase@details@Concurrency@@CAPAV123@XZ 100c38a0 f   libconcrtd:SchedulerBase.obj
 0002:0003fa20       ?GetDequeuedTaskCount@ExternalStatistics@details@Concurrency@@QAEIXZ 100c3a20 f i libconcrtd:SchedulerBase.obj
 0002:0003faa0       ?GetDequeuedTaskCount@SchedulerBase@details@Concurrency@@QAEIXZ 100c3aa0 f i libconcrtd:SchedulerBase.obj
 0002:0003fb30       ?GetDequeuedTaskCount@VirtualProcessor@details@Concurrency@@AAEIXZ 100c3b30 f i libconcrtd:SchedulerBase.obj
 0002:0003fbb0       ?GetEnqueuedTaskCount@ExternalStatistics@details@Concurrency@@QAEIXZ 100c3bb0 f i libconcrtd:SchedulerBase.obj
 0002:0003fc30       ?GetEnqueuedTaskCount@SchedulerBase@details@Concurrency@@QAEIXZ 100c3c30 f i libconcrtd:SchedulerBase.obj
 0002:0003fcc0       ?GetEnqueuedTaskCount@VirtualProcessor@details@Concurrency@@AAEIXZ 100c3cc0 f i libconcrtd:SchedulerBase.obj
 0002:0003fd40       ?GetExternalContext@SchedulerBase@details@Concurrency@@AAEPAVExternalContextBase@23@_N@Z 100c3d40 f   libconcrtd:SchedulerBase.obj
 0002:0003fe40       ?GetFirstAffineScheduleGroupSegment@SchedulingRing@details@Concurrency@@QAEPAVScheduleGroupSegmentBase@23@PAH@Z 100c3e40 f i libconcrtd:SchedulerBase.obj
 0002:0003fe70       ?GetFirstNonAffineScheduleGroupSegment@SchedulingRing@details@Concurrency@@QAEPAVScheduleGroupSegmentBase@23@PAH@Z 100c3e70 f i libconcrtd:SchedulerBase.obj
 0002:0003fea0       ?GetFirstScheduleGroupSegment@SchedulingRing@details@Concurrency@@AAEPAVScheduleGroupSegmentBase@23@PAHPAV?$ListArray@VScheduleGroupSegmentBase@details@Concurrency@@@23@@Z 100c3ea0 f i libconcrtd:SchedulerBase.obj
 0002:0003fee0       ?GetFirstVirtualProcessor@SchedulingNode@details@Concurrency@@QAEPAVVirtualProcessor@23@PAH@Z 100c3ee0 f i libconcrtd:SchedulerBase.obj
 0002:0003ff10       ?GetInternalContext@SchedulerBase@details@Concurrency@@QAEPAVInternalContextBase@23@_N@Z 100c3f10 f   libconcrtd:SchedulerBase.obj
 0002:00040190       ?GetMaskIdCount@SchedulerBase@details@Concurrency@@QBEIXZ 100c4190 f i libconcrtd:SchedulerBase.obj
 0002:000401b0       ?GetNewContextId@SchedulerBase@details@Concurrency@@QAEIXZ 100c41b0 f   libconcrtd:SchedulerBase.obj
 0002:000401e0       ?GetNewScheduleGroupId@SchedulerBase@details@Concurrency@@QAEIXZ 100c41e0 f   libconcrtd:SchedulerBase.obj
 0002:00040210       ?GetNewWorkQueueId@SchedulerBase@details@Concurrency@@SAIXZ 100c4210 f   libconcrtd:SchedulerBase.obj
 0002:00040230       ?GetNextAffineScheduleGroupSegment@SchedulingRing@details@Concurrency@@QAEPAVScheduleGroupSegmentBase@23@PAHH@Z 100c4230 f i libconcrtd:SchedulerBase.obj
 0002:00040260       ?GetNextNonAffineScheduleGroupSegment@SchedulingRing@details@Concurrency@@QAEPAVScheduleGroupSegmentBase@23@PAHH@Z 100c4260 f i libconcrtd:SchedulerBase.obj
 0002:00040290       ?GetNextPriorityObject@SchedulerBase@details@Concurrency@@QAEPAUBoostedObject@23@XZ 100c4290 f   libconcrtd:SchedulerBase.obj
 0002:00040340       ?GetNextScheduleGroupSegment@SchedulingRing@details@Concurrency@@AAEPAVScheduleGroupSegmentBase@23@PAHHPAV?$ListArray@VScheduleGroupSegmentBase@details@Concurrency@@@23@@Z 100c4340 f i libconcrtd:SchedulerBase.obj
 0002:000403e0       ?GetNextSchedulingRing@SchedulerBase@details@Concurrency@@QAEPAVSchedulingRing@23@PBV423@PAV423@@Z 100c43e0 f   libconcrtd:SchedulerBase.obj
 0002:000404b0       ?GetNextSchedulingRing@SchedulerBase@details@Concurrency@@QAEPAVSchedulingRing@23@XZ 100c44b0 f   libconcrtd:SchedulerBase.obj
 0002:00040550       ?GetNextValidSchedulingRingIndex@SchedulerBase@details@Concurrency@@AAEHH@Z 100c4550 f   libconcrtd:SchedulerBase.obj
 0002:00040640       ?GetNextVirtualProcessor@SchedulingNode@details@Concurrency@@QAEPAVVirtualProcessor@23@PAHH@Z 100c4640 f i libconcrtd:SchedulerBase.obj
 0002:000406d0       ?GetNumberOfBoundContexts@SchedulerBase@details@Concurrency@@IBEKXZ 100c46d0 f i libconcrtd:SchedulerBase.obj
 0002:000406f0       ?GetNumberOfVirtualProcessors@SchedulerBase@details@Concurrency@@UBEIXZ 100c46f0 f i libconcrtd:SchedulerBase.obj
 0002:00040710       ?GetOwningNode@VirtualProcessor@details@Concurrency@@QAEPAVSchedulingNode@23@XZ 100c4710 f i libconcrtd:SchedulerBase.obj
 0002:00040730       ?GetOwningRoot@VirtualProcessor@details@Concurrency@@QAEPAUIVirtualProcessorRoot@3@XZ 100c4730 f i libconcrtd:SchedulerBase.obj
 0002:00040750       ?GetPolicy@SchedulerBase@details@Concurrency@@UBE?AVSchedulerPolicy@3@XZ 100c4750 f   libconcrtd:SchedulerBase.obj
 0002:00040790       ?GetRealizedChore@SchedulerBase@details@Concurrency@@QAEPAVRealizedChore@23@P6AXPAX@Z0@Z 100c4790 f   libconcrtd:SchedulerBase.obj
 0002:00040890       ?GetReservedContext@SchedulerBase@details@Concurrency@@QAEPAVInternalContextBase@23@XZ 100c4890 f i libconcrtd:SchedulerBase.obj
 0002:000408b0       ?GetResourceSet@SchedulingNode@details@Concurrency@@QAEABVQuickBitSet@23@XZ 100c48b0 f i libconcrtd:SchedulerBase.obj
 0002:000408d0       ?GetRunnableContext@CacheLocalScheduleGroupSegment@details@Concurrency@@EAEPAVInternalContextBase@23@XZ 100c48d0 f i libconcrtd:SchedulerBase.obj
 0002:00040930       ?GetRunnableContext@FairScheduleGroupSegment@details@Concurrency@@EAEPAVInternalContextBase@23@XZ 100c4930 f i libconcrtd:SchedulerBase.obj
 0002:00040990       ?GetSchedulerProxy@SchedulerBase@details@Concurrency@@QBEPAUISchedulerProxy@3@XZ 100c4990 f i libconcrtd:SchedulerBase.obj
 0002:000409b0       ?GetSubAllocator@SchedulerBase@details@Concurrency@@SAPAVSubAllocator@23@_N@Z 100c49b0 f   libconcrtd:SchedulerBase.obj
 0002:00040b00       ?GetValidSchedulingRingIndex@SchedulerBase@details@Concurrency@@AAEHH@Z 100c4b00 f   libconcrtd:SchedulerBase.obj
 0002:00040be0       ?Grow@QuickBitSet@details@Concurrency@@QAEXI@Z 100c4be0 f i libconcrtd:SchedulerBase.obj
 0002:00040d00       ?Grow@ReferenceCountedQuickBitSet@details@Concurrency@@QAEXI@Z 100c4d00 f i libconcrtd:SchedulerBase.obj
 0002:00040e10       ?HasCompletedShutdown@SchedulerBase@details@Concurrency@@QAE_NXZ 100c4e10 f   libconcrtd:SchedulerBase.obj
 0002:00040e60       ?HasVirtualProcessorAvailable@SchedulingNode@details@Concurrency@@QBE_NXZ 100c4e60 f i libconcrtd:SchedulerBase.obj
 0002:00040ea0       ?HasVirtualProcessorPendingThreadCreate@SchedulerBase@details@Concurrency@@QBE_NXZ 100c4ea0 f i libconcrtd:SchedulerBase.obj
 0002:00040ee0       ?HashValue@?$Hash@II@details@Concurrency@@CAIABIH@Z 100c4ee0 f i libconcrtd:SchedulerBase.obj
 0002:00040fa0       ?Id@ScheduleGroupBase@details@Concurrency@@UBEIXZ 100c4fa0 f i libconcrtd:SchedulerBase.obj
 0002:00040fc0       ?Id@SchedulerBase@details@Concurrency@@UBEIXZ 100c4fc0 f i libconcrtd:SchedulerBase.obj
 0002:00040fe0       ?Id@SchedulingRing@details@Concurrency@@QBEHXZ 100c4fe0 f i libconcrtd:SchedulerBase.obj
 0002:00041000       ?InFinalizationSweep@SchedulerBase@details@Concurrency@@QAE_NXZ 100c5000 f   libconcrtd:SchedulerBase.obj
 0002:00041050       ?Increment@NoCount@CollectionTypes@details@Concurrency@@SAXXZ 100c5050 f i libconcrtd:SchedulerBase.obj
 0002:00041060       ?IncrementInternalContextCount@SchedulerBase@details@Concurrency@@QAEXXZ 100c5060 f   libconcrtd:SchedulerBase.obj
 0002:00041080       ?Initialize@RealizedChore@details@Concurrency@@QAEXP6AXPAX@Z0@Z 100c5080 f i libconcrtd:SchedulerBase.obj
 0002:000410c0       ?Initialize@SchedulerBase@details@Concurrency@@AAEXXZ 100c50c0 f   libconcrtd:SchedulerBase.obj
 0002:00041aa0       ?InitializeSchedulerEventHandlers@SchedulerBase@details@Concurrency@@MAEXXZ 100c5aa0 f   libconcrtd:SchedulerBase.obj
 0002:00041ac0       ?Insert@?$Hash@II@details@Concurrency@@QAEPAUListNode@123@ABI0@Z 100c5ac0 f i libconcrtd:SchedulerBase.obj
 0002:00041c10       ?InternalCreateScheduleGroup@SchedulerBase@details@Concurrency@@AAEPAVScheduleGroup@3@PAVlocation@3@@Z 100c5c10 f   libconcrtd:SchedulerBase.obj
 0002:00041e20       ?InternalReference@ScheduleGroupBase@details@Concurrency@@IAEJXZ 100c5e20 f i libconcrtd:SchedulerBase.obj
 0002:00041eb0       ?InternalRelease@ScheduleGroupBase@details@Concurrency@@IAEJXZ 100c5eb0 f i libconcrtd:SchedulerBase.obj
 0002:00041f70       ?Intersects@QuickBitSet@details@Concurrency@@QBE_NABV123@@Z 100c5f70 f i libconcrtd:SchedulerBase.obj
 0002:00042060       ?Invoke@SafePointInvocation@details@Concurrency@@AAEXXZ 100c6060 f i libconcrtd:SchedulerBase.obj
 0002:000420a0       ?InvokeAtNextSafePoint@SafePointInvocation@details@Concurrency@@QAEXP6AXPAX@Z0PAVSchedulerBase@23@@Z 100c60a0 f   libconcrtd:SchedulerBase.obj
 0002:00042110       ?InvokeOnSafePoint@SchedulerBase@details@Concurrency@@AAEXPAVSafePointInvocation@23@@Z 100c6110 f   libconcrtd:SchedulerBase.obj
 0002:00042170       ?IsActive@ExternalStatistics@details@Concurrency@@QAE_NXZ 100c6170 f i libconcrtd:SchedulerBase.obj
 0002:000421d0       ?IsActive@SchedulingRing@details@Concurrency@@QBE_NXZ 100c61d0 f i libconcrtd:SchedulerBase.obj
 0002:00042210       ?IsAvailableLocation@SchedulerBase@details@Concurrency@@UBE_NABVlocation@3@@Z 100c6210 f   libconcrtd:SchedulerBase.obj
 0002:000422b0       ?IsBlocked@ContextBase@details@Concurrency@@QBE_NXZ 100c62b0 f i libconcrtd:SchedulerBase.obj
 0002:000422f0       ?IsExternal@ContextBase@details@Concurrency@@QBE_NXZ 100c62f0 f i libconcrtd:SchedulerBase.obj
 0002:00042310       ?IsExternalAllocator@SubAllocator@details@Concurrency@@QAE_NXZ 100c6310 f i libconcrtd:SchedulerBase.obj
 0002:00042330       ?IsIdle@InternalContextBase@details@Concurrency@@QBE_NXZ 100c6330 f i libconcrtd:SchedulerBase.obj
 0002:00042350       ?IsSet@QuickBitSet@details@Concurrency@@QBE_NI@Z 100c6350 f i libconcrtd:SchedulerBase.obj
 0002:000423b0       ?IsVisibleVersion@SchedulerBase@details@Concurrency@@AAE_NK@Z 100c63b0 f i libconcrtd:SchedulerBase.obj
 0002:000423f0       ?Lookup@?$Hash@II@details@Concurrency@@AAEPAUListNode@123@ABIH@Z 100c63f0 f i libconcrtd:SchedulerBase.obj
 0002:00042490       ?MailChore@FairScheduleGroup@details@Concurrency@@UAE?AVSlot@?$Mailbox@V_UnrealizedChore@details@Concurrency@@@23@PAV_UnrealizedChore@23@PAVlocation@3@PAPAVScheduleGroupSegmentBase@23@@Z 100c6490 f i libconcrtd:SchedulerBase.obj
 0002:000424b0       ?MarkSafePoint@SchedulerBase@details@Concurrency@@QAE_NPAVSafePointMarker@23@@Z 100c64b0 f   libconcrtd:SchedulerBase.obj
 0002:000424f0       ?MaxIndex@?$ListArray@VExternalStatistics@details@Concurrency@@@details@Concurrency@@QAEHXZ 100c64f0 f i libconcrtd:SchedulerBase.obj
 0002:00042510       ?MaxIndex@?$ListArray@VScheduleGroupSegmentBase@details@Concurrency@@@details@Concurrency@@QAEHXZ 100c6510 f i libconcrtd:SchedulerBase.obj
 0002:00042530       ?MaxIndex@?$ListArray@VVirtualProcessor@details@Concurrency@@@details@Concurrency@@QAEHXZ 100c6530 f i libconcrtd:SchedulerBase.obj
 0002:00042550       ?Next@?$LockFreePushStack@VContextNode@SchedulerBase@details@Concurrency@@@details@Concurrency@@SAPAVContextNode@SchedulerBase@23@PAV4523@@Z 100c6550 f i libconcrtd:SchedulerBase.obj
 0002:00042570       ?Next@?$LockFreeStack@VExternalContextBase@details@Concurrency@@@details@Concurrency@@SAPAVExternalContextBase@23@PAV423@@Z 100c6570 f i libconcrtd:SchedulerBase.obj
 0002:00042590       ?Next@?$LockFreeStack@VRealizedChore@details@Concurrency@@@details@Concurrency@@SAPAVRealizedChore@23@PAV423@@Z 100c6590 f i libconcrtd:SchedulerBase.obj
 0002:000425b0       ?NotifyAcquired@InternalContextBase@details@Concurrency@@QAEXXZ 100c65b0 f i libconcrtd:SchedulerBase.obj
 0002:000425d0       ?NotifyAffinitizedWork@FairScheduleGroupSegment@details@Concurrency@@UAEXXZ 100c65d0 f i libconcrtd:SchedulerBase.obj
 0002:000425e0       ?NotifyResource@SchedulingNode@details@Concurrency@@QAEXII@Z 100c65e0 f i libconcrtd:SchedulerBase.obj
 0002:00042610       ?NotifyThrottledContext@SchedulerBase@details@Concurrency@@AAE_NPAVInternalContextBase@23@@Z 100c6610 f   libconcrtd:SchedulerBase.obj
 0002:000426d0       ?ObservedVersion@SchedulerBase@details@Concurrency@@AAEKK@Z 100c66d0 f i libconcrtd:SchedulerBase.obj
 0002:00042720       ?OneShotStaticConstruction@SchedulerBase@details@Concurrency@@CAXXZ 100c6720 f   libconcrtd:SchedulerBase.obj
 0002:00042740       ?OneShotStaticDestruction@SchedulerBase@details@Concurrency@@CAXXZ 100c6740 f   libconcrtd:SchedulerBase.obj
 0002:00042770       ?PerformServiceScan@SchedulerBase@details@Concurrency@@AAEX_K@Z 100c6770 f   libconcrtd:SchedulerBase.obj
 0002:00042a10       ?PhaseOneShutdown@SchedulerBase@details@Concurrency@@AAEXXZ 100c6a10 f   libconcrtd:SchedulerBase.obj
 0002:00042b80       ?PhaseTwoShutdown@SchedulerBase@details@Concurrency@@AAEXXZ 100c6b80 f   libconcrtd:SchedulerBase.obj
 0002:00042d50       ?Pop@?$LockFreeStack@VExternalContextBase@details@Concurrency@@@details@Concurrency@@QAEPAVExternalContextBase@23@XZ 100c6d50 f i libconcrtd:SchedulerBase.obj
 0002:00042d80       ?Pop@?$LockFreeStack@VInternalContextBase@details@Concurrency@@@details@Concurrency@@QAEPAVInternalContextBase@23@XZ 100c6d80 f i libconcrtd:SchedulerBase.obj
 0002:00042db0       ?Pop@?$LockFreeStack@VRealizedChore@details@Concurrency@@@details@Concurrency@@QAEPAVRealizedChore@23@XZ 100c6db0 f i libconcrtd:SchedulerBase.obj
 0002:00042de0       ?Pop@?$LockFreeStack@VSubAllocator@details@Concurrency@@@details@Concurrency@@QAEPAVSubAllocator@23@XZ 100c6de0 f i libconcrtd:SchedulerBase.obj
 0002:00042e10       ?PublishNewDataVersion@SchedulerBase@details@Concurrency@@AAEKXZ 100c6e10 f i libconcrtd:SchedulerBase.obj
 0002:00042e70       ?PullFromFreePool@?$ListArray@VScheduleGroupBase@details@Concurrency@@@details@Concurrency@@QAEPAVScheduleGroupBase@23@XZ 100c6e70 f i libconcrtd:SchedulerBase.obj
 0002:00042eb0       ?Push@?$LockFreePushStack@VContextNode@SchedulerBase@details@Concurrency@@@details@Concurrency@@QAEXPAVContextNode@SchedulerBase@23@@Z 100c6eb0 f i libconcrtd:SchedulerBase.obj
 0002:00042ef0       ?Push@?$LockFreeStack@VExternalContextBase@details@Concurrency@@@details@Concurrency@@QAEXPAVExternalContextBase@23@@Z 100c6ef0 f i libconcrtd:SchedulerBase.obj
 0002:00042f20       ?Push@?$LockFreeStack@VInternalContextBase@details@Concurrency@@@details@Concurrency@@QAEXPAVInternalContextBase@23@@Z 100c6f20 f i libconcrtd:SchedulerBase.obj
 0002:00042f50       ?Push@?$LockFreeStack@VRealizedChore@details@Concurrency@@@details@Concurrency@@QAEXPAVRealizedChore@23@@Z 100c6f50 f i libconcrtd:SchedulerBase.obj
 0002:00042f80       ?Push@?$LockFreeStack@VSubAllocator@details@Concurrency@@@details@Concurrency@@QAEXPAVSubAllocator@23@@Z 100c6f80 f i libconcrtd:SchedulerBase.obj
 0002:00042fb0       ?PushRunnableToInactive@SchedulerBase@details@Concurrency@@UAE_NPAVInternalContextBase@23@Vlocation@3@@Z 100c6fb0 f   libconcrtd:SchedulerBase.obj
 0002:000430b0       ?Reallocate@QuickBitSet@details@Concurrency@@IAEXI@Z 100c70b0 f i libconcrtd:SchedulerBase.obj
 0002:00043140       ?Reference@ScheduleGroupBase@details@Concurrency@@UAEIXZ 100c7140 f i libconcrtd:SchedulerBase.obj
 0002:00043160       ?Reference@SchedulerBase@details@Concurrency@@UAEIXZ 100c7160 f   libconcrtd:SchedulerBase.obj
 0002:00043260       ?ReferenceForAttach@SchedulerBase@details@Concurrency@@IAEXXZ 100c7260 f   libconcrtd:SchedulerBase.obj
 0002:000432a0       ?RegisterShutdownEvent@SchedulerBase@details@Concurrency@@UAEXPAX@Z 100c72a0 f   libconcrtd:SchedulerBase.obj
 0002:000433a0       ?Release@?$SafeSQueue@VSafePointInvocation@details@Concurrency@@V_HyperNonReentrantLock@23@@details@Concurrency@@QBEXXZ 100c73a0 f i libconcrtd:SchedulerBase.obj
 0002:000433c0       ?Release@ScheduleGroupBase@details@Concurrency@@UAEIXZ 100c73c0 f i libconcrtd:SchedulerBase.obj
 0002:000433e0       ?Release@SchedulerBase@details@Concurrency@@UAEIXZ 100c73e0 f   libconcrtd:SchedulerBase.obj
 0002:00043420       ?ReleaseExternalContext@SchedulerBase@details@Concurrency@@AAEXPAVExternalContextBase@23@@Z 100c7420 f   libconcrtd:SchedulerBase.obj
 0002:00043480       ?ReleaseForDetach@SchedulerBase@details@Concurrency@@IAEXXZ 100c7480 f   libconcrtd:SchedulerBase.obj
 0002:000434c0       ?ReleaseInternalContext@SchedulerBase@details@Concurrency@@QAEXPAVInternalContextBase@23@_N@Z 100c74c0 f   libconcrtd:SchedulerBase.obj
 0002:000435a0       ?ReleaseRealizedChore@SchedulerBase@details@Concurrency@@QAEXPAVRealizedChore@23@@Z 100c75a0 f   libconcrtd:SchedulerBase.obj
 0002:00043640       ?ReleaseReservedContexts@SchedulerBase@details@Concurrency@@QAEXXZ 100c7640 f   libconcrtd:SchedulerBase.obj
 0002:000436d0       ?ReleaseSuspendedVirtualProcessors@SchedulerBase@details@Concurrency@@AAEXJ@Z 100c76d0 f   libconcrtd:SchedulerBase.obj
 0002:00043710       ?ReleaseWrite@?$SafeRWList@UBoostedObject@details@Concurrency@@VNoCount@CollectionTypes@23@V_ReaderWriterLock@23@@details@Concurrency@@QBEXXZ 100c7710 f i libconcrtd:SchedulerBase.obj
 0002:00043730       ?Remove@?$List@UBoostedObject@details@Concurrency@@VNoCount@CollectionTypes@23@@details@Concurrency@@QAEXPAUBoostedObject@23@@Z 100c7730 f i libconcrtd:SchedulerBase.obj
 0002:00043800       ?Remove@?$ListArray@VExternalStatistics@details@Concurrency@@@details@Concurrency@@QAE_NPAVExternalStatistics@23@H_N@Z 100c7800 f i libconcrtd:SchedulerBase.obj
 0002:00043ab0       ?Remove@?$ListArray@VExternalStatistics@details@Concurrency@@@details@Concurrency@@QAE_NPAVExternalStatistics@23@_N@Z 100c7ab0 f i libconcrtd:SchedulerBase.obj
 0002:00043ae0       ?Remove@?$ListArray@VScheduleGroupBase@details@Concurrency@@@details@Concurrency@@QAE_NPAVScheduleGroupBase@23@H_N@Z 100c7ae0 f i libconcrtd:SchedulerBase.obj
 0002:00043d90       ?Remove@?$ListArray@VScheduleGroupBase@details@Concurrency@@@details@Concurrency@@QAE_NPAVScheduleGroupBase@23@_N@Z 100c7d90 f i libconcrtd:SchedulerBase.obj
 0002:00043dc0       ?RemoveHead@?$List@UBoostedObject@details@Concurrency@@VNoCount@CollectionTypes@23@@details@Concurrency@@QAEPAUBoostedObject@23@XZ 100c7dc0 f i libconcrtd:SchedulerBase.obj
 0002:00043e40       ?RemoveHead@?$List@VWaitNode@SchedulerBase@details@Concurrency@@VNoCount@CollectionTypes@34@@details@Concurrency@@QAEPAVWaitNode@SchedulerBase@23@XZ 100c7e40 f i libconcrtd:SchedulerBase.obj
 0002:00043eb0       ?RemoveHead@?$SafeRWList@VWaitNode@SchedulerBase@details@Concurrency@@VNoCount@CollectionTypes@34@V_ReaderWriterLock@34@@details@Concurrency@@QAEPAVWaitNode@SchedulerBase@23@XZ 100c7eb0 f i libconcrtd:SchedulerBase.obj
 0002:00043f40       ?RemovePrioritizedObject@SchedulerBase@details@Concurrency@@QAEXPAUBoostedObject@23@@Z 100c7f40 f   libconcrtd:SchedulerBase.obj
 0002:00043fb0       ?RemoveScheduleGroup@SchedulerBase@details@Concurrency@@QAEXPAVScheduleGroupBase@23@@Z 100c7fb0 f   libconcrtd:SchedulerBase.obj
 0002:00044030       ?RemoveSegments@FairScheduleGroup@details@Concurrency@@MAEXXZ 100c8030 f i libconcrtd:SchedulerBase.obj
 0002:00044060       ?RemoveVirtualProcessors@SchedulerBase@details@Concurrency@@IAEXPAPAUIVirtualProcessorRoot@3@I@Z 100c8060 f   libconcrtd:SchedulerBase.obj
 0002:00044330       ?ResetDefaultSchedulerPolicy@Scheduler@Concurrency@@SAXXZ 100c8330 f   libconcrtd:SchedulerBase.obj
 0002:00044340       ?ResetDefaultSchedulerPolicy@SchedulerBase@details@Concurrency@@SAXXZ 100c8340 f   libconcrtd:SchedulerBase.obj
 0002:000443c0       ?Resurrect@SchedulerBase@details@Concurrency@@AAEXXZ 100c83c0 f   libconcrtd:SchedulerBase.obj
 0002:00044490       ?ReturnSubAllocator@SchedulerBase@details@Concurrency@@SAXPAVSubAllocator@23@@Z 100c8490 f   libconcrtd:SchedulerBase.obj
 0002:00044560       ?SafeFastCurrentContext@SchedulerBase@details@Concurrency@@SAPAVContextBase@23@XZ 100c8560 f   libconcrtd:SchedulerBase.obj
 0002:000445a0       ?SafeFastCurrentScheduler@SchedulerBase@details@Concurrency@@SAPAV123@XZ 100c85a0 f   libconcrtd:SchedulerBase.obj
 0002:000445e0       ?SafeReference@SchedulerBase@details@Concurrency@@AAE_NXZ 100c85e0 f   libconcrtd:SchedulerBase.obj
 0002:00044610       ?ScheduleTask@SchedulerBase@details@Concurrency@@UAEXP6AXPAX@Z0@Z 100c8610 f   libconcrtd:SchedulerBase.obj
 0002:000446e0       ?ScheduleTask@SchedulerBase@details@Concurrency@@UAEXP6AXPAX@Z0AAVlocation@3@@Z 100c86e0 f   libconcrtd:SchedulerBase.obj
 0002:000447a0       ?Set@QuickBitSet@details@Concurrency@@QAEXI@Z 100c87a0 f i libconcrtd:SchedulerBase.obj
 0002:00044830       ?SetDebugBits@InternalContextBase@details@Concurrency@@QAEXK@Z 100c8830 f i libconcrtd:SchedulerBase.obj
 0002:00044860       ?SetDefaultSchedulerPolicy@Scheduler@Concurrency@@SAXABVSchedulerPolicy@2@@Z 100c8860 f   libconcrtd:SchedulerBase.obj
 0002:00044880       ?SetDefaultSchedulerPolicy@SchedulerBase@details@Concurrency@@SAXABVSchedulerPolicy@3@@Z 100c8880 f   libconcrtd:SchedulerBase.obj
 0002:000449f0       ?SetExternalAllocatorFlag@SubAllocator@details@Concurrency@@QAEX_N@Z 100c89f0 f i libconcrtd:SchedulerBase.obj
 0002:00044a10       ?SetNextSchedulingRing@SchedulerBase@details@Concurrency@@QAEXPAVSchedulingRing@23@@Z 100c8a10 f   libconcrtd:SchedulerBase.obj
 0002:00044a90       ?SetOwningNode@SchedulingRing@details@Concurrency@@AAEXPAVSchedulingNode@23@@Z 100c8a90 f i libconcrtd:SchedulerBase.obj
 0002:00044ab0       ?SetScheduler@?$ListArray@VScheduleGroupBase@details@Concurrency@@@details@Concurrency@@QAEXPAVSchedulerBase@23@@Z 100c8ab0 f i libconcrtd:SchedulerBase.obj
 0002:00044ad0       ?SpinUntilBitsReset@details@Concurrency@@YAJPCJJ@Z 100c8ad0 f i libconcrtd:SchedulerBase.obj
 0002:00044b30       ?SpinUntilBitsSet@details@Concurrency@@YAJPCJJ@Z 100c8b30 f i libconcrtd:SchedulerBase.obj
 0002:00044b90       ?StampThrottledCreate@SchedulerBase@details@Concurrency@@QAEXXZ 100c8b90 f i libconcrtd:SchedulerBase.obj
 0002:00044bc0       ?StartupIdleVirtualProcessor@SchedulerBase@details@Concurrency@@QAE_NPAVScheduleGroupSegmentBase@23@Vlocation@3@@Z 100c8bc0 f i libconcrtd:SchedulerBase.obj
 0002:00044c60       ?StartupNewVirtualProcessor@SchedulerBase@details@Concurrency@@UAEXPAVScheduleGroupSegmentBase@23@Vlocation@3@@Z 100c8c60 f i libconcrtd:SchedulerBase.obj
 0002:00044cf0       ?StartupVirtualProcessor@SchedulerBase@details@Concurrency@@QAE_NPAVScheduleGroupSegmentBase@23@Vlocation@3@K@Z 100c8cf0 f   libconcrtd:SchedulerBase.obj
 0002:00044dd0       ?StaticConstruction@SchedulerBase@details@Concurrency@@CAXXZ 100c8dd0 f   libconcrtd:SchedulerBase.obj
 0002:00044df0       ?StaticDestruction@SchedulerBase@details@Concurrency@@CAXXZ 100c8df0 f   libconcrtd:SchedulerBase.obj
 0002:00044ee0       ?Statistics@SchedulerBase@details@Concurrency@@IAEXPAI00@Z 100c8ee0 f   libconcrtd:SchedulerBase.obj
 0002:00045120       ?StealForeignLocalRunnableContext@SchedulerBase@details@Concurrency@@QAEPAVInternalContextBase@23@PAVSchedulingNode@23@@Z 100c9120 f   libconcrtd:SchedulerBase.obj
 0002:00045250       ?SweepSchedulerForFinalize@SchedulerBase@details@Concurrency@@AAEXXZ 100c9250 f   libconcrtd:SchedulerBase.obj
 0002:00045410       ?ThrottlerDispatch@SchedulerBase@details@Concurrency@@AAEXXZ 100c9410 f   libconcrtd:SchedulerBase.obj
 0002:00045720       ?ThrottlerDispatchBridge@SchedulerBase@details@Concurrency@@CGXPAU_TP_CALLBACK_INSTANCE@@PAXPAU_TP_TIMER@@@Z 100c9720 f i libconcrtd:SchedulerBase.obj
 0002:00045740       ?ThrottlerDispatchBridgeXP@SchedulerBase@details@Concurrency@@CGXPAXE@Z 100c9740 f i libconcrtd:SchedulerBase.obj
 0002:00045760       ?ThrottlerTrampoline@SchedulerBase@details@Concurrency@@CGXPAXE@Z 100c9760 f   libconcrtd:SchedulerBase.obj
 0002:000457c0       ?ThrottlingDelta@SchedulerBase@details@Concurrency@@QAEKXZ 100c97c0 f i libconcrtd:SchedulerBase.obj
 0002:00045800       ?ThrottlingTime@SchedulerBase@details@Concurrency@@QAEKK@Z 100c9800 f   libconcrtd:SchedulerBase.obj
 0002:00045950       ?ThrowSchedulerEvent@SchedulerBase@details@Concurrency@@CAXW4ConcRT_EventType@3@EI@Z 100c9950 f   libconcrtd:SchedulerBase.obj
 0002:00045a00       ?TimeSinceServicing@ScheduleGroupSegmentBase@details@Concurrency@@QAEK_K@Z 100c9a00 f i libconcrtd:SchedulerBase.obj
 0002:00045a30       ?TimeSinceServicing@VirtualProcessor@details@Concurrency@@QAEK_K@Z 100c9a30 f i libconcrtd:SchedulerBase.obj
 0002:00045a60       ?TraceSchedulerEvent@SchedulerBase@details@Concurrency@@AAEXW4ConcRT_EventType@3@EI@Z 100c9a60 f i libconcrtd:SchedulerBase.obj
 0002:00045ab0       ?TriggerCommitSafePoints@SchedulerBase@details@Concurrency@@QAEXPAVSafePointMarker@23@@Z 100c9ab0 f   libconcrtd:SchedulerBase.obj
 0002:00045b10       ?TypeOfWorkPending@SchedulerBase@details@Concurrency@@MAE?AW4PendingWorkType@123@XZ 100c9b10 f   libconcrtd:SchedulerBase.obj
 0002:00045b70       ?UnlockedAddHead@?$SafeRWList@UBoostedObject@details@Concurrency@@VNoCount@CollectionTypes@23@V_ReaderWriterLock@23@@details@Concurrency@@QAEXPAUBoostedObject@23@@Z 100c9b70 f i libconcrtd:SchedulerBase.obj
 0002:00045be0       ?UnlockedRemove@?$SafeRWList@UBoostedObject@details@Concurrency@@VNoCount@CollectionTypes@23@V_ReaderWriterLock@23@@details@Concurrency@@QAEXPAUBoostedObject@23@@Z 100c9be0 f i libconcrtd:SchedulerBase.obj
 0002:00045c50       ?UnlockedRemoveHead@?$SafeRWList@UBoostedObject@details@Concurrency@@VNoCount@CollectionTypes@23@V_ReaderWriterLock@23@@details@Concurrency@@QAEPAUBoostedObject@23@XZ 100c9c50 f i libconcrtd:SchedulerBase.obj
 0002:00045cc0       ?Unsafe_Top@?$LockFreePushStack@VContextNode@SchedulerBase@details@Concurrency@@@details@Concurrency@@QAEPAVContextNode@SchedulerBase@23@XZ 100c9cc0 f i libconcrtd:SchedulerBase.obj
 0002:00045ce0       ?UpdateCommitVersion@SchedulerBase@details@Concurrency@@AAEKK@Z 100c9ce0 f   libconcrtd:SchedulerBase.obj
 0002:00045e40       ?UpdatePendingVersion@SchedulerBase@details@Concurrency@@AAEKXZ 100c9e40 f   libconcrtd:SchedulerBase.obj
 0002:00045ec0       ?VirtualProcessorActive@SchedulerBase@details@Concurrency@@QAE_N_N@Z 100c9ec0 f   libconcrtd:SchedulerBase.obj
 0002:000461c0       ?VirtualProcessorActiveNotification@SchedulerBase@details@Concurrency@@MAEX_NJ@Z 100ca1c0 f i libconcrtd:SchedulerBase.obj
 0002:000461d0       ?VirtualProcessorIdle@SchedulerBase@details@Concurrency@@QAEX_N@Z 100ca1d0 f   libconcrtd:SchedulerBase.obj
 0002:00046370       ?WasExplicitlyAttached@ExternalContextBase@details@Concurrency@@QBE_NXZ 100ca370 f i libconcrtd:SchedulerBase.obj
 0002:00046390       ?Wipe@?$Hash@II@details@Concurrency@@QAEXXZ 100ca390 f i libconcrtd:SchedulerBase.obj
 0002:00046440       ?_Assign@location@Concurrency@@QAEXABV12@@Z 100ca440 f i libconcrtd:SchedulerBase.obj
 0002:000464e0       ?_GetId@location@Concurrency@@QBEIXZ 100ca4e0 f i libconcrtd:SchedulerBase.obj
 0002:00046500       ?_GetType@location@Concurrency@@QBE?AW4_Type@12@XZ 100ca500 f i libconcrtd:SchedulerBase.obj
 0002:00046520       ?_GetVirtualProcessor@InternalContextBase@details@Concurrency@@IBEPAVVirtualProcessor@23@XZ 100ca520 f i libconcrtd:SchedulerBase.obj
 0002:00046580       ?_HasWriteLock@_ReaderWriterLock@details@Concurrency@@QBE_NXZ 100ca580 f i libconcrtd:SchedulerBase.obj
 0002:000465c0       ?_IsEnabled@_CONCRT_TRACE_INFO@details@Concurrency@@QBE_NEK@Z 100ca5c0 f i libconcrtd:SchedulerBase.obj
 0002:00046610       ?_Is_system@location@Concurrency@@QBE_NXZ 100ca610 f i libconcrtd:SchedulerBase.obj
 0002:00046650       ?_Reference@_Scheduler@details@Concurrency@@QAEIXZ 100ca650 f   libconcrtd:SchedulerBase.obj
 0002:00046690       ?_Release@_Scheduler@details@Concurrency@@QAEIXZ 100ca690 f   libconcrtd:SchedulerBase.obj
 0002:000466d0       ?CreateRemoteThreadEx@UMS@details@Concurrency@@SAPAXPAXPAU_SECURITY_ATTRIBUTES@@KP6GK0@Z0KPAU_PROC_THREAD_ATTRIBUTE_LIST@@PAK@Z 100ca6d0 f   libconcrtd:UMSWrapper.obj
 0002:00046770       ?CreateUmsCompletionList@UMS@details@Concurrency@@SAHPAPAX@Z 100ca770 f   libconcrtd:UMSWrapper.obj
 0002:000467f0       ?CreateUmsThreadContext@UMS@details@Concurrency@@SAHPAPAX@Z 100ca7f0 f   libconcrtd:UMSWrapper.obj
 0002:00046870       ?DeleteProcThreadAttributeList@UMS@details@Concurrency@@SAXPAU_PROC_THREAD_ATTRIBUTE_LIST@@@Z 100ca870 f   libconcrtd:UMSWrapper.obj
 0002:000468f0       ?DeleteUmsCompletionList@UMS@details@Concurrency@@SAHPAX@Z 100ca8f0 f   libconcrtd:UMSWrapper.obj
 0002:00046970       ?DeleteUmsThreadContext@UMS@details@Concurrency@@SAHPAX@Z 100ca970 f   libconcrtd:UMSWrapper.obj
 0002:000469f0       ?DequeueUmsCompletionListItems@UMS@details@Concurrency@@SAHPAXKPAPAX@Z 100ca9f0 f   libconcrtd:UMSWrapper.obj
 0002:00046a80       ?EnterUmsSchedulingMode@UMS@details@Concurrency@@SAHPAU_UMS_SCHEDULER_STARTUP_INFO@@@Z 100caa80 f   libconcrtd:UMSWrapper.obj
 0002:00046b00       ?ExecuteUmsThread@UMS@details@Concurrency@@SAHPAX@Z 100cab00 f   libconcrtd:UMSWrapper.obj
 0002:00046b80       ?GetCurrentUmsThread@UMS@details@Concurrency@@SAPAXXZ 100cab80 f   libconcrtd:UMSWrapper.obj
 0002:00046c00       ?GetNextUmsListItem@UMS@details@Concurrency@@SAPAXPAX@Z 100cac00 f   libconcrtd:UMSWrapper.obj
 0002:00046c80       ?GetUmsCompletionListEvent@UMS@details@Concurrency@@SAHPAXPAPAX@Z 100cac80 f   libconcrtd:UMSWrapper.obj
 0002:00046d00       ?Initialize@UMS@details@Concurrency@@SAXXZ 100cad00 f   libconcrtd:UMSWrapper.obj
 0002:000474d0       ?InitializeProcThreadAttributeList@UMS@details@Concurrency@@SAHPAU_PROC_THREAD_ATTRIBUTE_LIST@@KKPAK@Z 100cb4d0 f   libconcrtd:UMSWrapper.obj
 0002:00047560       ?Initialized@UMS@details@Concurrency@@SA_NXZ 100cb560 f   libconcrtd:UMSWrapper.obj
 0002:00047590       ?QueryUmsThreadInformation@UMS@details@Concurrency@@SAHPAXW4_RTL_UMS_THREAD_INFO_CLASS@@0KPAK@Z 100cb590 f   libconcrtd:UMSWrapper.obj
 0002:00047620       ?SetUmsThreadInformation@UMS@details@Concurrency@@SAHPAXW4_RTL_UMS_THREAD_INFO_CLASS@@0K@Z 100cb620 f   libconcrtd:UMSWrapper.obj
 0002:000476b0       ?UmsThreadYield@UMS@details@Concurrency@@SAHPAX@Z 100cb6b0 f   libconcrtd:UMSWrapper.obj
 0002:00047730       ?UpdateProcThreadAttribute@UMS@details@Concurrency@@SAHPAU_PROC_THREAD_ATTRIBUTE_LIST@@KKPAXK1PAK@Z 100cb730 f   libconcrtd:UMSWrapper.obj
 0002:000477d0       ??0IExecutionContext@Concurrency@@QAE@XZ 100cb7d0 f i libconcrtd:UMSSchedulingContext.obj
 0002:000477f0       ??0UMSSchedulingContext@details@Concurrency@@QAE@PAVUMSThreadScheduler@12@PAVUMSThreadVirtualProcessor@12@@Z 100cb7f0 f   libconcrtd:UMSSchedulingContext.obj
 0002:00047860       ??0WorkItem@details@Concurrency@@QAE@XZ 100cb860 f i libconcrtd:UMSSchedulingContext.obj
 0002:00047890       ?ClaimBoundProcessorAndSwallowActivation@UMSSchedulingContext@details@Concurrency@@AAEXXZ 100cb890 f   libconcrtd:UMSSchedulingContext.obj
 0002:000478f0       ?ClearDebugBits@InternalContextBase@details@Concurrency@@QAEXK@Z 100cb8f0 f i libconcrtd:UMSSchedulingContext.obj
 0002:00047920       ?Dispatch@UMSSchedulingContext@details@Concurrency@@UAEXPAUDispatchState@3@@Z 100cb920 f   libconcrtd:UMSSchedulingContext.obj
 0002:00048080       ?FastCurrentSchedulingContext@UMSThreadScheduler@details@Concurrency@@SAPAVUMSSchedulingContext@23@XZ 100cc080 f i libconcrtd:UMSSchedulingContext.obj
 0002:000480a0       ?GetContext@WorkItem@details@Concurrency@@QBEPAVInternalContextBase@23@XZ 100cc0a0 f i libconcrtd:UMSSchedulingContext.obj
 0002:000480e0       ?GetDebugBits@InternalContextBase@details@Concurrency@@QBEKXZ 100cc0e0 f i libconcrtd:UMSSchedulingContext.obj
 0002:00048100       ?GetExecutingContext@VirtualProcessor@details@Concurrency@@QAEPAUIExecutionContext@3@XZ 100cc100 f i libconcrtd:UMSSchedulingContext.obj
 0002:00048120       ?GetId@UMSSchedulingContext@details@Concurrency@@UBEIXZ 100cc120 f   libconcrtd:UMSSchedulingContext.obj
 0002:00048140       ?GetOwningRing@VirtualProcessor@details@Concurrency@@QAEPAVSchedulingRing@23@XZ 100cc140 f i libconcrtd:UMSSchedulingContext.obj
 0002:00048160       ?GetProxy@UMSSchedulingContext@details@Concurrency@@UAEPAUIThreadProxy@3@XZ 100cc160 f   libconcrtd:UMSSchedulingContext.obj
 0002:00048180       ?GetScheduler@UMSSchedulingContext@details@Concurrency@@UAEPAUIScheduler@3@XZ 100cc180 f   libconcrtd:UMSSchedulingContext.obj
 0002:000481d0       ?IsAvailable@VirtualProcessor@details@Concurrency@@QAE_NXZ 100cc1d0 f i libconcrtd:UMSSchedulingContext.obj
 0002:00048210       ?OnPrimary@UMSSchedulingContext@details@Concurrency@@SA_NXZ 100cc210 f   libconcrtd:UMSSchedulingContext.obj
 0002:00048240       ?Search@WorkSearchContext@details@Concurrency@@QAE_NPAVWorkItem@23@PAVScheduleGroupSegmentBase@23@_NK@Z 100cc240 f i libconcrtd:UMSSchedulingContext.obj
 0002:00048290       ?SearchForWork@VirtualProcessor@details@Concurrency@@QAE_NPAVWorkItem@23@PAVScheduleGroupSegmentBase@23@_NK@Z 100cc290 f i libconcrtd:UMSSchedulingContext.obj
 0002:000482d0       ?SetAsCurrentTls@UMSSchedulingContext@details@Concurrency@@AAEXXZ 100cc2d0 f i libconcrtd:UMSSchedulingContext.obj
 0002:00048300       ?SetBlockingType@UMSThreadInternalContext@details@Concurrency@@AAEXW4BlockingType@123@@Z 100cc300 f i libconcrtd:UMSSchedulingContext.obj
 0002:00048320       ?SetProxy@UMSSchedulingContext@details@Concurrency@@UAEXPAUIThreadProxy@3@@Z 100cc320 f   libconcrtd:UMSSchedulingContext.obj
 0002:00048370       ?SetUMSBlocked@UMSSchedulingContext@details@Concurrency@@AAEXPAVUMSThreadInternalContext@23@_N@Z 100cc370 f   libconcrtd:UMSSchedulingContext.obj
 0002:00048410       ?UNSAFE_CurrentVirtualProcessor@InternalContextBase@details@Concurrency@@IBEPAVVirtualProcessor@23@XZ 100cc410 f i libconcrtd:UMSSchedulingContext.obj
 0002:00048430       ??0IThreadProxy@Concurrency@@QAE@XZ 100cc430 f i libconcrtd:UMSThreadProxy.obj
 0002:00048450       ??0IUMSThreadProxy@Concurrency@@QAE@XZ 100cc450 f i libconcrtd:UMSThreadProxy.obj
 0002:00048480       ??0IUMSUnblockNotification@Concurrency@@QAE@XZ 100cc480 f i libconcrtd:UMSThreadProxy.obj
 0002:000484a0       ??0UMSBaseObject@details@Concurrency@@QAE@XZ 100cc4a0 f i libconcrtd:UMSThreadProxy.obj
 0002:000484c0       ??0UMSThreadProxy@details@Concurrency@@QAE@PAUIThreadProxyFactory@12@PAXI@Z 100cc4c0 f   libconcrtd:UMSThreadProxy.obj
 0002:00048990       ??0scheduler_worker_creation_error@Concurrency@@QAE@ABV01@@Z 100cc990 f i libconcrtd:UMSThreadProxy.obj
 0002:000489c0       ??1UMSThreadProxy@details@Concurrency@@UAE@XZ 100cc9c0 f   libconcrtd:UMSThreadProxy.obj
 0002:00048b30       ??_EUMSBaseObject@details@Concurrency@@UAEPAXI@Z 100ccb30 f i libconcrtd:UMSThreadProxy.obj
 0002:00048b30       ??_GUMSBaseObject@details@Concurrency@@UAEPAXI@Z 100ccb30 f i libconcrtd:UMSThreadProxy.obj
 0002:00048b70       ??_EUMSThreadProxy@details@Concurrency@@UAEPAXI@Z 100ccb70 f i libconcrtd:UMSThreadProxy.obj
 0002:00048b70       ??_GUMSThreadProxy@details@Concurrency@@UAEPAXI@Z 100ccb70 f i libconcrtd:UMSThreadProxy.obj
 0002:00048bb0       ?Cancel@UMSThreadProxy@details@Concurrency@@QAEXXZ 100ccbb0 f   libconcrtd:UMSThreadProxy.obj
 0002:00048bd0       ?Deactivate@UMSThreadProxy@details@Concurrency@@IAE_NXZ 100ccbd0 f   libconcrtd:UMSThreadProxy.obj
 0002:00048d30       ?EnterCriticalRegion@UMSThreadProxy@details@Concurrency@@UAEHXZ 100ccd30 f i libconcrtd:UMSThreadProxy.obj
 0002:00048d90       ?EnterHyperCriticalRegion@UMSThreadProxy@details@Concurrency@@UAEHXZ 100ccd90 f i libconcrtd:UMSThreadProxy.obj
 0002:00048de0       ?ExitCriticalRegion@UMSThreadProxy@details@Concurrency@@UAEHXZ 100ccde0 f i libconcrtd:UMSThreadProxy.obj
 0002:00048e40       ?ExitHyperCriticalRegion@UMSThreadProxy@details@Concurrency@@UAEHXZ 100cce40 f i libconcrtd:UMSThreadProxy.obj
 0002:00048ee0       ?ForceEnterHyperCriticalRegion@UMSThreadProxy@details@Concurrency@@QAEHXZ 100ccee0 f i libconcrtd:UMSThreadProxy.obj
 0002:00048f30       ?FreeViaExit@UMSThreadProxy@details@Concurrency@@IAEXXZ 100ccf30 f   libconcrtd:UMSThreadProxy.obj
 0002:00048fc0       ?FromListEntry@UMSThreadProxy@details@Concurrency@@SAPAV123@PAU_SINGLE_LIST_ENTRY@@@Z 100ccfc0 f   libconcrtd:UMSThreadProxy.obj
 0002:00048fe0       ?FromUMSContext@UMSThreadProxy@details@Concurrency@@SAPAV123@PAX@Z 100ccfe0 f   libconcrtd:UMSThreadProxy.obj
 0002:000490e0       ?GetCriticalRegionType@UMSThreadProxy@details@Concurrency@@UBE?AW4CriticalRegionType@3@XZ 100cd0e0 f i libconcrtd:UMSThreadProxy.obj
 0002:00049120       ?GetExecutingProxy@UMSFreeVirtualProcessorRoot@details@Concurrency@@QAEPAVUMSThreadProxy@23@XZ 100cd120 f i libconcrtd:UMSThreadProxy.obj
 0002:00049140       ?GetId@UMSThreadProxy@details@Concurrency@@UBEIXZ 100cd140 f   libconcrtd:UMSThreadProxy.obj
 0002:00049160       ?GetNextUnblockNotification@UMSThreadProxy@details@Concurrency@@UAEPAUIUMSUnblockNotification@3@XZ 100cd160 f i libconcrtd:UMSThreadProxy.obj
 0002:000491d0       ?GetThreadProxyId@ResourceManager@details@Concurrency@@SAIXZ 100cd1d0 f i libconcrtd:UMSThreadProxy.obj
 0002:000491f0       ?GetTransmogrificator@UMSFreeThreadProxyFactory@details@Concurrency@@QAEPAVTransmogrificator@23@XZ 100cd1f0 f i libconcrtd:UMSThreadProxy.obj
 0002:00049210       ?InternalSwitchOut@UMSThreadProxy@details@Concurrency@@IAEXW4SwitchingProxyState@3@@Z 100cd210 f   libconcrtd:UMSThreadProxy.obj
 0002:00049350       ?InternalSwitchTo@UMSThreadProxy@details@Concurrency@@IAEXPAV123@W4SwitchingProxyState@3@@Z 100cd350 f   libconcrtd:UMSThreadProxy.obj
 0002:00049540       ?InternalYieldToSystem@UMSThreadProxy@details@Concurrency@@IAEXXZ 100cd540 f   libconcrtd:UMSThreadProxy.obj
 0002:00049670       ?IsDeleting@UMSFreeVirtualProcessorRoot@details@Concurrency@@QBE_NXZ 100cd670 f i libconcrtd:UMSThreadProxy.obj
 0002:00049690       ?IsPrimary@UMSThreadProxy@details@Concurrency@@UAE_NXZ 100cd690 f i libconcrtd:UMSThreadProxy.obj
 0002:000496a0       ?IsSuspended@UMSThreadProxy@details@Concurrency@@QAE_NXZ 100cd6a0 f   libconcrtd:UMSThreadProxy.obj
 0002:00049700       ?IsTerminated@UMSThreadProxy@details@Concurrency@@QAE_NXZ 100cd700 f   libconcrtd:UMSThreadProxy.obj
 0002:00049760       ?NotifyTransmogrification@UMSThreadProxy@details@Concurrency@@QAEXXZ 100cd760 f   libconcrtd:UMSThreadProxy.obj
 0002:000497f0       ?PrepareToRun@UMSThreadProxy@details@Concurrency@@IAEXPAVUMSFreeVirtualProcessorRoot@23@@Z 100cd7f0 f   libconcrtd:UMSThreadProxy.obj
 0002:00049840       ?ReadyForDispatch@UMSThreadProxy@details@Concurrency@@AAEXXZ 100cd840 f   libconcrtd:UMSThreadProxy.obj
 0002:000498a0       ?RequestTransmogrification@UMSThreadProxy@details@Concurrency@@IAEXXZ 100cd8a0 f   libconcrtd:UMSThreadProxy.obj
 0002:00049930       ?SetPriority@UMSThreadProxy@details@Concurrency@@QAEXH@Z 100cd930 f   libconcrtd:UMSThreadProxy.obj
 0002:000499a0       ?SpinOnAndReturnBlockingType@UMSThreadProxy@details@Concurrency@@IAE?AW4BlockingType@123@XZ 100cd9a0 f   libconcrtd:UMSThreadProxy.obj
 0002:000499f0       ?SpinUntilBlocked@UMSThreadProxy@details@Concurrency@@IAEXXZ 100cd9f0 f   libconcrtd:UMSThreadProxy.obj
 0002:00049a40       ?UMSThreadProxyMain@UMSThreadProxy@details@Concurrency@@CGKPAX@Z 100cda40 f   libconcrtd:UMSThreadProxy.obj
 0002:00049b30       ??$_InternalDeleteHelper@VWorkQueue@details@Concurrency@@@details@Concurrency@@YAXPAVWorkQueue@01@@Z 100cdb30 f i libconcrtd:ContextBase.obj
 0002:00049b70       ??0?$Hash@PAV_TaskCollection@details@Concurrency@@PAV123@@details@Concurrency@@QAE@H@Z 100cdb70 f i libconcrtd:ContextBase.obj
 0002:00049c10       ??0?$List@UListEntry@details@Concurrency@@VNoCount@CollectionTypes@23@@details@Concurrency@@QAE@XZ 100cdc10 f i libconcrtd:ContextBase.obj
 0002:00049c30       ??0?$SafeRWList@UListEntry@details@Concurrency@@VNoCount@CollectionTypes@23@V_ReaderWriterLock@23@@details@Concurrency@@QAE@XZ 100cdc30 f i libconcrtd:ContextBase.obj
 0002:00049c60       ??0ArrayNode@?$ListArray@VWorkQueue@details@Concurrency@@@details@Concurrency@@QAE@PAPAVWorkQueue@23@@Z 100cdc60 f i libconcrtd:ContextBase.obj
 0002:00049ca0       ??0CancellationBeaconNode@CancellationBeaconStack@ContextBase@details@Concurrency@@QAE@XZ 100cdca0 f i libconcrtd:ContextBase.obj
 0002:00049d00       ??0CancellationBeaconStack@ContextBase@details@Concurrency@@QAE@XZ 100cdd00 f i libconcrtd:ContextBase.obj
 0002:00049d60       ??0Context@Concurrency@@QAE@XZ 100cdd60 f i libconcrtd:ContextBase.obj
 0002:00049d80       ??0ContextBase@details@Concurrency@@QAE@PAVSchedulerBase@12@_N@Z 100cdd80 f   libconcrtd:ContextBase.obj
 0002:00049fb0       ??0Slot@?$Mailbox@V_UnrealizedChore@details@Concurrency@@@details@Concurrency@@QAE@ABV0123@@Z 100cdfb0 f i libconcrtd:ContextBase.obj
 0002:00049fe0       ??0_Cancellation_beacon@details@Concurrency@@QAE@XZ 100cdfe0 f   libconcrtd:ContextBase.obj
 0002:0004a010       ??0_Scoped_lock@_CriticalNonReentrantLock@details@Concurrency@@QAE@AAV123@@Z 100ce010 f i libconcrtd:ContextBase.obj
 0002:0004a040       ??0_Scoped_lock_read@?$SafeRWList@UListEntry@details@Concurrency@@VNoCount@CollectionTypes@23@V_ReaderWriterLock@23@@details@Concurrency@@QAE@AAV123@@Z 100ce040 f i libconcrtd:ContextBase.obj
 0002:0004a070       ??1?$Hash@PAV_TaskCollection@details@Concurrency@@PAV123@@details@Concurrency@@QAE@XZ 100ce070 f i libconcrtd:ContextBase.obj
 0002:0004a0e0       ??1?$StructuredWorkStealingQueue@V_UnrealizedChore@details@Concurrency@@V_CriticalNonReentrantLock@23@@details@Concurrency@@QAE@XZ 100ce0e0 f i libconcrtd:ContextBase.obj
 0002:0004a130       ??1?$WorkStealingQueue@V_UnrealizedChore@details@Concurrency@@V_CriticalNonReentrantLock@23@@details@Concurrency@@QAE@XZ 100ce130 f i libconcrtd:ContextBase.obj
 0002:0004a180       ??1CancellationBeaconNode@CancellationBeaconStack@ContextBase@details@Concurrency@@QAE@XZ 100ce180 f i libconcrtd:ContextBase.obj
 0002:0004a1b0       ??1CancellationBeaconStack@ContextBase@details@Concurrency@@QAE@XZ 100ce1b0 f i libconcrtd:ContextBase.obj
 0002:0004a250       ??1Context@Concurrency@@MAE@XZ 100ce250 f i libconcrtd:ContextBase.obj
 0002:0004a270       ??1ContextBase@details@Concurrency@@UAE@XZ 100ce270 f i libconcrtd:ContextBase.obj
 0002:0004a2b0       ??1Segment@?$Mailbox@V_UnrealizedChore@details@Concurrency@@@details@Concurrency@@QAE@XZ 100ce2b0 f i libconcrtd:ContextBase.obj
 0002:0004a2f0       ??1WorkQueue@details@Concurrency@@QAE@XZ 100ce2f0 f i libconcrtd:ContextBase.obj
 0002:0004a320       ??1_Cancellation_beacon@details@Concurrency@@QAE@XZ 100ce320 f   libconcrtd:ContextBase.obj
 0002:0004a380       ??1_Scoped_lock@_CriticalNonReentrantLock@details@Concurrency@@QAE@XZ 100ce380 f i libconcrtd:ContextBase.obj
 0002:0004a3d0       ??1_Scoped_lock_read@?$SafeRWList@UListEntry@details@Concurrency@@VNoCount@CollectionTypes@23@V_ReaderWriterLock@23@@details@Concurrency@@QAE@XZ 100ce3d0 f i libconcrtd:ContextBase.obj
 0002:0004a420       ??4Slot@?$Mailbox@V_UnrealizedChore@details@Concurrency@@@details@Concurrency@@QAEAAV0123@ABV0123@@Z 100ce420 f i libconcrtd:ContextBase.obj
 0002:0004a450       ??8location@Concurrency@@QBE_NABV01@@Z 100ce450 f i libconcrtd:ContextBase.obj
 0002:0004a4b0       ??9location@Concurrency@@QBE_NABV01@@Z 100ce4b0 f i libconcrtd:ContextBase.obj
 0002:0004a500       ??ACancellationBeaconStack@ContextBase@details@Concurrency@@QAEPAUCancellationBeacon@123@J@Z 100ce500 f i libconcrtd:ContextBase.obj
 0002:0004a5b0       ??B_Atomic_long@std@@QBEJXZ 100ce5b0 f i libconcrtd:ContextBase.obj
 0002:0004a5d0       ??_GCancellationBeaconNode@CancellationBeaconStack@ContextBase@details@Concurrency@@QAEPAXI@Z 100ce5d0 f i libconcrtd:ContextBase.obj
 0002:0004a610       ??_EContext@Concurrency@@MAEPAXI@Z 100ce610 f i libconcrtd:ContextBase.obj
 0002:0004a610       ??_GContext@Concurrency@@MAEPAXI@Z 100ce610 f i libconcrtd:ContextBase.obj
 0002:0004a650       ??_EContextBase@details@Concurrency@@UAEPAXI@Z 100ce650 f i libconcrtd:ContextBase.obj
 0002:0004a650       ??_GContextBase@details@Concurrency@@UAEPAXI@Z 100ce650 f i libconcrtd:ContextBase.obj
 0002:0004a690       ??_GSegment@?$Mailbox@V_UnrealizedChore@details@Concurrency@@@details@Concurrency@@QAEPAXI@Z 100ce690 f i libconcrtd:ContextBase.obj
 0002:0004a6d0       ??_GWorkQueue@details@Concurrency@@QAEPAXI@Z 100ce6d0 f i libconcrtd:ContextBase.obj
 0002:0004a710       ??_G_TaskCollection@details@Concurrency@@QAEPAXI@Z 100ce710 f i libconcrtd:ContextBase.obj
 0002:0004a750       ?AcquirePushBeacon@CancellationBeaconStack@ContextBase@details@Concurrency@@QAEPAUCancellationBeacon@234@H@Z 100ce750 f i libconcrtd:ContextBase.obj
 0002:0004a7d0       ?AcquireRead@?$SafeRWList@UListEntry@details@Concurrency@@VNoCount@CollectionTypes@23@V_ReaderWriterLock@23@@details@Concurrency@@QBEXXZ 100ce7d0 f i libconcrtd:ContextBase.obj
 0002:0004a7f0       ?AcquireWrite@?$SafeRWList@UListEntry@details@Concurrency@@VNoCount@CollectionTypes@23@V_ReaderWriterLock@23@@details@Concurrency@@QBEXXZ 100ce7f0 f i libconcrtd:ContextBase.obj
 0002:0004a810       ?Add@?$ListArray@VWorkQueue@details@Concurrency@@@details@Concurrency@@QAEHPAVWorkQueue@23@@Z 100ce810 f i libconcrtd:ContextBase.obj
 0002:0004ac00       ?AddStealer@ContextBase@details@Concurrency@@QAEXPAV123@_N@Z 100cec00 f   libconcrtd:ContextBase.obj
 0002:0004ac50       ?AddTail@?$List@UListEntry@details@Concurrency@@VNoCount@CollectionTypes@23@@details@Concurrency@@QAEXPAUListEntry@23@@Z 100cec50 f i libconcrtd:ContextBase.obj
 0002:0004ad10       ?AddTail@?$SafeRWList@UListEntry@details@Concurrency@@VNoCount@CollectionTypes@23@V_ReaderWriterLock@23@@details@Concurrency@@QAEXPAUListEntry@23@@Z 100ced10 f i libconcrtd:ContextBase.obj
 0002:0004ada0       ?BeaconCount@CancellationBeaconStack@ContextBase@details@Concurrency@@QBEJXZ 100ceda0 f i libconcrtd:ContextBase.obj
 0002:0004adc0       ?CancelCollection@ContextBase@details@Concurrency@@QAEXH@Z 100cedc0 f   libconcrtd:ContextBase.obj
 0002:0004aeb0       ?CancelCollectionComplete@ContextBase@details@Concurrency@@QAE_NH@Z 100ceeb0 f   libconcrtd:ContextBase.obj
 0002:0004af60       ?CancelEntireContext@ContextBase@details@Concurrency@@QAEXXZ 100cef60 f i libconcrtd:ContextBase.obj
 0002:0004af90       ?CancelStealers@ContextBase@details@Concurrency@@QAEXPAV_TaskCollectionBase@23@@Z 100cef90 f   libconcrtd:ContextBase.obj
 0002:0004b270       ?CheckForDeletion@?$ListArray@VWorkQueue@details@Concurrency@@@details@Concurrency@@AAEXXZ 100cf270 f i libconcrtd:ContextBase.obj
 0002:0004b2d0       ?CheckForDeletionBridge@?$ListArray@VWorkQueue@details@Concurrency@@@details@Concurrency@@CAXPAV123@@Z 100cf2d0 f i libconcrtd:ContextBase.obj
 0002:0004b2e0       ?Claim@Slot@?$Mailbox@V_UnrealizedChore@details@Concurrency@@@details@Concurrency@@QAE_NPAPAV_UnrealizedChore@34@@Z 100cf2e0 f i libconcrtd:ContextBase.obj
 0002:0004b3b0       ?Cleanup@ContextBase@details@Concurrency@@QAEXXZ 100cf3b0 f   libconcrtd:ContextBase.obj
 0002:0004b410       ?ClearAliasTable@ContextBase@details@Concurrency@@QAEXXZ 100cf410 f   libconcrtd:ContextBase.obj
 0002:0004b490       ?ClearContextTls@ContextBase@details@Concurrency@@AAEXXZ 100cf490 f   libconcrtd:ContextBase.obj
 0002:0004b510       ?ConfirmCancel@ContextBase@details@Concurrency@@QAE_NPAU_Beacon_reference@23@@Z 100cf510 f i libconcrtd:ContextBase.obj
 0002:0004b540       ?Count@?$Hash@PAV_TaskCollection@details@Concurrency@@PAV123@@details@Concurrency@@QBEHXZ 100cf540 f i libconcrtd:ContextBase.obj
 0002:0004b560       ?Count@?$StructuredWorkStealingQueue@V_UnrealizedChore@details@Concurrency@@V_CriticalNonReentrantLock@23@@details@Concurrency@@QBEHXZ 100cf560 f i libconcrtd:ContextBase.obj
 0002:0004b580       ?CreateStructuredWorkQueue@ContextBase@details@Concurrency@@QAEXXZ 100cf580 f   libconcrtd:ContextBase.obj
 0002:0004b720       ?CreateWorkQueue@ContextBase@details@Concurrency@@QAEXXZ 100cf720 f   libconcrtd:ContextBase.obj
 0002:0004b8b0       ?Delete@?$Hash@PAV_TaskCollection@details@Concurrency@@PAV123@@details@Concurrency@@QAE_NABQAV_TaskCollection@23@@Z 100cf8b0 f i libconcrtd:ContextBase.obj
 0002:0004b8e0       ?DeleteElements@?$ListArray@VWorkQueue@details@Concurrency@@@details@Concurrency@@AAEXPAU_SINGLE_LIST_ENTRY@@@Z 100cf8e0 f i libconcrtd:ContextBase.obj
 0002:0004b930       ?DeleteKey@?$Hash@PAV_TaskCollection@details@Concurrency@@PAV123@@details@Concurrency@@CAXAAPAV_TaskCollection@23@@Z 100cf930 f i libconcrtd:ContextBase.obj
 0002:0004b940       ?DeleteValue@?$Hash@PAV_TaskCollection@details@Concurrency@@PAV123@@details@Concurrency@@CAXAAPAV_TaskCollection@23@@Z 100cf940 f i libconcrtd:ContextBase.obj
 0002:0004b950       ?Dereference@Segment@?$Mailbox@V_UnrealizedChore@details@Concurrency@@@details@Concurrency@@QAEXXZ 100cf950 f i libconcrtd:ContextBase.obj
 0002:0004b980       ?DereferenceForCancellation@ContextBase@details@Concurrency@@QAEXXZ 100cf980 f   libconcrtd:ContextBase.obj
 0002:0004b9a0       ?DetachStealers@ContextBase@details@Concurrency@@QAEXXZ 100cf9a0 f   libconcrtd:ContextBase.obj
 0002:0004bc60       ?Empty@?$List@UListEntry@details@Concurrency@@VNoCount@CollectionTypes@23@@details@Concurrency@@QBE_NXZ 100cfc60 f i libconcrtd:ContextBase.obj
 0002:0004bca0       ?Empty@?$WorkStealingQueue@V_UnrealizedChore@details@Concurrency@@V_CriticalNonReentrantLock@23@@details@Concurrency@@QBE_NXZ 100cfca0 f i libconcrtd:ContextBase.obj
 0002:0004bce0       ?EnterCriticalRegion@ContextBase@details@Concurrency@@QAEHXZ 100cfce0 f   libconcrtd:ContextBase.obj
 0002:0004bd30       ?EnterCriticalRegionHelper@ContextBase@details@Concurrency@@UAEHXZ 100cfd30 f i libconcrtd:ContextBase.obj
 0002:0004bd90       ?EnterHyperCriticalRegion@ContextBase@details@Concurrency@@QAEHXZ 100cfd90 f   libconcrtd:ContextBase.obj
 0002:0004bde0       ?EnterHyperCriticalRegionHelper@ContextBase@details@Concurrency@@UAEHXZ 100cfde0 f i libconcrtd:ContextBase.obj
 0002:0004be30       ?ExitCriticalRegion@ContextBase@details@Concurrency@@QAEHXZ 100cfe30 f   libconcrtd:ContextBase.obj
 0002:0004be80       ?ExitCriticalRegionHelper@ContextBase@details@Concurrency@@UAEHXZ 100cfe80 f i libconcrtd:ContextBase.obj
 0002:0004bf10       ?ExitHyperCriticalRegion@ContextBase@details@Concurrency@@QAEHXZ 100cff10 f   libconcrtd:ContextBase.obj
 0002:0004bf60       ?ExitHyperCriticalRegionHelper@ContextBase@details@Concurrency@@UAEHXZ 100cff60 f i libconcrtd:ContextBase.obj
 0002:0004c000       ?Expire@Segment@?$Mailbox@V_UnrealizedChore@details@Concurrency@@@details@Concurrency@@QAEXXZ 100d0000 f i libconcrtd:ContextBase.obj
 0002:0004c030       ?FindAndDelete@?$Hash@PAV_TaskCollection@details@Concurrency@@PAV123@@details@Concurrency@@QAE_NABQAV_TaskCollection@23@PAPAV423@@Z 100d0030 f i libconcrtd:ContextBase.obj
 0002:0004c0a0       ?First@?$Hash@PAV_TaskCollection@details@Concurrency@@PAV123@@details@Concurrency@@QAEPAUListNode@123@PAH@Z 100d00a0 f i libconcrtd:ContextBase.obj
 0002:0004c110       ?First@?$List@UListEntry@details@Concurrency@@VNoCount@CollectionTypes@23@@details@Concurrency@@QBEPAUListEntry@23@XZ 100d0110 f i libconcrtd:ContextBase.obj
 0002:0004c150       ?FlagCancellationBeacons@ContextBase@details@Concurrency@@QAEXH@Z 100d0150 f   libconcrtd:ContextBase.obj
 0002:0004c1f0       ?FlushWriteOwners@?$SafeRWList@UListEntry@details@Concurrency@@VNoCount@CollectionTypes@23@V_ReaderWriterLock@23@@details@Concurrency@@QBEXXZ 100d01f0 f i libconcrtd:ContextBase.obj
 0002:0004c210       ?FreeNode@?$Hash@PAV_TaskCollection@details@Concurrency@@PAV123@@details@Concurrency@@CAXPAUListNode@123@@Z 100d0210 f i libconcrtd:ContextBase.obj
 0002:0004c260       ?GetAffinity@ScheduleGroupSegmentBase@details@Concurrency@@IBEABVlocation@3@XZ 100d0260 f i libconcrtd:ContextBase.obj
 0002:0004c280       ?GetCriticalRegionType@ContextBase@details@Concurrency@@UBE?AW4CriticalRegionType@3@XZ 100d0280 f i libconcrtd:ContextBase.obj
 0002:0004c2c0       ?GetGroup@ScheduleGroupSegmentBase@details@Concurrency@@QBEPAVScheduleGroupBase@23@XZ 100d02c0 f i libconcrtd:ContextBase.obj
 0002:0004c2e0       ?GetId@ContextBase@details@Concurrency@@UBEIXZ 100d02e0 f   libconcrtd:ContextBase.obj
 0002:0004c300       ?GetIndirectAlias@ContextBase@details@Concurrency@@QBEPAV_TaskCollection@23@XZ 100d0300 f   libconcrtd:ContextBase.obj
 0002:0004c320       ?GetRootCollection@ContextBase@details@Concurrency@@QAEPAV_TaskCollectionBase@23@XZ 100d0320 f i libconcrtd:ContextBase.obj
 0002:0004c340       ?GetScheduleGroup@ContextBase@details@Concurrency@@QBEPAVScheduleGroupBase@23@XZ 100d0340 f   libconcrtd:ContextBase.obj
 0002:0004c380       ?GetScheduleGroupId@ContextBase@details@Concurrency@@UBEIXZ 100d0380 f   libconcrtd:ContextBase.obj
 0002:0004c3e0       ?GetScheduleGroupSegment@ContextBase@details@Concurrency@@QBEPAVScheduleGroupSegmentBase@23@XZ 100d03e0 f   libconcrtd:ContextBase.obj
 0002:0004c400       ?GetScheduler@ContextBase@details@Concurrency@@QBEPAVSchedulerBase@23@XZ 100d0400 f   libconcrtd:ContextBase.obj
 0002:0004c420       ?GetStructuredWorkQueue@ContextBase@details@Concurrency@@QAEPAVWorkQueue@23@XZ 100d0420 f i libconcrtd:ContextBase.obj
 0002:0004c450       ?GetWorkQueue@ContextBase@details@Concurrency@@QAEPAVWorkQueue@23@XZ 100d0450 f i libconcrtd:ContextBase.obj
 0002:0004c480       ?Grow@CancellationBeaconStack@ContextBase@details@Concurrency@@AAEXXZ 100d0480 f i libconcrtd:ContextBase.obj
 0002:0004c6c0       ?GrowAndPush@?$StructuredWorkStealingQueue@V_UnrealizedChore@details@Concurrency@@V_CriticalNonReentrantLock@23@@details@Concurrency@@AAEXPAV_UnrealizedChore@23@VSlot@?$Mailbox@V_UnrealizedChore@details@Concurrency@@@23@@Z 100d06c0 f i libconcrtd:ContextBase.obj
 0002:0004c9d0       ?HasAnyCancellation@ContextBase@details@Concurrency@@QBE_NXZ 100d09d0 f i libconcrtd:ContextBase.obj
 0002:0004ca10       ?HasInlineCancellation@ContextBase@details@Concurrency@@QBE_NXZ 100d0a10 f i libconcrtd:ContextBase.obj
 0002:0004ca50       ?HasPendingCancellation@ContextBase@details@Concurrency@@QBE_NXZ 100d0a50 f i libconcrtd:ContextBase.obj
 0002:0004ca90       ?HasVirtualProcessorAvailableForNewWork@SchedulerBase@details@Concurrency@@QBE_NXZ 100d0a90 f i libconcrtd:ContextBase.obj
 0002:0004cae0       ?HashValue@?$Hash@PAV_TaskCollection@details@Concurrency@@PAV123@@details@Concurrency@@CAIABQAV_TaskCollection@23@H@Z 100d0ae0 f i libconcrtd:ContextBase.obj
 0002:0004cba0       ?IncrementEnqueuedTaskCounter@ExternalContextBase@details@Concurrency@@QAEXXZ 100d0ba0 f i libconcrtd:ContextBase.obj
 0002:0004cbc0       ?IncrementEnqueuedTaskCounter@ExternalStatistics@details@Concurrency@@QAEXXZ 100d0bc0 f i libconcrtd:ContextBase.obj
 0002:0004cbe0       ?IncrementEnqueuedTaskCounter@InternalContextBase@details@Concurrency@@QAEXXZ 100d0be0 f i libconcrtd:ContextBase.obj
 0002:0004cc40       ?InternalSignal@CancellationBeacon@ContextBase@details@Concurrency@@QAEXXZ 100d0c40 f i libconcrtd:ContextBase.obj
 0002:0004cc60       ?IsCanceledAtDepth@ContextBase@details@Concurrency@@AAE_NPAV_TaskCollectionBase@23@H@Z 100d0c60 f   libconcrtd:ContextBase.obj
 0002:0004ceb0       ?IsCanceledAtDepth@ContextBase@details@Concurrency@@QAE_NH@Z 100d0eb0 f i libconcrtd:ContextBase.obj
 0002:0004cee0       ?IsCanceledAtDepth@ContextBase@details@Concurrency@@QAE_NPAV_TaskCollectionBase@23@@Z 100d0ee0 f i libconcrtd:ContextBase.obj
 0002:0004cf10       ?IsCancellationVisible@ContextBase@details@Concurrency@@QBE_NPAV_TaskCollectionBase@23@_N@Z 100d0f10 f   libconcrtd:ContextBase.obj
 0002:0004d090       ?IsEmpty@Slot@?$Mailbox@V_UnrealizedChore@details@Concurrency@@@details@Concurrency@@QBE_NXZ 100d1090 f i libconcrtd:ContextBase.obj
 0002:0004d0d0       ?IsEntireContextCanceled@ContextBase@details@Concurrency@@QBE_NXZ 100d10d0 f i libconcrtd:ContextBase.obj
 0002:0004d110       ?IsInsideCriticalRegion@ContextBase@details@Concurrency@@QBE_NXZ 100d1110 f   libconcrtd:ContextBase.obj
 0002:0004d180       ?IsLockHeld@WorkQueue@details@Concurrency@@QBE_NXZ 100d1180 f i libconcrtd:ContextBase.obj
 0002:0004d1a0       ?IsUMSScheduler@SchedulerBase@details@Concurrency@@QBE_NXZ 100d11a0 f i libconcrtd:ContextBase.obj
 0002:0004d1b0       ?IsUnstructuredEmpty@WorkQueue@details@Concurrency@@QBE_NXZ 100d11b0 f i libconcrtd:ContextBase.obj
 0002:0004d1d0       ?LockedSetOwningContext@WorkQueue@details@Concurrency@@QAEXPAVContextBase@23@@Z 100d11d0 f i libconcrtd:ContextBase.obj
 0002:0004d210       ?Next@?$Hash@PAV_TaskCollection@details@Concurrency@@PAV123@@details@Concurrency@@QAEPAUListNode@123@PAHPAU4123@@Z 100d1210 f i libconcrtd:ContextBase.obj
 0002:0004d2b0       ?Next@?$List@UListEntry@details@Concurrency@@VNoCount@CollectionTypes@23@@details@Concurrency@@QBEPAUListEntry@23@PAU423@@Z 100d12b0 f i libconcrtd:ContextBase.obj
 0002:0004d2f0       ?NextList@?$Hash@PAV_TaskCollection@details@Concurrency@@PAV123@@details@Concurrency@@AAEPAUListNode@123@PAH@Z 100d12f0 f i libconcrtd:ContextBase.obj
 0002:0004d3c0       ?Pop@?$StructuredWorkStealingQueue@V_UnrealizedChore@details@Concurrency@@V_CriticalNonReentrantLock@23@@details@Concurrency@@QAEPAV_UnrealizedChore@23@XZ 100d13c0 f i libconcrtd:ContextBase.obj
 0002:0004d470       ?Pop@?$WorkStealingQueue@V_UnrealizedChore@details@Concurrency@@V_CriticalNonReentrantLock@23@@details@Concurrency@@QAEPAV_UnrealizedChore@23@XZ 100d1470 f i libconcrtd:ContextBase.obj
 0002:0004d550       ?PopCancellationBeacon@ContextBase@details@Concurrency@@QAEXXZ 100d1550 f   libconcrtd:ContextBase.obj
 0002:0004d570       ?PopContextFromTls@ContextBase@details@Concurrency@@AAEPAV123@XZ 100d1570 f   libconcrtd:ContextBase.obj
 0002:0004d5c0       ?PopGoverningTokenState@ContextBase@details@Concurrency@@QAEXPAV_CancellationTokenState@23@@Z 100d15c0 f   libconcrtd:ContextBase.obj
 0002:0004d7b0       ?PopStructured@ContextBase@details@Concurrency@@QAEPAV_UnrealizedChore@23@XZ 100d17b0 f   libconcrtd:ContextBase.obj
 0002:0004d820       ?PopStructured@WorkQueue@details@Concurrency@@QAEPAV_UnrealizedChore@23@XZ 100d1820 f i libconcrtd:ContextBase.obj
 0002:0004d840       ?PullFromFreePool@?$ListArray@VWorkQueue@details@Concurrency@@@details@Concurrency@@QAEPAVWorkQueue@23@XZ 100d1840 f i libconcrtd:ContextBase.obj
 0002:0004d880       ?Push@?$StructuredWorkStealingQueue@V_UnrealizedChore@details@Concurrency@@V_CriticalNonReentrantLock@23@@details@Concurrency@@QAEXPAV_UnrealizedChore@23@@Z 100d1880 f i libconcrtd:ContextBase.obj
 0002:0004d900       ?Push@?$StructuredWorkStealingQueue@V_UnrealizedChore@details@Concurrency@@V_CriticalNonReentrantLock@23@@details@Concurrency@@QAEXPAV_UnrealizedChore@23@VSlot@?$Mailbox@V_UnrealizedChore@details@Concurrency@@@23@@Z 100d1900 f i libconcrtd:ContextBase.obj
 0002:0004d9c0       ?Push@?$WorkStealingQueue@V_UnrealizedChore@details@Concurrency@@V_CriticalNonReentrantLock@23@@details@Concurrency@@QAEHPAV_UnrealizedChore@23@@Z 100d19c0 f i libconcrtd:ContextBase.obj
 0002:0004da50       ?Push@?$WorkStealingQueue@V_UnrealizedChore@details@Concurrency@@V_CriticalNonReentrantLock@23@@details@Concurrency@@QAEHPAV_UnrealizedChore@23@VSlot@?$Mailbox@V_UnrealizedChore@details@Concurrency@@@23@@Z 100d1a50 f i libconcrtd:ContextBase.obj
 0002:0004db20       ?PushCancellationBeacon@ContextBase@details@Concurrency@@QAEPAU_Beacon_reference@23@XZ 100d1b20 f   libconcrtd:ContextBase.obj
 0002:0004dbc0       ?PushContextToTls@ContextBase@details@Concurrency@@AAEXPAV123@@Z 100d1bc0 f   libconcrtd:ContextBase.obj
 0002:0004dc50       ?PushGoverningTokenState@ContextBase@details@Concurrency@@QAEXPAV_CancellationTokenState@23@H@Z 100d1c50 f   libconcrtd:ContextBase.obj
 0002:0004dcc0       ?PushStructured@ContextBase@details@Concurrency@@QAEXPAV_UnrealizedChore@23@@Z 100d1cc0 f   libconcrtd:ContextBase.obj
 0002:0004dd90       ?PushStructured@ContextBase@details@Concurrency@@QAEXPAV_UnrealizedChore@23@PAVlocation@3@@Z 100d1d90 f   libconcrtd:ContextBase.obj
 0002:0004df50       ?PushStructured@WorkQueue@details@Concurrency@@QAEXPAV_UnrealizedChore@23@@Z 100d1f50 f i libconcrtd:ContextBase.obj
 0002:0004df70       ?PushStructured@WorkQueue@details@Concurrency@@QAEXPAV_UnrealizedChore@23@VSlot@?$Mailbox@V_UnrealizedChore@details@Concurrency@@@23@@Z 100d1f70 f i libconcrtd:ContextBase.obj
 0002:0004dfa0       ?PushUnstructured@ContextBase@details@Concurrency@@QAEHPAV_UnrealizedChore@23@@Z 100d1fa0 f   libconcrtd:ContextBase.obj
 0002:0004e080       ?PushUnstructured@ContextBase@details@Concurrency@@QAEHPAV_UnrealizedChore@23@PAVlocation@3@@Z 100d2080 f   libconcrtd:ContextBase.obj
 0002:0004e240       ?PushUnstructured@WorkQueue@details@Concurrency@@QAEHPAV_UnrealizedChore@23@@Z 100d2240 f i libconcrtd:ContextBase.obj
 0002:0004e270       ?PushUnstructured@WorkQueue@details@Concurrency@@QAEHPAV_UnrealizedChore@23@VSlot@?$Mailbox@V_UnrealizedChore@details@Concurrency@@@23@@Z 100d2270 f i libconcrtd:ContextBase.obj
 0002:0004e2b0       ?Raise@CancellationBeacon@ContextBase@details@Concurrency@@QAEXXZ 100d22b0 f i libconcrtd:ContextBase.obj
 0002:0004e2d0       ?RecomputeMaximumCancellationDepth@ContextBase@details@Concurrency@@AAEXXZ 100d22d0 f   libconcrtd:ContextBase.obj
 0002:0004e400       ?ReferenceForCancellation@ContextBase@details@Concurrency@@QAEXXZ 100d2400 f   libconcrtd:ContextBase.obj
 0002:0004e420       ?ReleaseBeacon@CancellationBeaconStack@ContextBase@details@Concurrency@@QAEXXZ 100d2420 f i libconcrtd:ContextBase.obj
 0002:0004e490       ?ReleaseRead@?$SafeRWList@UListEntry@details@Concurrency@@VNoCount@CollectionTypes@23@V_ReaderWriterLock@23@@details@Concurrency@@QBEXXZ 100d2490 f i libconcrtd:ContextBase.obj
 0002:0004e4b0       ?ReleaseWorkQueue@ContextBase@details@Concurrency@@IAEXXZ 100d24b0 f   libconcrtd:ContextBase.obj
 0002:0004e570       ?ReleaseWrite@?$SafeRWList@UListEntry@details@Concurrency@@VNoCount@CollectionTypes@23@V_ReaderWriterLock@23@@details@Concurrency@@QBEXXZ 100d2570 f i libconcrtd:ContextBase.obj
 0002:0004e590       ?Remove@?$Hash@PAV_TaskCollection@details@Concurrency@@PAV123@@details@Concurrency@@AAEPAUListNode@123@ABQAV_TaskCollection@23@H@Z 100d2590 f i libconcrtd:ContextBase.obj
 0002:0004e640       ?Remove@?$List@UListEntry@details@Concurrency@@VNoCount@CollectionTypes@23@@details@Concurrency@@QAEXPAUListEntry@23@@Z 100d2640 f i libconcrtd:ContextBase.obj
 0002:0004e710       ?Remove@?$ListArray@VWorkQueue@details@Concurrency@@@details@Concurrency@@QAE_NPAVWorkQueue@23@H_N@Z 100d2710 f i libconcrtd:ContextBase.obj
 0002:0004e9c0       ?Remove@?$ListArray@VWorkQueue@details@Concurrency@@@details@Concurrency@@QAE_NPAVWorkQueue@23@_N@Z 100d29c0 f i libconcrtd:ContextBase.obj
 0002:0004e9f0       ?Remove@?$SafeRWList@UListEntry@details@Concurrency@@VNoCount@CollectionTypes@23@V_ReaderWriterLock@23@@details@Concurrency@@QAEXPAUListEntry@23@@Z 100d29f0 f i libconcrtd:ContextBase.obj
 0002:0004ea80       ?RemoveStealer@ContextBase@details@Concurrency@@QAEXPAV123@@Z 100d2a80 f   libconcrtd:ContextBase.obj
 0002:0004eab0       ?ScheduleGroupRefCount@ContextBase@details@Concurrency@@QBEIXZ 100d2ab0 f   libconcrtd:ContextBase.obj
 0002:0004eaf0       ?SetAsCurrentTls@ContextBase@details@Concurrency@@IAEXXZ 100d2af0 f   libconcrtd:ContextBase.obj
 0002:0004eb20       ?SetIndirectAlias@ContextBase@details@Concurrency@@QAEXPAV_TaskCollection@23@@Z 100d2b20 f   libconcrtd:ContextBase.obj
 0002:0004eb40       ?SetOwningContext@WorkQueue@details@Concurrency@@QAEXPAVContextBase@23@@Z 100d2b40 f i libconcrtd:ContextBase.obj
 0002:0004eb60       ?StaticDelete@Segment@?$Mailbox@V_UnrealizedChore@details@Concurrency@@@details@Concurrency@@SAXPAU1234@@Z 100d2b60 f i libconcrtd:ContextBase.obj
 0002:0004eba0       ?StaticEnterCriticalRegion@ContextBase@details@Concurrency@@SAXXZ 100d2ba0 f   libconcrtd:ContextBase.obj
 0002:0004ebd0       ?StaticEnterHyperCriticalRegion@ContextBase@details@Concurrency@@SAXXZ 100d2bd0 f   libconcrtd:ContextBase.obj
 0002:0004ec00       ?StaticExitCriticalRegion@ContextBase@details@Concurrency@@SAXXZ 100d2c00 f   libconcrtd:ContextBase.obj
 0002:0004ec30       ?StaticExitHyperCriticalRegion@ContextBase@details@Concurrency@@SAXXZ 100d2c30 f   libconcrtd:ContextBase.obj
 0002:0004ec60       ?StaticGetCriticalRegionType@ContextBase@details@Concurrency@@SA?AW4CriticalRegionType@3@XZ 100d2c60 f   libconcrtd:ContextBase.obj
 0002:0004ecb0       ?SweepAliasTable@ContextBase@details@Concurrency@@QAEXXZ 100d2cb0 f   libconcrtd:ContextBase.obj
 0002:0004ed90       ?SweepUnstructured@ContextBase@details@Concurrency@@QAEXP6A_NPAV_UnrealizedChore@23@PAX@Z12@Z 100d2d90 f   libconcrtd:ContextBase.obj
 0002:0004ee10       ?SyncPop@?$WorkStealingQueue@V_UnrealizedChore@details@Concurrency@@V_CriticalNonReentrantLock@23@@details@Concurrency@@AAEPAV_UnrealizedChore@23@XZ 100d2e10 f i libconcrtd:ContextBase.obj
 0002:0004efb0       ?SyncPush@?$WorkStealingQueue@V_UnrealizedChore@details@Concurrency@@V_CriticalNonReentrantLock@23@@details@Concurrency@@AAEHPAV_UnrealizedChore@23@VSlot@?$Mailbox@V_UnrealizedChore@details@Concurrency@@@23@@Z 100d2fb0 f i libconcrtd:ContextBase.obj
 0002:0004f400       ?ThrowContextEvent@ContextBase@details@Concurrency@@KAXW4ConcRT_EventType@3@EKK@Z 100d3400 f   libconcrtd:ContextBase.obj
 0002:0004f4c0       ?TokenHidesCancellation@ContextBase@details@Concurrency@@QBE_NPAV_TaskCollectionBase@23@_N@Z 100d34c0 f   libconcrtd:ContextBase.obj
 0002:0004f5c0       ?TraceContextEvent@ContextBase@details@Concurrency@@IAEXW4ConcRT_EventType@3@EKK@Z 100d35c0 f i libconcrtd:ContextBase.obj
 0002:0004f610       ?TryAcquireWrite@?$SafeRWList@UListEntry@details@Concurrency@@VNoCount@CollectionTypes@23@V_ReaderWriterLock@23@@details@Concurrency@@QBE_NXZ 100d3610 f i libconcrtd:ContextBase.obj
 0002:0004f630       ?TryPop@?$WorkStealingQueue@V_UnrealizedChore@details@Concurrency@@V_CriticalNonReentrantLock@23@@details@Concurrency@@QAEPAV_UnrealizedChore@23@H@Z 100d3630 f i libconcrtd:ContextBase.obj
 0002:0004f700       ?TryPopUnstructured@ContextBase@details@Concurrency@@QAEPAV_UnrealizedChore@23@H@Z 100d3700 f   libconcrtd:ContextBase.obj
 0002:0004f780       ?TryPopUnstructured@WorkQueue@details@Concurrency@@QAEPAV_UnrealizedChore@23@H@Z 100d3780 f i libconcrtd:ContextBase.obj
 0002:0004f7b0       ?UnlockedAddTail@?$SafeRWList@UListEntry@details@Concurrency@@VNoCount@CollectionTypes@23@V_ReaderWriterLock@23@@details@Concurrency@@QAEXPAUListEntry@23@@Z 100d37b0 f i libconcrtd:ContextBase.obj
 0002:0004f820       ?UnlockedRemove@?$SafeRWList@UListEntry@details@Concurrency@@VNoCount@CollectionTypes@23@V_ReaderWriterLock@23@@details@Concurrency@@QAEXPAUListEntry@23@@Z 100d3820 f i libconcrtd:ContextBase.obj
 0002:0004f890       ?Wipe@?$Hash@PAV_TaskCollection@details@Concurrency@@PAV123@@details@Concurrency@@QAEXXZ 100d3890 f i libconcrtd:ContextBase.obj
 0002:0004f940       ?_Atomic_load_4@std@@YAKPCKW4memory_order@1@@Z 100d3940 f i libconcrtd:ContextBase.obj
 0002:0004fa50       ?_CancelState@_TaskCollectionBase@details@Concurrency@@IBEIXZ 100d3a50 f i libconcrtd:ContextBase.obj
 0002:0004fa70       ?_Confirm_cancel@_Cancellation_beacon@details@Concurrency@@QAE_NXZ 100d3a70 f   libconcrtd:ContextBase.obj
 0002:0004fac0       ?_GetCurrentInlineDepth@_StackGuard@details@Concurrency@@CAAAIXZ 100d3ac0 f   libconcrtd:ContextBase.obj
 0002:0004fad0       ?_InliningDepth@_TaskCollectionBase@details@Concurrency@@QBEHXZ 100d3ad0 f i libconcrtd:ContextBase.obj
 0002:0004faf0       ?_IsCanceled@_CancellationTokenState@details@Concurrency@@QBE_NXZ 100d3af0 f i libconcrtd:ContextBase.obj
 0002:0004fb30       ?_IsCurrentlyInlined@_TaskCollectionBase@details@Concurrency@@QBE_NXZ 100d3b30 f i libconcrtd:ContextBase.obj
 0002:0004fb70       ?_IsLockHeld@_CriticalNonReentrantLock@details@Concurrency@@QBE_NXZ 100d3b70 f i libconcrtd:ContextBase.obj
 0002:0004fb90       ?_IsLockHeld@_NonReentrantLock@details@Concurrency@@QBE_NXZ 100d3b90 f i libconcrtd:ContextBase.obj
 0002:0004fbd0       ?_IsMarkedForCancellation@_TaskCollectionBase@details@Concurrency@@IBE_NXZ 100d3bd0 f i libconcrtd:ContextBase.obj
 0002:0004fc10       ?_Load_acquire_4@std@@YAKPCK@Z 100d3c10 f i libconcrtd:ContextBase.obj
 0002:0004fc30       ?_Load_relaxed_4@std@@YAKPCK@Z 100d3c30 f i libconcrtd:ContextBase.obj
 0002:0004fc50       ?_Load_seq_cst_4@std@@YAKPCK@Z 100d3c50 f i libconcrtd:ContextBase.obj
 0002:0004fc70       ?_Lower@_Cancellation_beacon@details@Concurrency@@QAEXXZ 100d3c70 f i libconcrtd:ContextBase.obj
 0002:0004fc90       ?_None@_CancellationTokenState@details@Concurrency@@SAPAV123@XZ 100d3c90 f i libconcrtd:ContextBase.obj
 0002:0004fca0       ?_SafeGetParent@_TaskCollectionBase@details@Concurrency@@IAEPAV123@XZ 100d3ca0 f i libconcrtd:ContextBase.obj
 0002:0004fce0       ?atomic_load@std@@YAJPBU_Atomic_long@1@@Z 100d3ce0 f i libconcrtd:ContextBase.obj
 0002:0004fd00       ?atomic_load_explicit@std@@YAJPBU_Atomic_long@1@W4memory_order@1@@Z 100d3d00 f i libconcrtd:ContextBase.obj
 0002:0004fd60       _MemoryBarrier             100d3d60 f i libconcrtd:ContextBase.obj
 0002:0004fd80       ??0?$LockFreeStack@VSubAllocator@details@Concurrency@@@details@Concurrency@@QAE@XZ 100d3d80 f i libconcrtd:staticinits.obj
 0002:0004fda0       ??$atomic_compare_exchange@J@details@Concurrency@@YAJAAU?$atomic@J@std@@JJ@Z 100d3da0 f i libconcrtd:TaskCollection.obj
 0002:0004fdd0       ??$atomic_exchange@J@details@Concurrency@@YAJAAU?$atomic@J@std@@J@Z 100d3dd0 f i libconcrtd:TaskCollection.obj
 0002:0004fdf0       ??$wait@V<lambda_cf8f1d893b3a87da856048d6f694e263>@@@condition_variable@std@@QAEXAAV?$unique_lock@Vmutex@std@@@1@V<lambda_cf8f1d893b3a87da856048d6f694e263>@@@Z 100d3df0 f i libconcrtd:TaskCollection.obj
 0002:0004fe50       ??0?$_MallocaArrayHolder@PAVevent@Concurrency@@@details@Concurrency@@QAE@XZ 100d3e50 f i libconcrtd:TaskCollection.obj
 0002:0004fe90       ??0?$atomic@J@std@@QAE@J@Z 100d3e90 f i libconcrtd:TaskCollection.obj
 0002:0004feb0       ??0?$lock_guard@Vmutex@std@@@std@@QAE@AAVmutex@1@@Z 100d3eb0 f i libconcrtd:TaskCollection.obj
 0002:0004fee0       ??0?$unique_lock@Vmutex@std@@@std@@QAE@AAVmutex@1@@Z 100d3ee0 f i libconcrtd:TaskCollection.obj
 0002:0004ff20       ??0CancellationTokenRegistration_TaskProc@details@Concurrency@@QAE@P6AXPAX@Z0H@Z 100d3f20 f i libconcrtd:TaskCollection.obj
 0002:0004ff70       ??0ListNode@?$Hash@PAV_TaskCollection@details@Concurrency@@PAV123@@details@Concurrency@@QAE@ABQAV_TaskCollection@23@0@Z 100d3f70 f i libconcrtd:TaskCollection.obj
 0002:0004ffb0       ??0StructuredEvent@details@Concurrency@@QAE@XZ 100d3fb0 f i libconcrtd:TaskCollection.obj
 0002:0004ffd0       ??0SweeperContext@details@Concurrency@@QAE@PAV_TaskCollection@12@@Z 100d3fd0 f i libconcrtd:TaskCollection.obj
 0002:00050000       ??0TaskStack@details@Concurrency@@QAE@XZ 100d4000 f i libconcrtd:TaskCollection.obj
 0002:00050040       ??0_AsyncTaskCollection@details@Concurrency@@AAE@PAV_CancellationTokenState@12@@Z 100d4040 f   libconcrtd:TaskCollection.obj
 0002:000500f0       ??0_CancellationTokenRegistration@details@Concurrency@@QAE@J@Z 100d40f0 f i libconcrtd:TaskCollection.obj
 0002:000501b0       ??0_Interruption_exception@details@Concurrency@@QAE@ABV012@@Z 100d41b0 f i libconcrtd:TaskCollection.obj
 0002:000501e0       ??0_Interruption_exception@details@Concurrency@@QAE@XZ 100d41e0 f i libconcrtd:TaskCollection.obj
 0002:00050210       ??0_Mutex_base@std@@QAE@H@Z 100d4210 f i libconcrtd:TaskCollection.obj
 0002:00050250       ??0_Node@TokenRegistrationContainer@_CancellationTokenState@details@Concurrency@@QAE@PAV_CancellationTokenRegistration@34@@Z 100d4250 f i libconcrtd:TaskCollection.obj
 0002:00050280       ??0_RefCounter@details@Concurrency@@IAE@J@Z 100d4280 f i libconcrtd:TaskCollection.obj
 0002:000502f0       ??0_RefCounterBase@details@Concurrency@@IAE@J@Z 100d42f0 f i libconcrtd:TaskCollection.obj
 0002:00050360       ??0_StructuredTaskCollection@details@Concurrency@@QAE@PAV_CancellationTokenState@12@@Z 100d4360 f   libconcrtd:TaskCollection.obj
 0002:00050460       ??0_TaskCollection@details@Concurrency@@AAE@PAV012@_N@Z 100d4460 f   libconcrtd:TaskCollection.obj
 0002:00050650       ??0_TaskCollection@details@Concurrency@@QAE@PAV_CancellationTokenState@12@@Z 100d4650 f   libconcrtd:TaskCollection.obj
 0002:000507c0       ??0_TaskCollection@details@Concurrency@@QAE@XZ 100d47c0 f   libconcrtd:TaskCollection.obj
 0002:00050900       ??0_TaskCollectionBase@details@Concurrency@@QAE@PAV_CancellationTokenState@12@@Z 100d4900 f i libconcrtd:TaskCollection.obj
 0002:00050960       ??0_TaskCollectionBase@details@Concurrency@@QAE@XZ 100d4960 f i libconcrtd:TaskCollection.obj
 0002:000509c0       ??0condition_variable@std@@QAE@XZ 100d49c0 f i libconcrtd:TaskCollection.obj
 0002:000509f0       ??0invalid_multiple_scheduling@Concurrency@@QAE@ABV01@@Z 100d49f0 f i libconcrtd:TaskCollection.obj
 0002:00050a20       ??0missing_wait@Concurrency@@QAE@ABV01@@Z 100d4a20 f i libconcrtd:TaskCollection.obj
 0002:00050a50       ??0mutex@std@@QAE@XZ       100d4a50 f i libconcrtd:TaskCollection.obj
 0002:00050a70       ??1?$_MallocaArrayHolder@PAVevent@Concurrency@@@details@Concurrency@@UAE@XZ 100d4a70 f i libconcrtd:TaskCollection.obj
 0002:00050ad0       ??1?$lock_guard@Vmutex@std@@@std@@QAE@XZ 100d4ad0 f i libconcrtd:TaskCollection.obj
 0002:00050b20       ??1?$unique_lock@Vmutex@std@@@std@@QAE@XZ 100d4b20 f i libconcrtd:TaskCollection.obj
 0002:00050b80       ??1CancellationTokenRegistration_TaskProc@details@Concurrency@@UAE@XZ 100d4b80 f i libconcrtd:TaskCollection.obj
 0002:00050ba0       ??1TaskStack@details@Concurrency@@QAE@XZ 100d4ba0 f   libconcrtd:TaskCollection.obj
 0002:00050be0       ??1_AsyncTaskCollection@details@Concurrency@@UAE@XZ 100d4be0 f i libconcrtd:TaskCollection.obj
 0002:00050c10       ??1_CancellationTokenRegistration@details@Concurrency@@MAE@XZ 100d4c10 f i libconcrtd:TaskCollection.obj
 0002:00050c90       ??1_Interruption_exception@details@Concurrency@@UAE@XZ 100d4c90 f i libconcrtd:TaskCollection.obj
 0002:00050cb0       ??1_Mutex_base@std@@QAE@XZ 100d4cb0 f i libconcrtd:TaskCollection.obj
 0002:00050ce0       ??1_RefCounter@details@Concurrency@@UAE@XZ 100d4ce0 f i libconcrtd:TaskCollection.obj
 0002:00050d30       ??1_RefCounterBase@details@Concurrency@@UAE@XZ 100d4d30 f i libconcrtd:TaskCollection.obj
 0002:00050d90       ??1_StructuredTaskCollection@details@Concurrency@@QAE@XZ 100d4d90 f   libconcrtd:TaskCollection.obj
 0002:00050e50       ??1_TaskCollection@details@Concurrency@@QAE@XZ 100d4e50 f   libconcrtd:TaskCollection.obj
 0002:00051020       ??1condition_variable@std@@QAE@XZ 100d5020 f i libconcrtd:TaskCollection.obj
 0002:00051050       ??1exception_ptr@std@@QAE@XZ 100d5050 f i libconcrtd:TaskCollection.obj
 0002:00051070       ??1mutex@std@@QAE@XZ       100d5070 f i libconcrtd:TaskCollection.obj
 0002:00051090       ??4?$atomic@J@std@@QAEJJ@Z 100d5090 f i libconcrtd:TaskCollection.obj
 0002:000510b0       ??4_Atomic_long@std@@QAEJJ@Z 100d50b0 f i libconcrtd:TaskCollection.obj
 0002:00051100       ??_G?$_MallocaArrayHolder@PAVevent@Concurrency@@@details@Concurrency@@UAEPAXI@Z 100d5100 f i libconcrtd:TaskCollection.obj
 0002:00051100       ??_E?$_MallocaArrayHolder@PAVevent@Concurrency@@@details@Concurrency@@UAEPAXI@Z 100d5100 f i libconcrtd:TaskCollection.obj
 0002:00051140       ??_ECancellationTokenRegistration_TaskProc@details@Concurrency@@UAEPAXI@Z 100d5140 f i libconcrtd:TaskCollection.obj
 0002:00051140       ??_GCancellationTokenRegistration_TaskProc@details@Concurrency@@UAEPAXI@Z 100d5140 f i libconcrtd:TaskCollection.obj
 0002:00051180       ??_GTaskStack@details@Concurrency@@QAEPAXI@Z 100d5180 f i libconcrtd:TaskCollection.obj
 0002:000511c0       ??_E_AsyncTaskCollection@details@Concurrency@@UAEPAXI@Z 100d51c0 f i libconcrtd:TaskCollection.obj
 0002:000511c0       ??_G_AsyncTaskCollection@details@Concurrency@@UAEPAXI@Z 100d51c0 f i libconcrtd:TaskCollection.obj
 0002:00051200       ??_E_CancellationTokenRegistration@details@Concurrency@@MAEPAXI@Z 100d5200 f i libconcrtd:TaskCollection.obj
 0002:00051200       ??_G_CancellationTokenRegistration@details@Concurrency@@MAEPAXI@Z 100d5200 f i libconcrtd:TaskCollection.obj
 0002:00051240       ??_G_Interruption_exception@details@Concurrency@@UAEPAXI@Z 100d5240 f i libconcrtd:TaskCollection.obj
 0002:00051240       ??_E_Interruption_exception@details@Concurrency@@UAEPAXI@Z 100d5240 f i libconcrtd:TaskCollection.obj
 0002:00051280       ??_E_RefCounter@details@Concurrency@@UAEPAXI@Z 100d5280 f i libconcrtd:TaskCollection.obj
 0002:00051280       ??_G_RefCounter@details@Concurrency@@UAEPAXI@Z 100d5280 f i libconcrtd:TaskCollection.obj
 0002:000512c0       ??_G_RefCounterBase@details@Concurrency@@UAEPAXI@Z 100d52c0 f i libconcrtd:TaskCollection.obj
 0002:000512c0       ??_E_RefCounterBase@details@Concurrency@@UAEPAXI@Z 100d52c0 f i libconcrtd:TaskCollection.obj
 0002:00051300       ??_Gexception_ptr@std@@QAEPAXI@Z 100d5300 f i libconcrtd:TaskCollection.obj
 0002:00051340       ?AddArbitraryAlias@ContextBase@details@Concurrency@@QAEXPAV_TaskCollection@23@0@Z 100d5340 f i libconcrtd:TaskCollection.obj
 0002:00051380       ?Clear@TaskStack@details@Concurrency@@QAEXXZ 100d5380 f   libconcrtd:TaskCollection.obj
 0002:000513a0       ?Find@?$Hash@PAV_TaskCollection@details@Concurrency@@PAV123@@details@Concurrency@@QAEPAUListNode@123@ABQAV_TaskCollection@23@PAPAV523@@Z 100d53a0 f i libconcrtd:TaskCollection.obj
 0002:00051410       ?GetArbitraryAlias@ContextBase@details@Concurrency@@QAEPAV_TaskCollection@23@PAV423@@Z 100d5410 f i libconcrtd:TaskCollection.obj
 0002:000514f0       ?GetGoverningTokenState@ContextBase@details@Concurrency@@QAEPAV_CancellationTokenState@23@XZ 100d54f0 f i libconcrtd:TaskCollection.obj
 0002:00051510       ?GetWorkQueueIdentity@ContextBase@details@Concurrency@@QAEIXZ 100d5510 f i libconcrtd:TaskCollection.obj
 0002:00051530       ?Id@WorkQueue@details@Concurrency@@QBEIXZ 100d5530 f i libconcrtd:TaskCollection.obj
 0002:00051550       ?IncrementDequeuedTaskCounter@ExternalContextBase@details@Concurrency@@QAEXI@Z 100d5550 f i libconcrtd:TaskCollection.obj
 0002:00051580       ?IncrementDequeuedTaskCounter@ExternalContextBase@details@Concurrency@@QAEXXZ 100d5580 f i libconcrtd:TaskCollection.obj
 0002:000515a0       ?IncrementDequeuedTaskCounter@ExternalStatistics@details@Concurrency@@QAEXI@Z 100d55a0 f i libconcrtd:TaskCollection.obj
 0002:000515d0       ?IncrementDequeuedTaskCounter@ExternalStatistics@details@Concurrency@@QAEXXZ 100d55d0 f i libconcrtd:TaskCollection.obj
 0002:000515f0       ?IncrementDequeuedTaskCounter@InternalContextBase@details@Concurrency@@QAEXI@Z 100d55f0 f i libconcrtd:TaskCollection.obj
 0002:00051650       ?IncrementDequeuedTaskCounter@InternalContextBase@details@Concurrency@@QAEXXZ 100d5650 f i libconcrtd:TaskCollection.obj
 0002:000516b0       ?Insert@?$Hash@PAV_TaskCollection@details@Concurrency@@PAV123@@details@Concurrency@@QAEPAUListNode@123@ABQAV_TaskCollection@23@0@Z 100d56b0 f i libconcrtd:TaskCollection.obj
 0002:00051800       ?IsEmpty@TaskStack@details@Concurrency@@QBE_NXZ 100d5800 f   libconcrtd:TaskCollection.obj
 0002:00051840       ?Lookup@?$Hash@PAV_TaskCollection@details@Concurrency@@PAV123@@details@Concurrency@@AAEPAUListNode@123@ABQAV_TaskCollection@23@H@Z 100d5840 f i libconcrtd:TaskCollection.obj
 0002:000518e0       ?Overflow@TaskStack@details@Concurrency@@QBE_NXZ 100d58e0 f i libconcrtd:TaskCollection.obj
 0002:00051900       ?PendingCancel@ContextBase@details@Concurrency@@QAEXXZ 100d5900 f i libconcrtd:TaskCollection.obj
 0002:00051920       ?PendingCancelComplete@ContextBase@details@Concurrency@@QAEXXZ 100d5920 f i libconcrtd:TaskCollection.obj
 0002:00051980       ?Pop@TaskStack@details@Concurrency@@QAEHXZ 100d5980 f   libconcrtd:TaskCollection.obj
 0002:00051a00       ?Push@TaskStack@details@Concurrency@@QAE_NH@Z 100d5a00 f   libconcrtd:TaskCollection.obj
 0002:00051b60       ?ResetOverflow@TaskStack@details@Concurrency@@QAEXXZ 100d5b60 f i libconcrtd:TaskCollection.obj
 0002:00051b80       ?SetExecutingCollection@ContextBase@details@Concurrency@@QAEXPAV_TaskCollectionBase@23@@Z 100d5b80 f i libconcrtd:TaskCollection.obj
 0002:00051ba0       ?_Abort@_StructuredTaskCollection@details@Concurrency@@AAEXXZ 100d5ba0 f   libconcrtd:TaskCollection.obj
 0002:00051d80       ?_Abort@_TaskCollection@details@Concurrency@@AAEX_N@Z 100d5d80 f   libconcrtd:TaskCollection.obj
 0002:00052040       ?_AbortiveSweep@_TaskCollection@details@Concurrency@@AAEXPAX@Z 100d6040 f   libconcrtd:TaskCollection.obj
 0002:000520f0       ?_Alias@_TaskCollection@details@Concurrency@@AAEPAV123@XZ 100d60f0 f   libconcrtd:TaskCollection.obj
 0002:00052360       ?_Atomic_compare_exchange_strong_4@std@@YAHPCKPAKKW4memory_order@1@2@Z 100d6360 f i libconcrtd:TaskCollection.obj
 0002:000524d0       ?_Atomic_exchange_4@std@@YAKPCKKW4memory_order@1@@Z 100d64d0 f i libconcrtd:TaskCollection.obj
 0002:00052600       ?_Atomic_store_4@std@@YAXPCKKW4memory_order@1@@Z 100d6600 f i libconcrtd:TaskCollection.obj
 0002:00052700       ?_Cancel@_StructuredTaskCollection@details@Concurrency@@QAEXXZ 100d6700 f   libconcrtd:TaskCollection.obj
 0002:000527b0       ?_Cancel@_TaskCollection@details@Concurrency@@AAEX_NPAV123@@Z 100d67b0 f   libconcrtd:TaskCollection.obj
 0002:00052930       ?_Cancel@_TaskCollection@details@Concurrency@@QAEXXZ 100d6930 f   libconcrtd:TaskCollection.obj
 0002:00052960       ?_CancelDirectAliases@_TaskCollection@details@Concurrency@@AAEX_NPAV123@@Z 100d6960 f   libconcrtd:TaskCollection.obj
 0002:000529f0       ?_CancelFromArbitraryThread@_TaskCollection@details@Concurrency@@AAEX_N@Z 100d69f0 f   libconcrtd:TaskCollection.obj
 0002:00052b10       ?_CancelStolenContexts@_StructuredTaskCollection@details@Concurrency@@QAEXXZ 100d6b10 f   libconcrtd:TaskCollection.obj
 0002:00052b40       ?_CancelStolenContexts@_TaskCollection@details@Concurrency@@AAEX_N0@Z 100d6b40 f   libconcrtd:TaskCollection.obj
 0002:00052c60       ?_CancelViaToken@_StructuredTaskCollection@details@Concurrency@@CAXPAV123@@Z 100d6c60 f   libconcrtd:TaskCollection.obj
 0002:00052c70       ?_CancelViaToken@_TaskCollection@details@Concurrency@@CAXPAV123@@Z 100d6c70 f   libconcrtd:TaskCollection.obj
 0002:00052c80       ?_CleanupToken@_StructuredTaskCollection@details@Concurrency@@AAEXXZ 100d6c80 f   libconcrtd:TaskCollection.obj
 0002:00052d40       ?_Cnd_broadcastX@std@@YAHPAU_Cnd_internal_imp_t@@@Z 100d6d40 f i libconcrtd:TaskCollection.obj
 0002:00052d60       ?_CollectionMatchPredicate@_TaskCollection@details@Concurrency@@CA_NPAV_UnrealizedChore@23@PAX@Z 100d6d60 f   libconcrtd:TaskCollection.obj
 0002:00052da0       ?_Compare_exchange_acquire_4@std@@YAHPCKPAKK@Z 100d6da0 f i libconcrtd:TaskCollection.obj
 0002:00052df0       ?_Compare_exchange_relaxed_4@std@@YAHPCKPAKK@Z 100d6df0 f i libconcrtd:TaskCollection.obj
 0002:00052e40       ?_Compare_exchange_release_4@std@@YAHPCKPAKK@Z 100d6e40 f i libconcrtd:TaskCollection.obj
 0002:00052e90       ?_Compare_exchange_seq_cst_4@std@@YAHPCKPAKK@Z 100d6e90 f i libconcrtd:TaskCollection.obj
 0002:00052ee0       ?_CompletionHandler@_AsyncTaskCollection@details@Concurrency@@CAXPAX@Z 100d6ee0 f   libconcrtd:TaskCollection.obj
 0002:00052f00       ?_Construct@_StructuredTaskCollection@details@Concurrency@@AAEXXZ 100d6f00 f i libconcrtd:TaskCollection.obj
 0002:00052f40       ?_CountUp@_StructuredTaskCollection@details@Concurrency@@AAEXXZ 100d6f40 f   libconcrtd:TaskCollection.obj
 0002:00052fa0       ?_DeregisterCallback@_CancellationTokenState@details@Concurrency@@QAEXPAV_CancellationTokenRegistration@23@@Z 100d6fa0 f i libconcrtd:TaskCollection.obj
 0002:000531d0       ?_Destroy@_AsyncTaskCollection@details@Concurrency@@EAEXXZ 100d71d0 f   libconcrtd:TaskCollection.obj
 0002:00053230       ?_Destroy@_RefCounter@details@Concurrency@@MAEXXZ 100d7230 f i libconcrtd:TaskCollection.obj
 0002:00053290       ?_Destroy@_RefCounterBase@details@Concurrency@@MAEXXZ 100d7290 f i libconcrtd:TaskCollection.obj
 0002:000532f0       ?_Exception@_TaskCollectionBase@details@Concurrency@@IBEPAVexception_ptr@std@@XZ 100d72f0 f i libconcrtd:TaskCollection.obj
 0002:00053310       ?_Exchange_acquire_4@std@@YAKPCKK@Z 100d7310 f i libconcrtd:TaskCollection.obj
 0002:00053320       ?_Exchange_relaxed_4@std@@YAKPCKK@Z 100d7320 f i libconcrtd:TaskCollection.obj
 0002:00053330       ?_Exchange_release_4@std@@YAKPCKK@Z 100d7330 f i libconcrtd:TaskCollection.obj
 0002:00053340       ?_Exchange_seq_cst_4@std@@YAKPCKK@Z 100d7340 f i libconcrtd:TaskCollection.obj
 0002:00053350       ?_Exec@CancellationTokenRegistration_TaskProc@details@Concurrency@@MAEXXZ 100d7350 f i libconcrtd:TaskCollection.obj
 0002:00053390       ?_FullAliasWait@_TaskCollection@details@Concurrency@@AAEXPAV123@@Z 100d7390 f   libconcrtd:TaskCollection.obj
 0002:00053550       ?_GetRuntimeOwnsLifetime@_UnrealizedChore@details@Concurrency@@QBE_NXZ 100d7550 f i libconcrtd:TaskCollection.obj
 0002:00053570       ?_GetStealTrackingList@_TaskCollection@details@Concurrency@@ABEPAXXZ 100d7570 f   libconcrtd:TaskCollection.obj
 0002:00053590       ?_Get_memory_order@std@@YA?AW4memory_order@1@W421@@Z 100d7590 f i libconcrtd:TaskCollection.obj
 0002:000535e0       ?_HasDirectAlias@_TaskCollection@details@Concurrency@@ABE_NXZ 100d75e0 f   libconcrtd:TaskCollection.obj
 0002:00053620       ?_InitOnRawMalloca@?$_MallocaArrayHolder@PAVevent@Concurrency@@@details@Concurrency@@QAEPAPAVevent@3@PAX@Z 100d7620 f i libconcrtd:TaskCollection.obj
 0002:00053670       ?_Initialize@?$_MallocaArrayHolder@PAVevent@Concurrency@@@details@Concurrency@@QAEXPAPAVevent@3@@Z 100d7670 f i libconcrtd:TaskCollection.obj
 0002:000536f0       ?_Initialize@_StructuredTaskCollection@details@Concurrency@@AAEXXZ 100d76f0 f   libconcrtd:TaskCollection.obj
 0002:00053840       ?_Initialize@_TaskCollection@details@Concurrency@@AAEXXZ 100d7840 f   libconcrtd:TaskCollection.obj
 0002:00053900       ?_Invoke@_CancellationTokenRegistration@details@Concurrency@@AAEXXZ 100d7900 f i libconcrtd:TaskCollection.obj
 0002:00053a00       ?_IsAlias@_TaskCollection@details@Concurrency@@QBE_NXZ 100d7a00 f   libconcrtd:TaskCollection.obj
 0002:00053a40       ?_IsCanceling@_StructuredTaskCollection@details@Concurrency@@QAE_NXZ 100d7a40 f   libconcrtd:TaskCollection.obj
 0002:00053b40       ?_IsCanceling@_TaskCollection@details@Concurrency@@QAE_NXZ 100d7b40 f   libconcrtd:TaskCollection.obj
 0002:00053ce0       ?_IsDirectAlias@_TaskCollection@details@Concurrency@@ABE_NXZ 100d7ce0 f   libconcrtd:TaskCollection.obj
 0002:00053d30       ?_IsIndirectAlias@_TaskCollection@details@Concurrency@@ABE_NXZ 100d7d30 f   libconcrtd:TaskCollection.obj
 0002:00053d80       ?_IsMarkedForAbnormalExit@_TaskCollection@details@Concurrency@@QBE_NXZ 100d7d80 f   libconcrtd:TaskCollection.obj
 0002:00053dc0       ?_IsStaleAlias@_TaskCollection@details@Concurrency@@ABE_NXZ 100d7dc0 f   libconcrtd:TaskCollection.obj
 0002:00053e50       ?_IsValid@_CancellationTokenState@details@Concurrency@@SA_NPAV123@@Z 100d7e50 f i libconcrtd:TaskCollection.obj
 0002:00053e90       ?_Memory_order_upper_bound@std@@YA?AW4memory_order@1@W421@0@Z 100d7e90 f i libconcrtd:TaskCollection.obj
 0002:00053f50       ?_Mycnd@condition_variable@std@@AAEPAU_Cnd_internal_imp_t@@XZ 100d7f50 f i libconcrtd:TaskCollection.obj
 0002:00053f70       ?_Mymtx@_Mutex_base@std@@AAEPAU_Mtx_internal_imp_t@@XZ 100d7f70 f i libconcrtd:TaskCollection.obj
 0002:00053f90       ?_NewCollection@_AsyncTaskCollection@details@Concurrency@@SAPAV123@PAV_CancellationTokenState@23@@Z 100d7f90 f   libconcrtd:TaskCollection.obj
 0002:00054030       ?_NotificationHandler@_AsyncTaskCollection@details@Concurrency@@AAEXXZ 100d8030 f   libconcrtd:TaskCollection.obj
 0002:00054050       ?_NotifyCompletedChoreAndFree@_TaskCollection@details@Concurrency@@AAEXPAV_UnrealizedChore@23@@Z 100d8050 f   libconcrtd:TaskCollection.obj
 0002:00054140       ?_NotifyNewChore@_TaskCollection@details@Concurrency@@AAEXXZ 100d8140 f   libconcrtd:TaskCollection.obj
 0002:000541d0       ?_OriginalCollection@_TaskCollection@details@Concurrency@@QBEPAV123@XZ 100d81d0 f   libconcrtd:TaskCollection.obj
 0002:00054240       ?_PerformedInlineCancel@_TaskCollectionBase@details@Concurrency@@IBE_NXZ 100d8240 f i libconcrtd:TaskCollection.obj
 0002:000542c0       ?_PerformedPendingCancel@_TaskCollectionBase@details@Concurrency@@IBE_NXZ 100d82c0 f i libconcrtd:TaskCollection.obj
 0002:00054340       ?_RaisedCancel@_TaskCollection@details@Concurrency@@AAEXXZ 100d8340 f   libconcrtd:TaskCollection.obj
 0002:00054380       ?_RaisedException@_TaskCollection@details@Concurrency@@AAEXXZ 100d8380 f   libconcrtd:TaskCollection.obj
 0002:000543c0       ?_Reference@_RefCounter@details@Concurrency@@QAEJXZ 100d83c0 f i libconcrtd:TaskCollection.obj
 0002:00054420       ?_RegisterCallback@_CancellationTokenState@details@Concurrency@@QAEPAV_CancellationTokenRegistration@23@P6AXPAX@Z0H@Z 100d8420 f i libconcrtd:TaskCollection.obj
 0002:000544e0       ?_RegisterCallback@_CancellationTokenState@details@Concurrency@@QAEXPAV_CancellationTokenRegistration@23@@Z 100d84e0 f i libconcrtd:TaskCollection.obj
 0002:000545e0       ?_RegisterCompletionHandler@_TaskCollection@details@Concurrency@@QAEXP6AXPAX@Z0@Z 100d85e0 f   libconcrtd:TaskCollection.obj
 0002:00054610       ?_Release@_RefCounter@details@Concurrency@@QAEJXZ 100d8610 f i libconcrtd:TaskCollection.obj
 0002:00054690       ?_Release@_RefCounterBase@details@Concurrency@@QAEJXZ 100d8690 f i libconcrtd:TaskCollection.obj
 0002:00054720       ?_ReleaseAlias@_TaskCollection@details@Concurrency@@AAEXXZ 100d8720 f   libconcrtd:TaskCollection.obj
 0002:00054800       ?_Reset@_TaskCollection@details@Concurrency@@AAEXPAV123@@Z 100d8800 f   libconcrtd:TaskCollection.obj
 0002:000549f0       ?_RunAndWait@_StructuredTaskCollection@details@Concurrency@@QAG?AW4_TaskCollectionStatus@23@PAV_UnrealizedChore@23@@Z 100d89f0 f   libconcrtd:TaskCollection.obj
 0002:00055030       ?_RunAndWait@_TaskCollection@details@Concurrency@@QAG?AW4_TaskCollectionStatus@23@PAV_UnrealizedChore@23@@Z 100d9030 f   libconcrtd:TaskCollection.obj
 0002:00055890       ?_Schedule@_StructuredTaskCollection@details@Concurrency@@QAEXPAV_UnrealizedChore@23@@Z 100d9890 f   libconcrtd:TaskCollection.obj
 0002:00055920       ?_Schedule@_StructuredTaskCollection@details@Concurrency@@QAEXPAV_UnrealizedChore@23@PAVlocation@3@@Z 100d9920 f   libconcrtd:TaskCollection.obj
 0002:000559c0       ?_Schedule@_TaskCollection@details@Concurrency@@QAEXPAV_UnrealizedChore@23@@Z 100d99c0 f   libconcrtd:TaskCollection.obj
 0002:00055cb0       ?_Schedule@_TaskCollection@details@Concurrency@@QAEXPAV_UnrealizedChore@23@PAVlocation@3@@Z 100d9cb0 f   libconcrtd:TaskCollection.obj
 0002:00055fa0       ?_SetCancelState@_TaskCollection@details@Concurrency@@AAE_NJ@Z 100d9fa0 f   libconcrtd:TaskCollection.obj
 0002:00056010       ?_Store_relaxed_4@std@@YAXPCKK@Z 100da010 f i libconcrtd:TaskCollection.obj
 0002:00056020       ?_Store_release_4@std@@YAXPCKK@Z 100da020 f i libconcrtd:TaskCollection.obj
 0002:00056030       ?_Store_seq_cst_4@std@@YAXPCKK@Z 100da030 f i libconcrtd:TaskCollection.obj
 0002:00056040       ?_SweepAbortedChore@_TaskCollection@details@Concurrency@@CA_NPAV_UnrealizedChore@23@PAX@Z 100da040 f   libconcrtd:TaskCollection.obj
 0002:00056090       ?_TaskCleanup@_StructuredTaskCollection@details@Concurrency@@AAE_NXZ 100da090 f i libconcrtd:TaskCollection.obj
 0002:000560d0       ?_TaskCleanup@_TaskCollection@details@Concurrency@@AAE_N_N@Z 100da0d0 f   libconcrtd:TaskCollection.obj
 0002:000561d0       ?_Validate_compare_exchange_memory_order@std@@YAXW4memory_order@1@0@Z 100da1d0 f i libconcrtd:TaskCollection.obj
 0002:00056460       ?_WaitOnStolenChores@_StructuredTaskCollection@details@Concurrency@@AAEXJ@Z 100da460 f   libconcrtd:TaskCollection.obj
 0002:000564c0       ?atomic_compare_exchange_strong_explicit@std@@YA_NPAU_Atomic_long@1@PAJJW4memory_order@1@2@Z 100da4c0 f i libconcrtd:TaskCollection.obj
 0002:00056540       ?atomic_exchange_explicit@std@@YAJPAU_Atomic_long@1@JW4memory_order@1@@Z 100da540 f i libconcrtd:TaskCollection.obj
 0002:000565a0       ?atomic_store@std@@YAXPAU_Atomic_long@1@J@Z 100da5a0 f i libconcrtd:TaskCollection.obj
 0002:000565c0       ?atomic_store_explicit@std@@YAXPAU_Atomic_long@1@JW4memory_order@1@@Z 100da5c0 f i libconcrtd:TaskCollection.obj
 0002:00056620       ?compare_exchange_strong@_Atomic_long@std@@QAE_NAAJJW4memory_order@2@@Z 100da620 f i libconcrtd:TaskCollection.obj
 0002:000566a0       ?empty@TokenRegistrationContainer@_CancellationTokenState@details@Concurrency@@QAE_NXZ 100da6a0 f i libconcrtd:TaskCollection.obj
 0002:000566e0       ?exchange@_Atomic_long@std@@QAEJJW4memory_order@2@@Z 100da6e0 f i libconcrtd:TaskCollection.obj
 0002:00056710       ?lock@_Mutex_base@std@@QAEXXZ 100da710 f i libconcrtd:TaskCollection.obj
 0002:00056740       ?mutex@?$unique_lock@Vmutex@std@@@std@@QBEPAV02@XZ 100da740 f i libconcrtd:TaskCollection.obj
 0002:00056760       ?notify_all@condition_variable@std@@QAEXXZ 100da760 f i libconcrtd:TaskCollection.obj
 0002:000567c0       ?push_back@TokenRegistrationContainer@_CancellationTokenState@details@Concurrency@@QAEXPAV_CancellationTokenRegistration@34@@Z 100da7c0 f i libconcrtd:TaskCollection.obj
 0002:00056890       ?remove@TokenRegistrationContainer@_CancellationTokenState@details@Concurrency@@QAEXPAV_CancellationTokenRegistration@34@@Z 100da890 f i libconcrtd:TaskCollection.obj
 0002:00056940       ?unlock@_Mutex_base@std@@QAEXXZ 100da940 f i libconcrtd:TaskCollection.obj
 0002:00056970       ?wait@condition_variable@std@@QAEXAAV?$unique_lock@Vmutex@std@@@2@@Z 100da970 f i libconcrtd:TaskCollection.obj
 0002:000569b0       ??$__vcrt_va_start_verify_argument_type@I@@YAXXZ 100da9b0 f i libconcrtd:SchedulerPolicyBase.obj
 0002:000569c0       ??0SchedulerPolicy@Concurrency@@QAA@IZZ 100da9c0 f   libconcrtd:SchedulerPolicyBase.obj
 0002:000569f0       ??0SchedulerPolicy@Concurrency@@QAE@ABV01@@Z 100da9f0 f   libconcrtd:SchedulerPolicyBase.obj
 0002:00056a50       ??0SchedulerPolicy@Concurrency@@QAE@XZ 100daa50 f   libconcrtd:SchedulerPolicyBase.obj
 0002:00056a70       ??0invalid_scheduler_policy_key@Concurrency@@QAE@ABV01@@Z 100daa70 f i libconcrtd:SchedulerPolicyBase.obj
 0002:00056aa0       ??0invalid_scheduler_policy_thread_specification@Concurrency@@QAE@ABV01@@Z 100daaa0 f i libconcrtd:SchedulerPolicyBase.obj
 0002:00056ad0       ??0invalid_scheduler_policy_value@Concurrency@@QAE@ABV01@@Z 100daad0 f i libconcrtd:SchedulerPolicyBase.obj
 0002:00056b00       ??1SchedulerPolicy@Concurrency@@QAE@XZ 100dab00 f   libconcrtd:SchedulerPolicyBase.obj
 0002:00056b30       ??4SchedulerPolicy@Concurrency@@QAEAAV01@ABV01@@Z 100dab30 f   libconcrtd:SchedulerPolicyBase.obj
 0002:00056b60       ?GetPolicyValue@SchedulerPolicy@Concurrency@@QBEIW4PolicyElementKey@2@@Z 100dab60 f   libconcrtd:SchedulerPolicyBase.obj
 0002:00056bd0       ?SetConcurrencyLimits@SchedulerPolicy@Concurrency@@QAEXII@Z 100dabd0 f   libconcrtd:SchedulerPolicyBase.obj
 0002:00056d10       ?SetPolicyValue@SchedulerPolicy@Concurrency@@QAEIW4PolicyElementKey@2@I@Z 100dad10 f   libconcrtd:SchedulerPolicyBase.obj
 0002:00056df0       ?_AreConcurrencyLimitsValid@SchedulerPolicy@Concurrency@@ABE_NXZ 100dadf0 f   libconcrtd:SchedulerPolicyBase.obj
 0002:00056e30       ?_AreConcurrencyLimitsValid@SchedulerPolicy@Concurrency@@CA_NII@Z 100dae30 f   libconcrtd:SchedulerPolicyBase.obj
 0002:00056e60       ?_ArePolicyCombinationsValid@SchedulerPolicy@Concurrency@@ABE_NXZ 100dae60 f   libconcrtd:SchedulerPolicyBase.obj
 0002:00056e70       ?_Assign@SchedulerPolicy@Concurrency@@AAEXABV12@@Z 100dae70 f   libconcrtd:SchedulerPolicyBase.obj
 0002:00056eb0       ?_Initialize@SchedulerPolicy@Concurrency@@AAEXIPAPAD@Z 100daeb0 f   libconcrtd:SchedulerPolicyBase.obj
 0002:00057130       ?_ResolvePolicyValues@SchedulerPolicy@Concurrency@@AAEXXZ 100db130 f   libconcrtd:SchedulerPolicyBase.obj
 0002:00057340       ?_StringFromPolicyKey@SchedulerPolicy@Concurrency@@CAPADI@Z 100db340 f   libconcrtd:SchedulerPolicyBase.obj
 0002:00057370       ?_ValidPolicyKey@SchedulerPolicy@Concurrency@@CA_NW4PolicyElementKey@2@@Z 100db370 f   libconcrtd:SchedulerPolicyBase.obj
 0002:000573a0       ?_ValidPolicyValue@SchedulerPolicy@Concurrency@@CA_NW4PolicyElementKey@2@I@Z 100db3a0 f   libconcrtd:SchedulerPolicyBase.obj
 0002:00057510       ?_ValidateConcRTPolicy@SchedulerPolicy@Concurrency@@QBEXXZ 100db510 f   libconcrtd:SchedulerPolicyBase.obj
 0002:000575b0       ??0ExecutionResource@details@Concurrency@@QAE@PAVSchedulerProxy@12@PAUSchedulerNode@12@I@Z 100db5b0 f   libconcrtd:ExecutionResource.obj
 0002:00057680       ??0ExecutionResource@details@Concurrency@@QAE@PAVSchedulerProxy@12@PAV012@@Z 100db680 f   libconcrtd:ExecutionResource.obj
 0002:00057740       ??0IExecutionResource@Concurrency@@QAE@XZ 100db740 f i libconcrtd:ExecutionResource.obj
 0002:00057760       ?CurrentSubscriptionLevel@ExecutionResource@details@Concurrency@@UBEIXZ 100db760 f   libconcrtd:ExecutionResource.obj
 0002:000577a0       ?DecrementUseCounts@ExecutionResource@details@Concurrency@@QAEXXZ 100db7a0 f   libconcrtd:ExecutionResource.obj
 0002:00057940       ?GetCoreIndex@ExecutionResource@details@Concurrency@@QAEIXZ 100db940 f i libconcrtd:ExecutionResource.obj
 0002:00057960       ?GetExecutionResourceId@ExecutionResource@details@Concurrency@@UBEIXZ 100db960 f i libconcrtd:ExecutionResource.obj
 0002:00057980       ?GetExecutionResourceTls@ResourceManager@details@Concurrency@@QBEKXZ 100db980 f i libconcrtd:ExecutionResource.obj
 0002:000579a0       ?GetExecutionResourceTls@ThreadProxyFactoryManager@details@Concurrency@@QBEKXZ 100db9a0 f i libconcrtd:ExecutionResource.obj
 0002:000579c0       ?GetNodeAffinity@SchedulerProxy@details@Concurrency@@QAE?AUHardwareAffinity@23@I@Z 100db9c0 f i libconcrtd:ExecutionResource.obj
 0002:00057aa0       ?GetNodeId@ExecutionResource@details@Concurrency@@UBEIXZ 100dbaa0 f i libconcrtd:ExecutionResource.obj
 0002:00057ac0       ?GetResourceManager@SchedulerProxy@details@Concurrency@@QBEPAVResourceManager@23@XZ 100dbac0 f i libconcrtd:ExecutionResource.obj
 0002:00057ae0       ?IncrementUseCounts@ExecutionResource@details@Concurrency@@QAEXXZ 100dbae0 f   libconcrtd:ExecutionResource.obj
 0002:00057c90       ?Remove@ExecutionResource@details@Concurrency@@UAEXPAUIScheduler@3@@Z 100dbc90 f   libconcrtd:ExecutionResource.obj
 0002:00057d50       ?ResetCurrent@ExecutionResource@details@Concurrency@@QAEXXZ 100dbd50 f   libconcrtd:ExecutionResource.obj
 0002:00057da0       ?SetAsCurrent@ExecutionResource@details@Concurrency@@QAEXXZ 100dbda0 f   libconcrtd:ExecutionResource.obj
 0002:00057e40       ??$sign@I@details@Concurrency@@YAII@Z 100dbe40 f i libconcrtd:HillClimbing.obj
 0002:00057e80       ??$sign@N@details@Concurrency@@YANN@Z 100dbe80 f i libconcrtd:HillClimbing.obj
 0002:00057ee0       ??0HillClimbing@details@Concurrency@@QAE@IIPAVSchedulerProxy@12@@Z 100dbee0 f   libconcrtd:HillClimbing.obj
 0002:00057ff0       ??0MeasuredHistory@HillClimbing@details@Concurrency@@QAE@XZ 100dbff0 f   libconcrtd:HillClimbing.obj
 0002:00058010       ?Add@MeasuredHistory@HillClimbing@details@Concurrency@@QAEXNI@Z 100dc010 f   libconcrtd:HillClimbing.obj
 0002:00058070       ?CalculateThroughput@HillClimbing@details@Concurrency@@AAENIIII@Z 100dc070 f   libconcrtd:HillClimbing.obj
 0002:000580d0       ?CalculateThroughputSlope@HillClimbing@details@Concurrency@@AAENHH@Z 100dc0d0 f   libconcrtd:HillClimbing.obj
 0002:00058250       ?Clear@MeasuredHistory@HillClimbing@details@Concurrency@@QAEXI@Z 100dc250 f   libconcrtd:HillClimbing.obj
 0002:000582a0       ?ClearHistories@HillClimbing@details@Concurrency@@AAEXXZ 100dc2a0 f   libconcrtd:HillClimbing.obj
 0002:000582f0       ?CoefficientOfVariation@MeasuredHistory@HillClimbing@details@Concurrency@@QAENXZ 100dc2f0 f   libconcrtd:HillClimbing.obj
 0002:00058340       ?CoefficientOfVariationMean@MeasuredHistory@HillClimbing@details@Concurrency@@QAENXZ 100dc340 f   libconcrtd:HillClimbing.obj
 0002:000583a0       ?ControlSetting@MeasuredHistory@HillClimbing@details@Concurrency@@QAEHXZ 100dc3a0 f   libconcrtd:HillClimbing.obj
 0002:000583c0       ?Count@MeasuredHistory@HillClimbing@details@Concurrency@@QAEHXZ 100dc3c0 f   libconcrtd:HillClimbing.obj
 0002:000583e0       ?EstablishControlSetting@HillClimbing@details@Concurrency@@AAEXI@Z 100dc3e0 f   libconcrtd:HillClimbing.obj
 0002:00058460       ?FlushHistories@HillClimbing@details@Concurrency@@AAEXXZ 100dc460 f   libconcrtd:HillClimbing.obj
 0002:00058510       ?GetHistory@HillClimbing@details@Concurrency@@AAEPAVMeasuredHistory@123@I@Z 100dc510 f   libconcrtd:HillClimbing.obj
 0002:00058570       ?GetRandomMove@HillClimbing@details@Concurrency@@AAEHXZ 100dc570 f   libconcrtd:HillClimbing.obj
 0002:000585f0       ?IsStableHistory@HillClimbing@details@Concurrency@@AAE_NPAVMeasuredHistory@123@@Z 100dc5f0 f   libconcrtd:HillClimbing.obj
 0002:00058670       ?LastDataPointCount@MeasuredHistory@HillClimbing@details@Concurrency@@QAEIXZ 100dc670 f   libconcrtd:HillClimbing.obj
 0002:00058690       ?Mean@MeasuredHistory@HillClimbing@details@Concurrency@@QAENXZ 100dc690 f   libconcrtd:HillClimbing.obj
 0002:000586e0       ?RecommendControlSetting@HillClimbing@details@Concurrency@@AAEII@Z 100dc6e0 f   libconcrtd:HillClimbing.obj
 0002:00058940       ?SignificanceTest@MeasuredHistory@HillClimbing@details@Concurrency@@QAEHNHI@Z 100dc940 f   libconcrtd:HillClimbing.obj
 0002:00058990       ?SignificanceTest@MeasuredHistory@HillClimbing@details@Concurrency@@QAEHPAV1234@H@Z 100dc990 f   libconcrtd:HillClimbing.obj
 0002:00058c00       ?StandardDeviation@MeasuredHistory@HillClimbing@details@Concurrency@@QAENXZ 100dcc00 f   libconcrtd:HillClimbing.obj
 0002:00058c30       ?StandardDeviationMean@MeasuredHistory@HillClimbing@details@Concurrency@@QAENXZ 100dcc30 f   libconcrtd:HillClimbing.obj
 0002:00058ca0       ?Update@HillClimbing@details@Concurrency@@QAEIIIII@Z 100dcca0 f   libconcrtd:HillClimbing.obj
 0002:00059240       ?Variance@MeasuredHistory@HillClimbing@details@Concurrency@@QAENXZ 100dd240 f   libconcrtd:HillClimbing.obj
 0002:000592f0       ?VarianceMean@MeasuredHistory@HillClimbing@details@Concurrency@@QAENXZ 100dd2f0 f   libconcrtd:HillClimbing.obj
 0002:00059330       ?abs@@YANN@Z               100dd330 f i libconcrtd:HillClimbing.obj
 0002:00059350       ??0ISchedulerProxy@Concurrency@@QAE@XZ 100dd350 f i libconcrtd:SchedulerProxy.obj
 0002:00059370       ??0SchedulerProxy@details@Concurrency@@QAE@PAUIScheduler@2@PAVResourceManager@12@ABVSchedulerPolicy@2@@Z 100dd370 f   libconcrtd:SchedulerProxy.obj
 0002:00059d90       ??0_Scoped_lock@_ReentrantBlockingLock@details@Concurrency@@QAE@AAV123@@Z 100ddd90 f i libconcrtd:SchedulerProxy.obj
 0002:00059dc0       ??1ExecutionResource@details@Concurrency@@QAE@XZ 100dddc0 f i libconcrtd:SchedulerProxy.obj
 0002:00059e20       ??1SchedulerProxy@details@Concurrency@@IAE@XZ 100dde20 f   libconcrtd:SchedulerProxy.obj
 0002:00059ec0       ??1_Scoped_lock@_ReentrantBlockingLock@details@Concurrency@@QAE@XZ 100ddec0 f i libconcrtd:SchedulerProxy.obj
 0002:00059f10       ??_GExecutionResource@details@Concurrency@@QAEPAXI@Z 100ddf10 f i libconcrtd:SchedulerProxy.obj
 0002:00059f50       ??_GSchedulerProxy@details@Concurrency@@IAEPAXI@Z 100ddf50 f i libconcrtd:SchedulerProxy.obj
 0002:00059f90       ?AddCore@SchedulerProxy@details@Concurrency@@QAEXPAUSchedulerNode@23@I_N@Z 100ddf90 f   libconcrtd:SchedulerProxy.obj
 0002:0005a380       ?AddExecutionResource@SchedulerProxy@details@Concurrency@@QAEXPAVExecutionResource@23@@Z 100de380 f   libconcrtd:SchedulerProxy.obj
 0002:0005a440       ?AddTail@?$List@VExecutionResource@details@Concurrency@@VCount@CollectionTypes@23@@details@Concurrency@@QAEXPAVExecutionResource@23@@Z 100de440 f i libconcrtd:SchedulerProxy.obj
 0002:0005a510       ?AddThreadSubscription@SchedulerProxy@details@Concurrency@@QAEXPAVExecutionResource@23@@Z 100de510 f   libconcrtd:SchedulerProxy.obj
 0002:0005a540       ?AddVirtualProcessorRoots@SchedulerProxy@details@Concurrency@@QAEXPAPAUIVirtualProcessorRoot@3@I@Z 100de540 f   libconcrtd:SchedulerProxy.obj
 0002:0005a6a0       ?AdjustAllocationIncrease@SchedulerProxy@details@Concurrency@@QBEII@Z 100de6a0 f   libconcrtd:SchedulerProxy.obj
 0002:0005a8a0       ?BindContext@SchedulerProxy@details@Concurrency@@UAEXPAUIExecutionContext@3@@Z 100de8a0 f   libconcrtd:SchedulerProxy.obj
 0002:0005a930       ?Cleanup@SchedulerProxy@details@Concurrency@@IAEXXZ 100de930 f   libconcrtd:SchedulerProxy.obj
 0002:0005aab0       ?ContextPriority@SchedulerProxy@details@Concurrency@@QBEHXZ 100deab0 f i libconcrtd:SchedulerProxy.obj
 0002:0005aad0       ?ContextStackSize@SchedulerProxy@details@Concurrency@@QBEHXZ 100dead0 f i libconcrtd:SchedulerProxy.obj
 0002:0005aaf0       ?CreateExternalThreadResource@SchedulerProxy@details@Concurrency@@QAEPAVExecutionResource@23@PAUSchedulerNode@23@I@Z 100deaf0 f   libconcrtd:SchedulerProxy.obj
 0002:0005abd0       ?CreateOversubscriber@SchedulerProxy@details@Concurrency@@UAEPAUIVirtualProcessorRoot@3@PAUIExecutionResource@3@@Z 100debd0 f   libconcrtd:SchedulerProxy.obj
 0002:0005ad60       ?CreateVirtualProcessorRoot@SchedulerProxy@details@Concurrency@@UAEPAVVirtualProcessorRoot@23@PAUSchedulerNode@23@I@Z 100ded60 f   libconcrtd:SchedulerProxy.obj
 0002:0005ae20       ?DecrementCoreSubscription@SchedulerProxy@details@Concurrency@@QAEXPAVExecutionResource@23@@Z 100dee20 f   libconcrtd:SchedulerProxy.obj
 0002:0005aec0       ?DecrementCoreUseCount@ResourceManager@details@Concurrency@@QAEXII@Z 100deec0 f i libconcrtd:SchedulerProxy.obj
 0002:0005af00       ?DecrementFixedCoreCount@SchedulerProxy@details@Concurrency@@QAEXII_N@Z 100def00 f   libconcrtd:SchedulerProxy.obj
 0002:0005b150       ?DeleteThis@SchedulerProxy@details@Concurrency@@MAEXXZ 100df150 f i libconcrtd:SchedulerProxy.obj
 0002:0005b1a0       ?DestroyExecutionResource@SchedulerProxy@details@Concurrency@@QAEXPAVExecutionResource@23@@Z 100df1a0 f   libconcrtd:SchedulerProxy.obj
 0002:0005b4a0       ?DestroyVirtualProcessorRoot@SchedulerProxy@details@Concurrency@@QAEXPAVVirtualProcessorRoot@23@@Z 100df4a0 f   libconcrtd:SchedulerProxy.obj
 0002:0005b670       ?FinalShutdown@SchedulerProxy@details@Concurrency@@UAEXXZ 100df670 f   libconcrtd:SchedulerProxy.obj
 0002:0005b6b0       ?First@?$List@VExecutionResource@details@Concurrency@@VCount@CollectionTypes@23@@details@Concurrency@@QBEPAVExecutionResource@23@XZ 100df6b0 f i libconcrtd:SchedulerProxy.obj
 0002:0005b6f0       ?GetCoreIndex@VirtualProcessorRoot@details@Concurrency@@QAEHXZ 100df6f0 f i libconcrtd:SchedulerProxy.obj
 0002:0005b710       ?GetCurrentThreadExecutionResource@SchedulerProxy@details@Concurrency@@QAEPAVExecutionResource@23@XZ 100df710 f   libconcrtd:SchedulerProxy.obj
 0002:0005b780       ?GetExecutionResource@VirtualProcessorRoot@details@Concurrency@@QAEPAVExecutionResource@23@XZ 100df780 f i libconcrtd:SchedulerProxy.obj
 0002:0005b7a0       ?GetNewThreadProxy@SchedulerProxy@details@Concurrency@@UAEPAUIThreadProxy@3@PAUIExecutionContext@3@@Z 100df7a0 f   libconcrtd:SchedulerProxy.obj
 0002:0005b840       ?GetNumSchedulersForNotifications@ResourceManager@details@Concurrency@@QAEIXZ 100df840 f i libconcrtd:SchedulerProxy.obj
 0002:0005b860       ?GetResourceForNewSubscription@SchedulerProxy@details@Concurrency@@QAEPAVExecutionResource@23@PAV423@@Z 100df860 f   libconcrtd:SchedulerProxy.obj
 0002:0005b950       ?GetThreadProxyFactoryManager@ResourceManager@details@Concurrency@@QAEPAVThreadProxyFactoryManager@23@XZ 100df950 f i libconcrtd:SchedulerProxy.obj
 0002:0005b970       ?GetVirtualProcessorRoot@ExecutionResource@details@Concurrency@@QAEPAVVirtualProcessorRoot@23@XZ 100df970 f i libconcrtd:SchedulerProxy.obj
 0002:0005b990       ?GetVirtualProcessorRoot@ThreadProxy@details@Concurrency@@QAEPAVVirtualProcessorRoot@23@XZ 100df990 f i libconcrtd:SchedulerProxy.obj
 0002:0005b9b0       ?GetVirtualProcessorRoot@UMSThreadProxy@details@Concurrency@@QAEPAVUMSFreeVirtualProcessorRoot@23@XZ 100df9b0 f i libconcrtd:SchedulerProxy.obj
 0002:0005b9d0       ?GrantAllocation@SchedulerProxy@details@Concurrency@@QAEPAVExecutionResource@23@I_N0@Z 100df9d0 f   libconcrtd:SchedulerProxy.obj
 0002:0005c6e0       ?IncrementCoreSubscription@SchedulerProxy@details@Concurrency@@QAEXPAVExecutionResource@23@@Z 100e06e0 f   libconcrtd:SchedulerProxy.obj
 0002:0005c790       ?IncrementFixedCoreCount@SchedulerProxy@details@Concurrency@@QAEXII_N@Z 100e0790 f   libconcrtd:SchedulerProxy.obj
 0002:0005c8d0       ?IsOversubscribed@VirtualProcessorRoot@details@Concurrency@@QAE_NXZ 100e08d0 f i libconcrtd:SchedulerProxy.obj
 0002:0005c8f0       ?IsRootRemoved@VirtualProcessorRoot@details@Concurrency@@QAE_NXZ 100e08f0 f i libconcrtd:SchedulerProxy.obj
 0002:0005c910       ?MarkAsOversubscribed@VirtualProcessorRoot@details@Concurrency@@QAEXXZ 100e0910 f i libconcrtd:SchedulerProxy.obj
 0002:0005c930       ?MarkRootRemoved@VirtualProcessorRoot@details@Concurrency@@QAEXXZ 100e0930 f i libconcrtd:SchedulerProxy.obj
 0002:0005c950       ?Next@?$List@VExecutionResource@details@Concurrency@@VCount@CollectionTypes@23@@details@Concurrency@@QBEPAVExecutionResource@23@PAV423@@Z 100e0950 f i libconcrtd:SchedulerProxy.obj
 0002:0005c990       ?ReferenceCurrentThreadExecutionResource@SchedulerProxy@details@Concurrency@@QAEPAVExecutionResource@23@XZ 100e0990 f   libconcrtd:SchedulerProxy.obj
 0002:0005cc00       ?Remove@?$List@VExecutionResource@details@Concurrency@@VCount@CollectionTypes@23@@details@Concurrency@@QAEXPAVExecutionResource@23@@Z 100e0c00 f i libconcrtd:SchedulerProxy.obj
 0002:0005cce0       ?RemoveCore@SchedulerProxy@details@Concurrency@@QAEXPAUSchedulerNode@23@I@Z 100e0ce0 f   libconcrtd:SchedulerProxy.obj
 0002:0005d0f0       ?RemoveThreadSubscription@SchedulerProxy@details@Concurrency@@QAEXPAVExecutionResource@23@@Z 100e10f0 f   libconcrtd:SchedulerProxy.obj
 0002:0005d150       ?RequestInitialVirtualProcessors@SchedulerProxy@details@Concurrency@@UAEPAUIExecutionResource@3@_N@Z 100e1150 f   libconcrtd:SchedulerProxy.obj
 0002:0005d180       ?SendCoreNotification@SchedulerProxy@details@Concurrency@@QAEXPAUSchedulerCore@23@_N@Z 100e1180 f   libconcrtd:SchedulerProxy.obj
 0002:0005d3e0       ?Shutdown@SchedulerProxy@details@Concurrency@@UAEXXZ 100e13e0 f   libconcrtd:SchedulerProxy.obj
 0002:0005d400       ?SubscribeCurrentThread@SchedulerProxy@details@Concurrency@@UAEPAUIExecutionResource@3@XZ 100e1400 f   libconcrtd:SchedulerProxy.obj
 0002:0005d420       ?ToggleBorrowedState@SchedulerProxy@details@Concurrency@@QAEXPAUSchedulerNode@23@I@Z 100e1420 f   libconcrtd:SchedulerProxy.obj
 0002:0005d4c0       ?UnbindContext@SchedulerProxy@details@Concurrency@@UAEXPAUIExecutionContext@3@@Z 100e14c0 f   libconcrtd:SchedulerProxy.obj
 0002:0005d570       ?Initialize@WinRT@details@Concurrency@@SAXXZ 100e1570 f   libconcrtd:WinRTWrapper.obj
 0002:0005d700       ?Initialized@WinRT@details@Concurrency@@SA_NXZ 100e1700 f   libconcrtd:WinRTWrapper.obj
 0002:0005d730       ?RoInitialize@WinRT@details@Concurrency@@SAJW4RO_INIT_TYPE@@@Z 100e1730 f   libconcrtd:WinRTWrapper.obj
 0002:0005d7b0       ?RoUninitialize@WinRT@details@Concurrency@@SAXXZ 100e17b0 f   libconcrtd:WinRTWrapper.obj
 0002:0005d830       ??0?$LockFreeStack@VFreeThreadProxy@details@Concurrency@@@details@Concurrency@@QAE@XZ 100e1830 f i libconcrtd:ThreadProxyFactoryManager.obj
 0002:0005d850       ??0?$LockFreeStack@VUMSFreeThreadProxy@details@Concurrency@@@details@Concurrency@@QAE@XZ 100e1850 f i libconcrtd:ThreadProxyFactoryManager.obj
 0002:0005d870       ??0?$ThreadProxyFactory@VFreeThreadProxy@details@Concurrency@@@details@Concurrency@@IAE@PAVThreadProxyFactoryManager@12@@Z 100e1870 f i libconcrtd:ThreadProxyFactoryManager.obj
 0002:0005d910       ??0?$ThreadProxyFactory@VUMSFreeThreadProxy@details@Concurrency@@@details@Concurrency@@IAE@PAVThreadProxyFactoryManager@12@@Z 100e1910 f i libconcrtd:ThreadProxyFactoryManager.obj
 0002:0005d9b0       ??0FreeThreadProxy@details@Concurrency@@QAE@PAUIThreadProxyFactory@12@I@Z 100e19b0 f i libconcrtd:ThreadProxyFactoryManager.obj
 0002:0005da40       ??0FreeThreadProxyFactory@details@Concurrency@@IAE@PAVThreadProxyFactoryManager@12@@Z 100e1a40 f i libconcrtd:ThreadProxyFactoryManager.obj
 0002:0005da90       ??0IThreadProxyFactory@details@Concurrency@@QAE@XZ 100e1a90 f i libconcrtd:ThreadProxyFactoryManager.obj
 0002:0005dab0       ??0ThreadProxyFactoryManager@details@Concurrency@@QAE@XZ 100e1ab0 f   libconcrtd:ThreadProxyFactoryManager.obj
 0002:0005db40       ??0UMSFreeThreadProxy@details@Concurrency@@QAE@PAUIThreadProxyFactory@12@PAXI@Z 100e1b40 f i libconcrtd:ThreadProxyFactoryManager.obj
 0002:0005dbf0       ??0UMSFreeThreadProxyFactory@details@Concurrency@@IAE@PAVThreadProxyFactoryManager@12@@Z 100e1bf0 f i libconcrtd:ThreadProxyFactoryManager.obj
 0002:0005dda0       ??1?$ThreadProxyFactory@VFreeThreadProxy@details@Concurrency@@@details@Concurrency@@UAE@XZ 100e1da0 f i libconcrtd:ThreadProxyFactoryManager.obj
 0002:0005ddd0       ??1?$ThreadProxyFactory@VUMSFreeThreadProxy@details@Concurrency@@@details@Concurrency@@UAE@XZ 100e1dd0 f i libconcrtd:ThreadProxyFactoryManager.obj
 0002:0005de00       ??1FreeThreadProxy@details@Concurrency@@UAE@XZ 100e1e00 f i libconcrtd:ThreadProxyFactoryManager.obj
 0002:0005de30       ??1FreeThreadProxyFactory@details@Concurrency@@UAE@XZ 100e1e30 f i libconcrtd:ThreadProxyFactoryManager.obj
 0002:0005de60       ??1IThreadProxyFactory@details@Concurrency@@UAE@XZ 100e1e60 f i libconcrtd:ThreadProxyFactoryManager.obj
 0002:0005de80       ??1ThreadProxyFactoryManager@details@Concurrency@@QAE@XZ 100e1e80 f   libconcrtd:ThreadProxyFactoryManager.obj
 0002:0005df50       ??1UMSFreeThreadProxy@details@Concurrency@@UAE@XZ 100e1f50 f i libconcrtd:ThreadProxyFactoryManager.obj
 0002:0005df90       ??1UMSFreeThreadProxyFactory@details@Concurrency@@UAE@XZ 100e1f90 f i libconcrtd:ThreadProxyFactoryManager.obj
 0002:0005dfc0       ??_E?$ThreadProxyFactory@VFreeThreadProxy@details@Concurrency@@@details@Concurrency@@UAEPAXI@Z 100e1fc0 f i libconcrtd:ThreadProxyFactoryManager.obj
 0002:0005dfc0       ??_G?$ThreadProxyFactory@VFreeThreadProxy@details@Concurrency@@@details@Concurrency@@UAEPAXI@Z 100e1fc0 f i libconcrtd:ThreadProxyFactoryManager.obj
 0002:0005e000       ??_E?$ThreadProxyFactory@VUMSFreeThreadProxy@details@Concurrency@@@details@Concurrency@@UAEPAXI@Z 100e2000 f i libconcrtd:ThreadProxyFactoryManager.obj
 0002:0005e000       ??_G?$ThreadProxyFactory@VUMSFreeThreadProxy@details@Concurrency@@@details@Concurrency@@UAEPAXI@Z 100e2000 f i libconcrtd:ThreadProxyFactoryManager.obj
 0002:0005e040       ??_EFreeThreadProxy@details@Concurrency@@UAEPAXI@Z 100e2040 f i libconcrtd:ThreadProxyFactoryManager.obj
 0002:0005e040       ??_GFreeThreadProxy@details@Concurrency@@UAEPAXI@Z 100e2040 f i libconcrtd:ThreadProxyFactoryManager.obj
 0002:0005e080       ??_GFreeThreadProxyFactory@details@Concurrency@@UAEPAXI@Z 100e2080 f i libconcrtd:ThreadProxyFactoryManager.obj
 0002:0005e080       ??_EFreeThreadProxyFactory@details@Concurrency@@UAEPAXI@Z 100e2080 f i libconcrtd:ThreadProxyFactoryManager.obj
 0002:0005e0c0       ??_GIThreadProxyFactory@details@Concurrency@@UAEPAXI@Z 100e20c0 f i libconcrtd:ThreadProxyFactoryManager.obj
 0002:0005e0c0       ??_EIThreadProxyFactory@details@Concurrency@@UAEPAXI@Z 100e20c0 f i libconcrtd:ThreadProxyFactoryManager.obj
 0002:0005e100       ??_EUMSFreeThreadProxy@details@Concurrency@@UAEPAXI@Z 100e2100 f i libconcrtd:ThreadProxyFactoryManager.obj
 0002:0005e100       ??_GUMSFreeThreadProxy@details@Concurrency@@UAEPAXI@Z 100e2100 f i libconcrtd:ThreadProxyFactoryManager.obj
 0002:0005e140       ??_GUMSFreeThreadProxyFactory@details@Concurrency@@UAEPAXI@Z 100e2140 f i libconcrtd:ThreadProxyFactoryManager.obj
 0002:0005e140       ??_EUMSFreeThreadProxyFactory@details@Concurrency@@UAEPAXI@Z 100e2140 f i libconcrtd:ThreadProxyFactoryManager.obj
 0002:0005e180       ?ClearCriticalRegion@UMSThreadProxy@details@Concurrency@@QAEXXZ 100e2180 f i libconcrtd:ThreadProxyFactoryManager.obj
 0002:0005e1b0       ?Count@?$LockFreeStack@VFreeThreadProxy@details@Concurrency@@@details@Concurrency@@QBEHXZ 100e21b0 f i libconcrtd:ThreadProxyFactoryManager.obj
 0002:0005e1d0       ?Count@?$LockFreeStack@VUMSFreeThreadProxy@details@Concurrency@@@details@Concurrency@@QBEHXZ 100e21d0 f i libconcrtd:ThreadProxyFactoryManager.obj
 0002:0005e1f0       ?Create@FreeThreadProxyFactory@details@Concurrency@@EAEPAVFreeThreadProxy@23@I@Z 100e21f0 f i libconcrtd:ThreadProxyFactoryManager.obj
 0002:0005e2b0       ?Create@UMSFreeThreadProxyFactory@details@Concurrency@@EAEPAVUMSFreeThreadProxy@23@I@Z 100e22b0 f i libconcrtd:ThreadProxyFactoryManager.obj
 0002:0005e4c0       ?CreateFactory@FreeThreadProxyFactory@details@Concurrency@@SAPAV123@PAVThreadProxyFactoryManager@23@@Z 100e24c0 f i libconcrtd:ThreadProxyFactoryManager.obj
 0002:0005e580       ?CreateFactory@UMSFreeThreadProxyFactory@details@Concurrency@@SAPAV123@PAVThreadProxyFactoryManager@23@@Z 100e2580 f i libconcrtd:ThreadProxyFactoryManager.obj
 0002:0005e640       ?Delta@?$LockFreeStack@VFreeThreadProxy@details@Concurrency@@@details@Concurrency@@CAPAVFreeThreadProxy@23@PAX@Z 100e2640 f i libconcrtd:ThreadProxyFactoryManager.obj
 0002:0005e670       ?Delta@?$LockFreeStack@VUMSFreeThreadProxy@details@Concurrency@@@details@Concurrency@@CAPAVUMSFreeThreadProxy@23@PAX@Z 100e2670 f i libconcrtd:ThreadProxyFactoryManager.obj
 0002:0005e6a0       ?Flush@?$LockFreeStack@VFreeThreadProxy@details@Concurrency@@@details@Concurrency@@QAEPAVFreeThreadProxy@23@XZ 100e26a0 f i libconcrtd:ThreadProxyFactoryManager.obj
 0002:0005e6d0       ?Flush@?$LockFreeStack@VUMSFreeThreadProxy@details@Concurrency@@@details@Concurrency@@QAEPAVUMSFreeThreadProxy@23@XZ 100e26d0 f i libconcrtd:ThreadProxyFactoryManager.obj
 0002:0005e700       ?FromUMSContext@UMSFreeThreadProxy@details@Concurrency@@SAPAV123@PAX@Z 100e2700 f i libconcrtd:ThreadProxyFactoryManager.obj
 0002:0005e720       ?GetContext@UMSFreeThreadProxy@details@Concurrency@@UAEPAUIExecutionContext@3@XZ 100e2720 f i libconcrtd:ThreadProxyFactoryManager.obj
 0002:0005e740       ?GetExecutionResourceTls@?$ThreadProxyFactory@VFreeThreadProxy@details@Concurrency@@@details@Concurrency@@UAEKXZ 100e2740 f i libconcrtd:ThreadProxyFactoryManager.obj
 0002:0005e760       ?GetExecutionResourceTls@?$ThreadProxyFactory@VUMSFreeThreadProxy@details@Concurrency@@@details@Concurrency@@UAEKXZ 100e2760 f i libconcrtd:ThreadProxyFactoryManager.obj
 0002:0005e780       ?GetFreeThreadProxyFactory@ThreadProxyFactoryManager@details@Concurrency@@QAEPAVFreeThreadProxyFactory@23@XZ 100e2780 f   libconcrtd:ThreadProxyFactoryManager.obj
 0002:0005e830       ?GetPriority@ThreadProxy@details@Concurrency@@QAEHXZ 100e2830 f i libconcrtd:ThreadProxyFactoryManager.obj
 0002:0005e850       ?GetPriority@UMSThreadProxy@details@Concurrency@@QAEHXZ 100e2850 f i libconcrtd:ThreadProxyFactoryManager.obj
 0002:0005e870       ?GetStackSize@ThreadProxy@details@Concurrency@@QAEIXZ 100e2870 f i libconcrtd:ThreadProxyFactoryManager.obj
 0002:0005e890       ?GetStackSize@UMSThreadProxy@details@Concurrency@@QAEIXZ 100e2890 f i libconcrtd:ThreadProxyFactoryManager.obj
 0002:0005e8b0       ?GetUMSFreeThreadProxyFactory@ThreadProxyFactoryManager@details@Concurrency@@QAEPAVUMSFreeThreadProxyFactory@23@XZ 100e28b0 f   libconcrtd:ThreadProxyFactoryManager.obj
 0002:0005e960       ?Next@?$LockFreeStack@VFreeThreadProxy@details@Concurrency@@@details@Concurrency@@SAPAVFreeThreadProxy@23@PAV423@@Z 100e2960 f i libconcrtd:ThreadProxyFactoryManager.obj
 0002:0005e980       ?Next@?$LockFreeStack@VUMSFreeThreadProxy@details@Concurrency@@@details@Concurrency@@SAPAVUMSFreeThreadProxy@23@PAV423@@Z 100e2980 f i libconcrtd:ThreadProxyFactoryManager.obj
 0002:0005e9a0       ?Pop@?$LockFreeStack@VFreeThreadProxy@details@Concurrency@@@details@Concurrency@@QAEPAVFreeThreadProxy@23@XZ 100e29a0 f i libconcrtd:ThreadProxyFactoryManager.obj
 0002:0005e9d0       ?Pop@?$LockFreeStack@VUMSFreeThreadProxy@details@Concurrency@@@details@Concurrency@@QAEPAVUMSFreeThreadProxy@23@XZ 100e29d0 f i libconcrtd:ThreadProxyFactoryManager.obj
 0002:0005ea00       ?Prepare@?$ThreadProxyFactory@VFreeThreadProxy@details@Concurrency@@@details@Concurrency@@MAEXPAVFreeThreadProxy@23@H@Z 100e2a00 f i libconcrtd:ThreadProxyFactoryManager.obj
 0002:0005ea30       ?Prepare@?$ThreadProxyFactory@VUMSFreeThreadProxy@details@Concurrency@@@details@Concurrency@@MAEXPAVUMSFreeThreadProxy@23@H@Z 100e2a30 f i libconcrtd:ThreadProxyFactoryManager.obj
 0002:0005ea60       ?Prepare@UMSFreeThreadProxyFactory@details@Concurrency@@EAEXPAVUMSFreeThreadProxy@23@H@Z 100e2a60 f i libconcrtd:ThreadProxyFactoryManager.obj
 0002:0005ea90       ?Push@?$LockFreeStack@VFreeThreadProxy@details@Concurrency@@@details@Concurrency@@QAEXPAVFreeThreadProxy@23@@Z 100e2a90 f i libconcrtd:ThreadProxyFactoryManager.obj
 0002:0005eac0       ?Push@?$LockFreeStack@VUMSFreeThreadProxy@details@Concurrency@@@details@Concurrency@@QAEXPAVUMSFreeThreadProxy@23@@Z 100e2ac0 f i libconcrtd:ThreadProxyFactoryManager.obj
 0002:0005eaf0       ?ReclaimProxy@?$ThreadProxyFactory@VFreeThreadProxy@details@Concurrency@@@details@Concurrency@@UAEXPAUIThreadProxy@3@@Z 100e2af0 f i libconcrtd:ThreadProxyFactoryManager.obj
 0002:0005ebb0       ?ReclaimProxy@?$ThreadProxyFactory@VUMSFreeThreadProxy@details@Concurrency@@@details@Concurrency@@UAEXPAUIThreadProxy@3@@Z 100e2bb0 f i libconcrtd:ThreadProxyFactoryManager.obj
 0002:0005ec90       ?ReclaimProxy@FreeThreadProxyFactory@details@Concurrency@@UAEXPAUIThreadProxy@3@@Z 100e2c90 f i libconcrtd:ThreadProxyFactoryManager.obj
 0002:0005ede0       ?Reference@FreeThreadProxyFactory@details@Concurrency@@UAEJXZ 100e2de0 f i libconcrtd:ThreadProxyFactoryManager.obj
 0002:0005ee10       ?Reference@UMSFreeThreadProxyFactory@details@Concurrency@@UAEJXZ 100e2e10 f i libconcrtd:ThreadProxyFactoryManager.obj
 0002:0005ee20       ?Release@FreeThreadProxyFactory@details@Concurrency@@UAEJXZ 100e2e20 f i libconcrtd:ThreadProxyFactoryManager.obj
 0002:0005eea0       ?Release@UMSFreeThreadProxyFactory@details@Concurrency@@UAEJXZ 100e2ea0 f i libconcrtd:ThreadProxyFactoryManager.obj
 0002:0005eeb0       ?RequestProxy@?$ThreadProxyFactory@VFreeThreadProxy@details@Concurrency@@@details@Concurrency@@UAEPAUIThreadProxy@3@IH@Z 100e2eb0 f i libconcrtd:ThreadProxyFactoryManager.obj
 0002:0005ef90       ?RequestProxy@?$ThreadProxyFactory@VUMSFreeThreadProxy@details@Concurrency@@@details@Concurrency@@UAEPAUIThreadProxy@3@IH@Z 100e2f90 f i libconcrtd:ThreadProxyFactoryManager.obj
 0002:0005f090       ?Retire@FreeThreadProxyFactory@details@Concurrency@@EAEXPAVFreeThreadProxy@23@@Z 100e3090 f i libconcrtd:ThreadProxyFactoryManager.obj
 0002:0005f0b0       ?Retire@UMSFreeThreadProxyFactory@details@Concurrency@@EAEXPAVUMSFreeThreadProxy@23@@Z 100e30b0 f i libconcrtd:ThreadProxyFactoryManager.obj
 0002:0005f0e0       ?RetireThreadProxies@?$ThreadProxyFactory@VFreeThreadProxy@details@Concurrency@@@details@Concurrency@@QAEXXZ 100e30e0 f i libconcrtd:ThreadProxyFactoryManager.obj
 0002:0005f170       ?RetireThreadProxies@?$ThreadProxyFactory@VUMSFreeThreadProxy@details@Concurrency@@@details@Concurrency@@QAEXXZ 100e3170 f i libconcrtd:ThreadProxyFactoryManager.obj
 0002:0005f200       ?Shutdown@TransmogrifiedPrimary@details@Concurrency@@QAEXXZ 100e3200 f i libconcrtd:ThreadProxyFactoryManager.obj
 0002:0005f220       ?ShutdownFactory@FreeThreadProxyFactory@details@Concurrency@@UAEXXZ 100e3220 f i libconcrtd:ThreadProxyFactoryManager.obj
 0002:0005f270       ?ShutdownFactory@UMSFreeThreadProxyFactory@details@Concurrency@@UAEXXZ 100e3270 f i libconcrtd:ThreadProxyFactoryManager.obj
 0002:0005f300       ?StaticInitialize@?$ThreadProxyFactory@VFreeThreadProxy@details@Concurrency@@@details@Concurrency@@KAXXZ 100e3300 f i libconcrtd:ThreadProxyFactoryManager.obj
 0002:0005f370       ?StaticInitialize@?$ThreadProxyFactory@VUMSFreeThreadProxy@details@Concurrency@@@details@Concurrency@@KAXXZ 100e3370 f i libconcrtd:ThreadProxyFactoryManager.obj
 0002:0005f3e0       ?YieldToSystem@FreeThreadProxy@details@Concurrency@@UAEXXZ 100e33e0 f i libconcrtd:ThreadProxyFactoryManager.obj
 0002:0005f400       ??$__vcrt_va_start_verify_argument_type@_J@@YAXXZ 100e3400 f i libconcrtd:Trace.obj
 0002:0005f410       ??0Etw@details@Concurrency@@AAE@XZ 100e3410 f   libconcrtd:Trace.obj
 0002:0005f560       ?ControlCallback@details@Concurrency@@YGKW4WMIDPREQUESTCODE@@PAXPAK1@Z 100e3560 f   libconcrtd:Trace.obj
 0002:0005f6c0       ?DisableTracing@Concurrency@@YAJXZ 100e36c0 f   libconcrtd:Trace.obj
 0002:0005f6d0       ?EnableTracing@Concurrency@@YAJXZ 100e36d0 f   libconcrtd:Trace.obj
 0002:0005f6e0       ?GetEnableFlags@Etw@details@Concurrency@@QAEK_K@Z 100e36e0 f   libconcrtd:Trace.obj
 0002:0005f750       ?GetEnableLevel@Etw@details@Concurrency@@QAEE_K@Z 100e3750 f   libconcrtd:Trace.obj
 0002:0005f7c0       ?GetLoggerHandle@Etw@details@Concurrency@@QAE_KPAX@Z 100e37c0 f   libconcrtd:Trace.obj
 0002:0005f830       ?PPL_Trace_Event@details@Concurrency@@YAXABU_GUID@@W4ConcRT_EventType@2@E@Z 100e3830 f   libconcrtd:Trace.obj
 0002:0005f8d0       ?RegisterGuids@Etw@details@Concurrency@@QAEKP6GKW4WMIDPREQUESTCODE@@PAXPAK1@ZPBU_GUID@@KPAU_TRACE_GUID_REGISTRATION@@PA_K@Z 100e38d0 f   libconcrtd:Trace.obj
 0002:0005f950       ?Trace@Etw@details@Concurrency@@QAEK_KPAU_EVENT_TRACE_HEADER@@@Z 100e3950 f   libconcrtd:Trace.obj
 0002:0005f9c0       ?UnregisterGuids@Etw@details@Concurrency@@QAEK_K@Z 100e39c0 f   libconcrtd:Trace.obj
 0002:0005fa30       ?_DisableTrace@_CONCRT_TRACE_INFO@details@Concurrency@@QAEXXZ 100e3a30 f i libconcrtd:Trace.obj
 0002:0005fa60       ?_EnableTrace@_CONCRT_TRACE_INFO@details@Concurrency@@QAEXEK@Z 100e3a60 f i libconcrtd:Trace.obj
 0002:0005fa90       ?_GetConcRTTraceInfo@Concurrency@@YAPBU_CONCRT_TRACE_INFO@details@1@XZ 100e3a90 f   libconcrtd:Trace.obj
 0002:0005fab0       ?_RegisterConcRTEventTracing@details@Concurrency@@YAXXZ 100e3ab0 f   libconcrtd:Trace.obj
 0002:0005fbb0       ?_Trace_agents@Concurrency@@YAXW4Agents_EventType@1@_JZZ 100e3bb0 f   libconcrtd:Trace.obj
 0002:0005fdd0       ?_Trace_ppl_function@Concurrency@@YAXABU_GUID@@EW4ConcRT_EventType@1@@Z 100e3dd0 f   libconcrtd:Trace.obj
 0002:0005fe20       ?_UnregisterConcRTEventTracing@details@Concurrency@@YAXXZ 100e3e20 f   libconcrtd:Trace.obj
 0002:0005fe90       ??0InternalContextBase@details@Concurrency@@QAE@PAVSchedulerBase@12@@Z 100e3e90 f   libconcrtd:InternalContextBase.obj
 0002:00060070       ??0ScopedCriticalRegion@ContextBase@details@Concurrency@@QAE@PAV123@@Z 100e4070 f i libconcrtd:InternalContextBase.obj
 0002:000600a0       ??0Slot@?$Mailbox@VInternalContextBase@details@Concurrency@@@details@Concurrency@@QAE@XZ 100e40a0 f i libconcrtd:InternalContextBase.obj
 0002:000600d0       ??0context_self_unblock@Concurrency@@QAE@ABV01@@Z 100e40d0 f i libconcrtd:InternalContextBase.obj
 0002:00060100       ??0context_unblock_unbalanced@Concurrency@@QAE@ABV01@@Z 100e4100 f i libconcrtd:InternalContextBase.obj
 0002:00060130       ??0invalid_oversubscribe_operation@Concurrency@@QAE@ABV01@@Z 100e4130 f i libconcrtd:InternalContextBase.obj
 0002:00060160       ??0nested_scheduler_missing_detach@Concurrency@@QAE@ABV01@@Z 100e4160 f i libconcrtd:InternalContextBase.obj
 0002:00060190       ??1InternalContextBase@details@Concurrency@@UAE@XZ 100e4190 f   libconcrtd:InternalContextBase.obj
 0002:00060210       ??1ScopedCriticalRegion@ContextBase@details@Concurrency@@QAE@XZ 100e4210 f i libconcrtd:InternalContextBase.obj
 0002:00060260       ??4Slot@?$Mailbox@VInternalContextBase@details@Concurrency@@@details@Concurrency@@QAEAAV0123@ABV0123@@Z 100e4260 f i libconcrtd:InternalContextBase.obj
 0002:0006028f       ??_EInternalContextBase@details@Concurrency@@W3AEPAXI@Z 100e428f f i libconcrtd:InternalContextBase.obj
 0002:000602a0       ??_EInternalContextBase@details@Concurrency@@UAEPAXI@Z 100e42a0 f i libconcrtd:InternalContextBase.obj
 0002:000602a0       ??_GInternalContextBase@details@Concurrency@@UAEPAXI@Z 100e42a0 f i libconcrtd:InternalContextBase.obj
 0002:000602e0       ?AddToRunnables@InternalContextBase@details@Concurrency@@MAEXVlocation@3@@Z 100e42e0 f   libconcrtd:InternalContextBase.obj
 0002:000606d0       ?Alloc@InternalContextBase@details@Concurrency@@UAEPAXI@Z 100e46d0 f   libconcrtd:InternalContextBase.obj
 0002:00060840       ?Block@InternalContextBase@details@Concurrency@@UAEXXZ 100e4840 f   libconcrtd:InternalContextBase.obj
 0002:00060c10       ?Cancel@InternalContextBase@details@Concurrency@@MAEXXZ 100e4c10 f   libconcrtd:InternalContextBase.obj
 0002:00060e70       ?Cleanup@InternalContextBase@details@Concurrency@@IAEXXZ 100e4e70 f   libconcrtd:InternalContextBase.obj
 0002:00060ea0       ?CleanupDispatchedContextOnCancel@InternalContextBase@details@Concurrency@@IAEXXZ 100e4ea0 f   libconcrtd:InternalContextBase.obj
 0002:00060fa0       ?ClearQuickCacheSlot@SchedulerBase@details@Concurrency@@QAEXI@Z 100e4fa0 f i libconcrtd:InternalContextBase.obj
 0002:00060ff0       ?ClearShutdownValidations@ContextBase@details@Concurrency@@QAEXXZ 100e4ff0 f i libconcrtd:InternalContextBase.obj
 0002:00061010       ?Count@?$StructuredWorkStealingQueue@VInternalContextBase@details@Concurrency@@V_HyperNonReentrantLock@23@@details@Concurrency@@QBEHXZ 100e5010 f i libconcrtd:InternalContextBase.obj
 0002:00061030       ?CrossGroupRunnable@InternalContextBase@details@Concurrency@@QAEXJ@Z 100e5030 f i libconcrtd:InternalContextBase.obj
 0002:00061050       ?Dispatch@InternalContextBase@details@Concurrency@@UAEXPAUDispatchState@3@@Z 100e5050 f   libconcrtd:InternalContextBase.obj
 0002:000614d0       ?ExecuteChoreInline@InternalContextBase@details@Concurrency@@IAEXPAVWorkItem@23@@Z 100e54d0 f   libconcrtd:InternalContextBase.obj
 0002:000615f0       ?ExecutedAssociatedChore@InternalContextBase@details@Concurrency@@IAE_NXZ 100e55f0 f   libconcrtd:InternalContextBase.obj
 0002:000616e0       ?FindWorkForBlockingOrNesting@InternalContextBase@details@Concurrency@@AAEPAV123@AA_N0@Z 100e56e0 f   libconcrtd:InternalContextBase.obj
 0002:00061970       ?Free@InternalContextBase@details@Concurrency@@UAEXPAX@Z 100e5970 f   libconcrtd:InternalContextBase.obj
 0002:00061ab0       ?GetAffinitySet@ScheduleGroupSegmentBase@details@Concurrency@@IBEABVQuickBitSet@23@XZ 100e5ab0 f i libconcrtd:InternalContextBase.obj
 0002:00061ad0       ?GetAndResetOversubscribedVProc@InternalContextBase@details@Concurrency@@QAEPAVVirtualProcessor@23@PAV423@@Z 100e5ad0 f   libconcrtd:InternalContextBase.obj
 0002:00061b30       ?GetId@InternalContextBase@details@Concurrency@@UBEIXZ 100e5b30 f   libconcrtd:InternalContextBase.obj
 0002:00061b45       ?GetId@InternalContextBase@details@Concurrency@@W3BEIXZ 100e5b45 f i libconcrtd:InternalContextBase.obj
 0002:00061b50       ?GetId@VirtualProcessor@details@Concurrency@@QBEIXZ 100e5b50 f i libconcrtd:InternalContextBase.obj
 0002:00061b70       ?GetMaskId@VirtualProcessor@details@Concurrency@@QBEIXZ 100e5b70 f i libconcrtd:InternalContextBase.obj
 0002:00061b90       ?GetProxy@InternalContextBase@details@Concurrency@@UAEPAUIThreadProxy@3@XZ 100e5b90 f   libconcrtd:InternalContextBase.obj
 0002:00061bb0       ?GetScheduler@InternalContextBase@details@Concurrency@@UAEPAUIScheduler@3@XZ 100e5bb0 f   libconcrtd:InternalContextBase.obj
 0002:00061bf0       ?GetThreadId@InternalContextBase@details@Concurrency@@UBEKXZ 100e5bf0 f   libconcrtd:InternalContextBase.obj
 0002:00061c30       ?GetThreadId@ThreadProxy@details@Concurrency@@QBEKXZ 100e5c30 f i libconcrtd:InternalContextBase.obj
 0002:00061c50       ?GetType@WorkItem@details@Concurrency@@QBE?AW4WorkItemType@123@XZ 100e5c50 f i libconcrtd:InternalContextBase.obj
 0002:00061c70       ?GetVirtualProcessorId@InternalContextBase@details@Concurrency@@UBEIXZ 100e5c70 f   libconcrtd:InternalContextBase.obj
 0002:00061ce0       ?GrowAndPush@?$StructuredWorkStealingQueue@VInternalContextBase@details@Concurrency@@V_HyperNonReentrantLock@23@@details@Concurrency@@AAEXPAVInternalContextBase@23@VSlot@?$Mailbox@VInternalContextBase@details@Concurrency@@@23@@Z 100e5ce0 f i libconcrtd:InternalContextBase.obj
 0002:00061ff0       ?HasVirtualProcessorAvailable@SchedulerBase@details@Concurrency@@QBE_NXZ 100e5ff0 f i libconcrtd:InternalContextBase.obj
 0002:00062030       ?IncrementDequeuedTaskCounterHelper@InternalContextBase@details@Concurrency@@QAEXI@Z 100e6030 f   libconcrtd:InternalContextBase.obj
 0002:00062130       ?IncrementEnqueuedTaskCounterHelper@InternalContextBase@details@Concurrency@@QAEXXZ 100e6130 f   libconcrtd:InternalContextBase.obj
 0002:00062230       ?InterlockedClear@QuickBitSet@details@Concurrency@@QAEXI@Z 100e6230 f i libconcrtd:InternalContextBase.obj
 0002:000622c0       ?InterlockedClear@ReferenceCountedQuickBitSet@details@Concurrency@@QAEII@Z 100e62c0 f i libconcrtd:InternalContextBase.obj
 0002:000623a0       ?InterlockedSet@QuickBitSet@details@Concurrency@@QAEXI@Z 100e63a0 f i libconcrtd:InternalContextBase.obj
 0002:00062430       ?InterlockedSet@ReferenceCountedQuickBitSet@details@Concurrency@@QAEII@Z 100e6430 f i libconcrtd:InternalContextBase.obj
 0002:00062510       ?IsContext@WorkItem@details@Concurrency@@QBE_NXZ 100e6510 f i libconcrtd:InternalContextBase.obj
 0002:00062550       ?IsEmpty@Slot@?$Mailbox@VInternalContextBase@details@Concurrency@@@details@Concurrency@@QBE_NXZ 100e6550 f i libconcrtd:InternalContextBase.obj
 0002:00062590       ?IsFairScheduleGroup@ScheduleGroupBase@details@Concurrency@@IBE_NXZ 100e6590 f i libconcrtd:InternalContextBase.obj
 0002:000625d0       ?IsMarkedForRetirement@VirtualProcessor@details@Concurrency@@QAE_NXZ 100e65d0 f i libconcrtd:InternalContextBase.obj
 0002:000625f0       ?IsSynchronouslyBlocked@InternalContextBase@details@Concurrency@@UBE_NXZ 100e65f0 f i libconcrtd:InternalContextBase.obj
 0002:00062630       ?IsVirtualProcessorRetired@InternalContextBase@details@Concurrency@@IAE_NXZ 100e6630 f   libconcrtd:InternalContextBase.obj
 0002:00062740       ?LeaveScheduler@InternalContextBase@details@Concurrency@@AAEXXZ 100e6740 f   libconcrtd:InternalContextBase.obj
 0002:00062990       ?MakeAvailableForIdle@VirtualProcessor@details@Concurrency@@QAEXXZ 100e6990 f i libconcrtd:InternalContextBase.obj
 0002:000629b0       ?MakeAvailablePendingThread@VirtualProcessor@details@Concurrency@@QAEXXZ 100e69b0 f i libconcrtd:InternalContextBase.obj
 0002:000629d0       ?NotifySearching@SchedulerBase@details@Concurrency@@QAEXI_N@Z 100e69d0 f i libconcrtd:InternalContextBase.obj
 0002:00062a30       ?Oversubscribe@InternalContextBase@details@Concurrency@@UAEX_N@Z 100e6a30 f   libconcrtd:InternalContextBase.obj
 0002:00062c40       ?PrepareForUse@InternalContextBase@details@Concurrency@@QAEXPAVScheduleGroupSegmentBase@23@PAU_Chore@23@_N@Z 100e6c40 f   libconcrtd:InternalContextBase.obj
 0002:00062e30       ?PrepareToRun@InternalContextBase@details@Concurrency@@MAEXPAVVirtualProcessor@23@@Z 100e6e30 f i libconcrtd:InternalContextBase.obj
 0002:00062ed0       ?Push@?$StructuredWorkStealingQueue@VInternalContextBase@details@Concurrency@@V_HyperNonReentrantLock@23@@details@Concurrency@@QAEXPAVInternalContextBase@23@@Z 100e6ed0 f i libconcrtd:InternalContextBase.obj
 0002:00062f50       ?RMAwaken@InternalContextBase@details@Concurrency@@EAEXXZ 100e6f50 f i libconcrtd:InternalContextBase.obj
 0002:00062f60       ?ReclaimVirtualProcessor@InternalContextBase@details@Concurrency@@IAEXXZ 100e6f60 f   libconcrtd:InternalContextBase.obj
 0002:000630f0       ?RejoinScheduler@InternalContextBase@details@Concurrency@@AAEXXZ 100e70f0 f   libconcrtd:InternalContextBase.obj
 0002:00063270       ?RemoveFromUse@InternalContextBase@details@Concurrency@@QAEXXZ 100e7270 f   libconcrtd:InternalContextBase.obj
 0002:00063420       ?SearchForWork@VirtualProcessor@details@Concurrency@@QAE_NPAVWorkItem@23@PAVScheduleGroupSegmentBase@23@_N@Z 100e7420 f i libconcrtd:InternalContextBase.obj
 0002:00063450       ?SearchForWorkInYield@VirtualProcessor@details@Concurrency@@QAE_NPAVWorkItem@23@PAVScheduleGroupSegmentBase@23@_NK@Z 100e7450 f i libconcrtd:InternalContextBase.obj
 0002:00063490       ?SetContextDebugBits@details@Concurrency@@YAXPAVInternalContextBase@12@K@Z 100e7490 f   libconcrtd:InternalContextBase.obj
 0002:000634b0       ?SetProxy@InternalContextBase@details@Concurrency@@UAEXPAUIThreadProxy@3@@Z 100e74b0 f   libconcrtd:InternalContextBase.obj
 0002:00063530       ?SetShutdownValidations@ContextBase@details@Concurrency@@QAEXXZ 100e7530 f i libconcrtd:InternalContextBase.obj
 0002:00063550       ?SpinUntilBlocked@InternalContextBase@details@Concurrency@@IAEXXZ 100e7550 f   libconcrtd:InternalContextBase.obj
 0002:00063660       ?SpinUntilClear@QuickBitSet@details@Concurrency@@QBEXI@Z 100e7660 f i libconcrtd:InternalContextBase.obj
 0002:000636e0       ?SpinUntilSet@QuickBitSet@details@Concurrency@@QBEXI@Z 100e76e0 f i libconcrtd:InternalContextBase.obj
 0002:00063760       ?SpinUntilValueEquals@details@Concurrency@@YAXPCJJ@Z 100e7760 f i libconcrtd:InternalContextBase.obj
 0002:000637a0       ?SpinYield@InternalContextBase@details@Concurrency@@UAEXXZ 100e77a0 f   libconcrtd:InternalContextBase.obj
 0002:000639f0       ?SwapScheduleGroupSegment@InternalContextBase@details@Concurrency@@QAEXPAVScheduleGroupSegmentBase@23@_N@Z 100e79f0 f   libconcrtd:InternalContextBase.obj
 0002:00063b60       ?SwitchOut@InternalContextBase@details@Concurrency@@IAE_NW4ReasonForSwitch@123@@Z 100e7b60 f   libconcrtd:InternalContextBase.obj
 0002:00063f80       ?SwitchTo@InternalContextBase@details@Concurrency@@IAEXPAV123@W4ReasonForSwitch@123@@Z 100e7f80 f   libconcrtd:InternalContextBase.obj
 0002:000644e0       ?SwitchToRunnableContext@InternalContextBase@details@Concurrency@@IAEXPAVWorkItem@23@@Z 100e84e0 f   libconcrtd:InternalContextBase.obj
 0002:00064590       ?Unblock@InternalContextBase@details@Concurrency@@UAEXXZ 100e8590 f   libconcrtd:InternalContextBase.obj
 0002:00064730       ?WaitForWork@InternalContextBase@details@Concurrency@@IAEXXZ 100e8730 f   libconcrtd:InternalContextBase.obj
 0002:00064c30       ?WorkWasFound@InternalContextBase@details@Concurrency@@IAE_NPAVWorkItem@23@@Z 100e8c30 f   libconcrtd:InternalContextBase.obj
 0002:00064cd0       ?Yield@InternalContextBase@details@Concurrency@@UAEXXZ 100e8cd0 f   libconcrtd:InternalContextBase.obj
 0002:000650c0       ?YieldingSearch@WorkSearchContext@details@Concurrency@@QAE_NPAVWorkItem@23@PAVScheduleGroupSegmentBase@23@_NK@Z 100e90c0 f i libconcrtd:InternalContextBase.obj
 0002:00065110       ?_Invoke@_UnrealizedChore@details@Concurrency@@QAEXXZ 100e9110 f i libconcrtd:InternalContextBase.obj
 0002:00065150       ?_PutVirtualProcessor@InternalContextBase@details@Concurrency@@IAEXPAVVirtualProcessor@23@@Z 100e9150 f i libconcrtd:InternalContextBase.obj
 0002:000651c0       ??$_InternalDeleteHelper@VVirtualProcessor@details@Concurrency@@@details@Concurrency@@YAXPAVVirtualProcessor@01@@Z 100e91c0 f i libconcrtd:VirtualProcessor.obj
 0002:00065220       ??0?$StructuredWorkStealingQueue@VInternalContextBase@details@Concurrency@@V_HyperNonReentrantLock@23@@details@Concurrency@@QAE@PAV_HyperNonReentrantLock@12@@Z 100e9220 f i libconcrtd:VirtualProcessor.obj
 0002:000653c0       ??0SafePointMarker@details@Concurrency@@QAE@XZ 100e93c0 f i libconcrtd:VirtualProcessor.obj
 0002:000653e0       ??0VirtualProcessor@details@Concurrency@@QAE@XZ 100e93e0 f   libconcrtd:VirtualProcessor.obj
 0002:000654c0       ??0WorkSearchContext@details@Concurrency@@QAE@XZ 100e94c0 f i libconcrtd:VirtualProcessor.obj
 0002:00065510       ??1?$StructuredWorkStealingQueue@VInternalContextBase@details@Concurrency@@V_HyperNonReentrantLock@23@@details@Concurrency@@QAE@XZ 100e9510 f i libconcrtd:VirtualProcessor.obj
 0002:00065560       ??1Segment@?$Mailbox@VInternalContextBase@details@Concurrency@@@details@Concurrency@@QAE@XZ 100e9560 f i libconcrtd:VirtualProcessor.obj
 0002:000655a0       ??1VirtualProcessor@details@Concurrency@@UAE@XZ 100e95a0 f   libconcrtd:VirtualProcessor.obj
 0002:000656a0       ??4location@Concurrency@@QAEAAV01@ABV01@@Z 100e96a0 f i libconcrtd:VirtualProcessor.obj
 0002:000656d0       ??_GSegment@?$Mailbox@VInternalContextBase@details@Concurrency@@@details@Concurrency@@QAEPAXI@Z 100e96d0 f i libconcrtd:VirtualProcessor.obj
 0002:00065710       ??_EVirtualProcessor@details@Concurrency@@UAEPAXI@Z 100e9710 f i libconcrtd:VirtualProcessor.obj
 0002:00065710       ??_GVirtualProcessor@details@Concurrency@@UAEPAXI@Z 100e9710 f i libconcrtd:VirtualProcessor.obj
 0002:00065750       ?AcknowledgedAffinityMessage@SchedulerBase@details@Concurrency@@QAE_NI@Z 100e9750 f i libconcrtd:VirtualProcessor.obj
 0002:000657a0       ?Activate@VirtualProcessor@details@Concurrency@@QAEXPAUIExecutionContext@3@@Z 100e97a0 f   libconcrtd:VirtualProcessor.obj
 0002:000657f0       ?Affinitize@VirtualProcessor@details@Concurrency@@MAEXPAVInternalContextBase@23@@Z 100e97f0 f   libconcrtd:VirtualProcessor.obj
 0002:000658b0       ?CheckAffinityNotification@VirtualProcessor@details@Concurrency@@QAE_NXZ 100e98b0 f   libconcrtd:VirtualProcessor.obj
 0002:00065910       ?CheckForDeletion@?$ListArray@VVirtualProcessor@details@Concurrency@@@details@Concurrency@@AAEXXZ 100e9910 f i libconcrtd:VirtualProcessor.obj
 0002:00065970       ?CheckForDeletionBridge@?$ListArray@VVirtualProcessor@details@Concurrency@@@details@Concurrency@@CAXPAV123@@Z 100e9970 f i libconcrtd:VirtualProcessor.obj
 0002:00065980       ?Claim@Slot@?$Mailbox@VInternalContextBase@details@Concurrency@@@details@Concurrency@@QAE_NPAPAVInternalContextBase@34@@Z 100e9980 f i libconcrtd:VirtualProcessor.obj
 0002:00065a50       ?ClaimExclusiveOwnership@VirtualProcessor@details@Concurrency@@QAE_NAAVClaimTicket@123@K_N@Z 100e9a50 f   libconcrtd:VirtualProcessor.obj
 0002:00065bf0       ?ClaimantType@VirtualProcessor@details@Concurrency@@QBE?AW4AvailabilityType@123@XZ 100e9bf0 f i libconcrtd:VirtualProcessor.obj
 0002:00065c50       ?ClaimantWasInactive@VirtualProcessor@details@Concurrency@@QBE_NXZ 100e9c50 f i libconcrtd:VirtualProcessor.obj
 0002:00065c90       ?ClearDebugBits@InternalContextBase@details@Concurrency@@QAEXXZ 100e9c90 f i libconcrtd:VirtualProcessor.obj
 0002:00065cb0       ?Deactivate@VirtualProcessor@details@Concurrency@@QAE_NPAUIExecutionContext@3@@Z 100e9cb0 f   libconcrtd:VirtualProcessor.obj
 0002:00065d00       ?DecrementActiveResourcesByMask@SchedulerBase@details@Concurrency@@QAEXI@Z 100e9d00 f i libconcrtd:VirtualProcessor.obj
 0002:00065d30       ?DeleteElements@?$ListArray@VVirtualProcessor@details@Concurrency@@@details@Concurrency@@AAEXPAU_SINGLE_LIST_ENTRY@@@Z 100e9d30 f i libconcrtd:VirtualProcessor.obj
 0002:00065d80       ?Dereference@Segment@?$Mailbox@VInternalContextBase@details@Concurrency@@@details@Concurrency@@QAEXXZ 100e9d80 f i libconcrtd:VirtualProcessor.obj
 0002:00065db0       ?EnsureAllTasksVisible@VirtualProcessor@details@Concurrency@@QAEXPAUIExecutionContext@3@@Z 100e9db0 f   libconcrtd:VirtualProcessor.obj
 0002:00065e00       ?ExerciseClaim@VirtualProcessor@details@Concurrency@@AAE_NW4AvailabilityType@123@PAVScheduleGroupSegmentBase@23@PAVInternalContextBase@23@@Z 100e9e00 f   libconcrtd:VirtualProcessor.obj
 0002:000660a0       ?ExerciseWith@ClaimTicket@VirtualProcessor@details@Concurrency@@QAE_NPAVInternalContextBase@34@@Z 100ea0a0 f   libconcrtd:VirtualProcessor.obj
 0002:00066110       ?Expire@Segment@?$Mailbox@VInternalContextBase@details@Concurrency@@@details@Concurrency@@QAEXXZ 100ea110 f i libconcrtd:VirtualProcessor.obj
 0002:00066140       ?GetCurrentSubAllocator@VirtualProcessor@details@Concurrency@@QAEPAVSubAllocator@23@XZ 100ea140 f   libconcrtd:VirtualProcessor.obj
 0002:00066180       ?GetDefaultDestination@VirtualProcessor@details@Concurrency@@UAEPAUIExecutionContext@3@XZ 100ea180 f i libconcrtd:VirtualProcessor.obj
 0002:00066190       ?GetLocalRunnableContext@VirtualProcessor@details@Concurrency@@AAEPAVInternalContextBase@23@XZ 100ea190 f i libconcrtd:VirtualProcessor.obj
 0002:000661e0       ?GetResourceMaskId@SchedulerBase@details@Concurrency@@QAEII@Z 100ea1e0 f i libconcrtd:VirtualProcessor.obj
 0002:00066260       ?GetScheduler@SchedulingNode@details@Concurrency@@QAEPAVSchedulerBase@23@XZ 100ea260 f i libconcrtd:VirtualProcessor.obj
 0002:00066280       ?GetSchedulingProtocol@SchedulerBase@details@Concurrency@@QAE?AW4SchedulingProtocolType@3@XZ 100ea280 f i libconcrtd:VirtualProcessor.obj
 0002:000662a0       ?GetSchedulingRing@SchedulingNode@details@Concurrency@@QAEPAVSchedulingRing@23@XZ 100ea2a0 f i libconcrtd:VirtualProcessor.obj
 0002:000662c0       ?IgnoreAffinity@SchedulerBase@details@Concurrency@@QAEXI@Z 100ea2c0 f i libconcrtd:VirtualProcessor.obj
 0002:000662f0       ?Initialize@VirtualProcessor@details@Concurrency@@MAEXPAVSchedulingNode@23@PAUIVirtualProcessorRoot@3@@Z 100ea2f0 f   libconcrtd:VirtualProcessor.obj
 0002:00066660       ?InitializeTicket@ClaimTicket@VirtualProcessor@details@Concurrency@@AAEXW4AvailabilityType@234@PAV234@@Z 100ea660 f i libconcrtd:VirtualProcessor.obj
 0002:00066690       ?IsPrepared@InternalContextBase@details@Concurrency@@QBE_NXZ 100ea690 f i libconcrtd:VirtualProcessor.obj
 0002:000666d0       ?ListenAffinity@SchedulerBase@details@Concurrency@@QAEXI@Z 100ea6d0 f i libconcrtd:VirtualProcessor.obj
 0002:00066710       ?MakeAvailable@VirtualProcessor@details@Concurrency@@IAEXW4AvailabilityType@123@_N@Z 100ea710 f   libconcrtd:VirtualProcessor.obj
 0002:00066820       ?MarkForRetirement@VirtualProcessor@details@Concurrency@@AAEXXZ 100ea820 f   libconcrtd:VirtualProcessor.obj
 0002:000668c0       ?Oversubscribe@VirtualProcessor@details@Concurrency@@EAEPAV123@XZ 100ea8c0 f   libconcrtd:VirtualProcessor.obj
 0002:00066980       ?Pop@?$StructuredWorkStealingQueue@VInternalContextBase@details@Concurrency@@V_HyperNonReentrantLock@23@@details@Concurrency@@QAEPAVInternalContextBase@23@XZ 100ea980 f i libconcrtd:VirtualProcessor.obj
 0002:00066a30       ?PreRunnableSearch@VirtualProcessor@details@Concurrency@@UAEPAVInternalContextBase@23@XZ 100eaa30 f i libconcrtd:VirtualProcessor.obj
 0002:00066a40       ?Remove@?$ListArray@VVirtualProcessor@details@Concurrency@@@details@Concurrency@@QAE_NPAVVirtualProcessor@23@H_N@Z 100eaa40 f i libconcrtd:VirtualProcessor.obj
 0002:00066cf0       ?Remove@?$ListArray@VVirtualProcessor@details@Concurrency@@@details@Concurrency@@QAE_NPAVVirtualProcessor@23@_N@Z 100eacf0 f i libconcrtd:VirtualProcessor.obj
 0002:00066d20       ?Reset@SafePointMarker@details@Concurrency@@QAEXXZ 100ead20 f i libconcrtd:VirtualProcessor.obj
 0002:00066d40       ?Retire@VirtualProcessor@details@Concurrency@@MAEXXZ 100ead40 f   libconcrtd:VirtualProcessor.obj
 0002:000670b0       ?SafePoint@VirtualProcessor@details@Concurrency@@QAE_NXZ 100eb0b0 f   libconcrtd:VirtualProcessor.obj
 0002:000670f0       ?SaveRetiredVirtualProcessorStatistics@SchedulerBase@details@Concurrency@@QAEXPAVVirtualProcessor@23@@Z 100eb0f0 f i libconcrtd:VirtualProcessor.obj
 0002:00067140       ?StartupWorkerContext@VirtualProcessor@details@Concurrency@@EAE_NPAVScheduleGroupSegmentBase@23@PAVInternalContextBase@23@@Z 100eb140 f   libconcrtd:VirtualProcessor.obj
 0002:00067260       ?StaticDelete@Segment@?$Mailbox@VInternalContextBase@details@Concurrency@@@details@Concurrency@@SAXPAU1234@@Z 100eb260 f i libconcrtd:VirtualProcessor.obj
 0002:000672a0       ?ThrowVirtualProcessorEvent@VirtualProcessor@details@Concurrency@@CAXW4ConcRT_EventType@3@EKK@Z 100eb2a0 f   libconcrtd:VirtualProcessor.obj
 0002:00067360       ?ToInternalContext@VirtualProcessor@details@Concurrency@@MAEPAVInternalContextBase@23@PAUIExecutionContext@3@@Z 100eb360 f   libconcrtd:VirtualProcessor.obj
 0002:00067380       ?TraceVirtualProcessorEvent@VirtualProcessor@details@Concurrency@@AAEXW4ConcRT_EventType@3@EKK@Z 100eb380 f i libconcrtd:VirtualProcessor.obj
 0002:000673d0       ?UpdateWorkState@VirtualProcessor@details@Concurrency@@QAEX_N0@Z 100eb3d0 f   libconcrtd:VirtualProcessor.obj
 0002:00067470       ?Wipe@QuickBitSet@details@Concurrency@@QAEXXZ 100eb470 f i libconcrtd:VirtualProcessor.obj
 0002:000674d0       ??$_As@VVirtualProcessor@details@Concurrency@@@location@Concurrency@@QBEPAVVirtualProcessor@details@1@XZ 100eb4d0 f i libconcrtd:SchedulingNode.obj
 0002:000674f0       ??0?$ListArray@VVirtualProcessor@details@Concurrency@@@details@Concurrency@@QAE@PAVSchedulerBase@12@HH@Z 100eb4f0 f i libconcrtd:SchedulingNode.obj
 0002:000677a0       ??0ArrayNode@?$ListArray@VVirtualProcessor@details@Concurrency@@@details@Concurrency@@QAE@PAPAVVirtualProcessor@23@@Z 100eb7a0 f i libconcrtd:SchedulingNode.obj
 0002:000677e0       ??0QuickBitSet@details@Concurrency@@QAE@ABV012@@Z 100eb7e0 f i libconcrtd:SchedulingNode.obj
 0002:00067820       ??0SchedulingNode@details@Concurrency@@QAE@ABVQuickBitSet@12@KPAVSchedulingRing@12@@Z 100eb820 f   libconcrtd:SchedulingNode.obj
 0002:00067940       ??1?$ListArray@VVirtualProcessor@details@Concurrency@@@details@Concurrency@@QAE@XZ 100eb940 f i libconcrtd:SchedulingNode.obj
 0002:00067a90       ??1SchedulingNode@details@Concurrency@@QAE@XZ 100eba90 f   libconcrtd:SchedulingNode.obj
 0002:00067b10       ?Add@?$ListArray@VVirtualProcessor@details@Concurrency@@@details@Concurrency@@QAEHPAVVirtualProcessor@23@@Z 100ebb10 f i libconcrtd:SchedulingNode.obj
 0002:00067f00       ?AddVirtualProcessor@SchedulingNode@details@Concurrency@@QAEPAVVirtualProcessor@23@PAUIVirtualProcessorRoot@3@_N@Z 100ebf00 f   libconcrtd:SchedulingNode.obj
 0002:000681a0       ?Cleanup@SchedulingNode@details@Concurrency@@AAEXXZ 100ec1a0 f   libconcrtd:SchedulingNode.obj
 0002:000681b0       ?DeferToAffineSearchers@Slot@?$Mailbox@VInternalContextBase@details@Concurrency@@@details@Concurrency@@QBE_NXZ 100ec1b0 f i libconcrtd:SchedulingNode.obj
 0002:00068260       ?FindMatchingVirtualProcessor@SchedulingNode@details@Concurrency@@QAEPAVVirtualProcessor@23@PAUIVirtualProcessorRoot@3@@Z 100ec260 f   libconcrtd:SchedulingNode.obj
 0002:000682e0       ?FindVirtualProcessorByLocation@SchedulingNode@details@Concurrency@@QAEPAVVirtualProcessor@23@PBVlocation@3@@Z 100ec2e0 f   libconcrtd:SchedulingNode.obj
 0002:000683a0       ?FoundAvailableVirtualProcessor@SchedulingNode@details@Concurrency@@AAE_NAAVClaimTicket@VirtualProcessor@23@Vlocation@3@K@Z 100ec3a0 f   libconcrtd:SchedulingNode.obj
 0002:00068560       ?GetExecutionResourceId@VirtualProcessor@details@Concurrency@@QBEIXZ 100ec560 f i libconcrtd:SchedulingNode.obj
 0002:00068580       ?GetLocation@SchedulingNode@details@Concurrency@@QAE?AVlocation@3@XZ 100ec580 f   libconcrtd:SchedulingNode.obj
 0002:000685f0       ?HasSearchers@SchedulerBase@details@Concurrency@@QBE_NABVQuickBitSet@23@@Z 100ec5f0 f i libconcrtd:SchedulingNode.obj
 0002:00068620       ?IncrementActiveResourcesByMask@SchedulerBase@details@Concurrency@@QAEXI@Z 100ec620 f i libconcrtd:SchedulingNode.obj
 0002:00068650       ?IsLocationBound@SchedulerBase@details@Concurrency@@QBE_NPBVlocation@3@@Z 100ec650 f i libconcrtd:SchedulingNode.obj
 0002:000686a0       ?PullFromFreePool@?$ListArray@VVirtualProcessor@details@Concurrency@@@details@Concurrency@@QAEPAVVirtualProcessor@23@XZ 100ec6a0 f i libconcrtd:SchedulingNode.obj
 0002:000686e0       ?SetOversubscribedVProc@InternalContextBase@details@Concurrency@@QAEXPAVVirtualProcessor@23@@Z 100ec6e0 f i libconcrtd:SchedulingNode.obj
 0002:00068700       ?Steal@?$StructuredWorkStealingQueue@VInternalContextBase@details@Concurrency@@V_HyperNonReentrantLock@23@@details@Concurrency@@QAEPAVInternalContextBase@23@_N@Z 100ec700 f i libconcrtd:SchedulingNode.obj
 0002:00068790       ?StealLocalRunnableContext@SchedulingNode@details@Concurrency@@AAEPAVInternalContextBase@23@PAVVirtualProcessor@23@@Z 100ec790 f   libconcrtd:SchedulingNode.obj
 0002:00068870       ?UnlockedSteal@?$StructuredWorkStealingQueue@VInternalContextBase@details@Concurrency@@V_HyperNonReentrantLock@23@@details@Concurrency@@QAEPAVInternalContextBase@23@_N@Z 100ec870 f i libconcrtd:SchedulingNode.obj
 0002:00068990       ?_GetBindingId@location@Concurrency@@QBEIXZ 100ec990 f i libconcrtd:SchedulingNode.obj
 0002:000689b0       ??0AllocatorBucket@details@Concurrency@@QAE@XZ 100ec9b0 f   libconcrtd:SubAllocator.obj
 0002:000689e0       ??1AllocatorBucket@details@Concurrency@@QAE@XZ 100ec9e0 f   libconcrtd:SubAllocator.obj
 0002:00068ac0       ?Alloc@AllocatorBucket@details@Concurrency@@QAEPATAllocationEntry@23@XZ 100ecac0 f   libconcrtd:SubAllocator.obj
 0002:00068b60       ?Alloc@Concurrency@@YAPAXI@Z 100ecb60 f   libconcrtd:SubAllocator.obj
 0002:00068bd0       ?Alloc@SubAllocator@details@Concurrency@@QAEPAXI@Z 100ecbd0 f   libconcrtd:SubAllocator.obj
 0002:00068d50       ?CheckBytes@SubAllocator@details@Concurrency@@AAE_NPAEEI@Z 100ecd50 f   libconcrtd:SubAllocator.obj
 0002:00068db0       ?Free@AllocatorBucket@details@Concurrency@@QAE_NPATAllocationEntry@23@@Z 100ecdb0 f   libconcrtd:SubAllocator.obj
 0002:00068e50       ?Free@Concurrency@@YAXPAX@Z 100ece50 f   libconcrtd:SubAllocator.obj
 0002:00068ea0       ?Free@SubAllocator@details@Concurrency@@QAEXPAX@Z 100ecea0 f   libconcrtd:SubAllocator.obj
 0002:00068f80       ?GetBucketIndex@SubAllocator@details@Concurrency@@SAHI@Z 100ecf80 f   libconcrtd:SubAllocator.obj
 0002:00069180       ?InitAndCheckBlockOnAlloc@SubAllocator@details@Concurrency@@AAE_NPATAllocationEntry@23@I@Z 100ed180 f   libconcrtd:SubAllocator.obj
 0002:000692c0       ?InitAndCheckBlockOnFree@SubAllocator@details@Concurrency@@AAE_NPATAllocationEntry@23@I@Z 100ed2c0 f   libconcrtd:SubAllocator.obj
 0002:00069390       ?StaticAlloc@SubAllocator@details@Concurrency@@SAPAXI@Z 100ed390 f   libconcrtd:SubAllocator.obj
 0002:00069470       ??$_InternalDeleteHelper@VScheduleGroupSegmentBase@details@Concurrency@@@details@Concurrency@@YAXPAVScheduleGroupSegmentBase@01@@Z 100ed470 f i libconcrtd:SchedulingRing.obj
 0002:000694d0       ??0?$ListArray@VScheduleGroupSegmentBase@details@Concurrency@@@details@Concurrency@@QAE@PAVSchedulerBase@12@HH@Z 100ed4d0 f i libconcrtd:SchedulingRing.obj
 0002:00069780       ??0ArrayNode@?$ListArray@VScheduleGroupSegmentBase@details@Concurrency@@@details@Concurrency@@QAE@PAPAVScheduleGroupSegmentBase@23@@Z 100ed780 f i libconcrtd:SchedulingRing.obj
 0002:000697c0       ??0SchedulingRing@details@Concurrency@@QAE@PAVSchedulerBase@12@H@Z 100ed7c0 f   libconcrtd:SchedulingRing.obj
 0002:00069900       ??1?$ListArray@VScheduleGroupSegmentBase@details@Concurrency@@@details@Concurrency@@QAE@XZ 100ed900 f i libconcrtd:SchedulingRing.obj
 0002:00069a50       ??1SchedulingRing@details@Concurrency@@QAE@XZ 100eda50 f   libconcrtd:SchedulingRing.obj
 0002:00069ad0       ?Activate@SchedulingRing@details@Concurrency@@QAEXXZ 100edad0 f   libconcrtd:SchedulingRing.obj
 0002:00069b00       ?CheckForDeletion@?$ListArray@VScheduleGroupSegmentBase@details@Concurrency@@@details@Concurrency@@AAEXXZ 100edb00 f i libconcrtd:SchedulingRing.obj
 0002:00069b60       ?CheckForDeletionBridge@?$ListArray@VScheduleGroupSegmentBase@details@Concurrency@@@details@Concurrency@@CAXPAV123@@Z 100edb60 f i libconcrtd:SchedulingRing.obj
 0002:00069b70       ?DeleteElements@?$ListArray@VScheduleGroupSegmentBase@details@Concurrency@@@details@Concurrency@@AAEXPAU_SINGLE_LIST_ENTRY@@@Z 100edb70 f i libconcrtd:SchedulingRing.obj
 0002:00069bc0       ?Remove@?$ListArray@VScheduleGroupSegmentBase@details@Concurrency@@@details@Concurrency@@QAE_NPAVScheduleGroupSegmentBase@23@H_N@Z 100edbc0 f i libconcrtd:SchedulingRing.obj
 0002:00069e70       ?Remove@?$ListArray@VScheduleGroupSegmentBase@details@Concurrency@@@details@Concurrency@@QAE_NPAVScheduleGroupSegmentBase@23@_N@Z 100ede70 f i libconcrtd:SchedulingRing.obj
 0002:00069eb0       ?RemoveScheduleGroupSegment@SchedulingRing@details@Concurrency@@AAEXPAVScheduleGroupSegmentBase@23@@Z 100edeb0 f   libconcrtd:SchedulingRing.obj
 0002:00069f10       ??$_InternalDeleteHelper@U?$ListArrayInlineLink@VWorkQueue@details@Concurrency@@@details@Concurrency@@@details@Concurrency@@YAXPAU?$ListArrayInlineLink@VWorkQueue@details@Concurrency@@@01@@Z 100edf10 f i libconcrtd:ScheduleGroupBase.obj
 0002:00069f40       ??0?$ListArray@U?$ListArrayInlineLink@VWorkQueue@details@Concurrency@@@details@Concurrency@@@details@Concurrency@@QAE@PAVSchedulerBase@12@HH@Z 100edf40 f i libconcrtd:ScheduleGroupBase.obj
 0002:0006a1f0       ??0?$ListArray@VWorkQueue@details@Concurrency@@@details@Concurrency@@QAE@PAVSchedulerBase@12@HH@Z 100ee1f0 f i libconcrtd:ScheduleGroupBase.obj
 0002:0006a4a0       ??0?$Mailbox@V_UnrealizedChore@details@Concurrency@@@details@Concurrency@@QAE@PAVSchedulerBase@12@ABVQuickBitSet@12@_NI@Z 100ee4a0 f i libconcrtd:ScheduleGroupBase.obj
 0002:0006a650       ??0?$SQueue@VRealizedChore@details@Concurrency@@@details@Concurrency@@QAE@XZ 100ee650 f i libconcrtd:ScheduleGroupBase.obj
 0002:0006a680       ??0?$SafeSQueue@VRealizedChore@details@Concurrency@@V_HyperNonReentrantLock@23@@details@Concurrency@@QAE@XZ 100ee680 f i libconcrtd:ScheduleGroupBase.obj
 0002:0006a6b0       ??0ArrayNode@?$ListArray@U?$ListArrayInlineLink@VWorkQueue@details@Concurrency@@@details@Concurrency@@@details@Concurrency@@QAE@PAPAU?$ListArrayInlineLink@VWorkQueue@details@Concurrency@@@23@@Z 100ee6b0 f i libconcrtd:ScheduleGroupBase.obj
 0002:0006a6f0       ??0ExternalStatistics@details@Concurrency@@QAE@XZ 100ee6f0 f i libconcrtd:ScheduleGroupBase.obj
 0002:0006a740       ??0ScheduleGroup@Concurrency@@QAE@XZ 100ee740 f i libconcrtd:ScheduleGroupBase.obj
 0002:0006a760       ??0ScheduleGroupBase@details@Concurrency@@QAE@PAVSchedulerBase@12@PAVlocation@2@@Z 100ee760 f   libconcrtd:ScheduleGroupBase.obj
 0002:0006a850       ??0ScheduleGroupSegmentBase@details@Concurrency@@IAE@PAVScheduleGroupBase@12@PAVSchedulingRing@12@PAVlocation@2@@Z 100ee850 f   libconcrtd:ScheduleGroupBase.obj
 0002:0006a9e0       ??0Segment@?$Mailbox@V_UnrealizedChore@details@Concurrency@@@details@Concurrency@@QAE@PAVSchedulerBase@23@ABVQuickBitSet@23@II@Z 100ee9e0 f i libconcrtd:ScheduleGroupBase.obj
 0002:0006aae0       ??0Slot@?$Mailbox@V_UnrealizedChore@details@Concurrency@@@details@Concurrency@@AAE@PAUSegment@123@I@Z 100eeae0 f i libconcrtd:ScheduleGroupBase.obj
 0002:0006ab10       ??1?$ListArray@U?$ListArrayInlineLink@VWorkQueue@details@Concurrency@@@details@Concurrency@@@details@Concurrency@@QAE@XZ 100eeb10 f i libconcrtd:ScheduleGroupBase.obj
 0002:0006ac60       ??1?$ListArray@VWorkQueue@details@Concurrency@@@details@Concurrency@@QAE@XZ 100eec60 f i libconcrtd:ScheduleGroupBase.obj
 0002:0006adb0       ??1?$Mailbox@V_UnrealizedChore@details@Concurrency@@@details@Concurrency@@QAE@XZ 100eedb0 f i libconcrtd:ScheduleGroupBase.obj
 0002:0006aec0       ??1ScheduleGroupSegmentBase@details@Concurrency@@UAE@XZ 100eeec0 f   libconcrtd:ScheduleGroupBase.obj
 0002:0006b040       ??4QuickBitSet@details@Concurrency@@QAEAAV012@$$QAV012@@Z 100ef040 f i libconcrtd:ScheduleGroupBase.obj
 0002:0006b0b0       ??A?$ListArray@U?$ListArrayInlineLink@VWorkQueue@details@Concurrency@@@details@Concurrency@@@details@Concurrency@@QBEPAU?$ListArrayInlineLink@VWorkQueue@details@Concurrency@@@12@H@Z 100ef0b0 f i libconcrtd:ScheduleGroupBase.obj
 0002:0006b180       ??A?$ListArray@VWorkQueue@details@Concurrency@@@details@Concurrency@@QBEPAVWorkQueue@12@H@Z 100ef180 f i libconcrtd:ScheduleGroupBase.obj
 0002:0006b250       ??_EScheduleGroupSegmentBase@details@Concurrency@@UAEPAXI@Z 100ef250 f i libconcrtd:ScheduleGroupBase.obj
 0002:0006b250       ??_GScheduleGroupSegmentBase@details@Concurrency@@UAEPAXI@Z 100ef250 f i libconcrtd:ScheduleGroupBase.obj
 0002:0006b290       ?Add@?$ListArray@U?$ListArrayInlineLink@VWorkQueue@details@Concurrency@@@details@Concurrency@@@details@Concurrency@@QAEHPAU?$ListArrayInlineLink@VWorkQueue@details@Concurrency@@@23@@Z 100ef290 f i libconcrtd:ScheduleGroupBase.obj
 0002:0006b680       ?Add@?$ListArray@VExternalStatistics@details@Concurrency@@@details@Concurrency@@QAEHPAVExternalStatistics@23@@Z 100ef680 f i libconcrtd:ScheduleGroupBase.obj
 0002:0006ba70       ?Add@?$ListArray@VScheduleGroupSegmentBase@details@Concurrency@@@details@Concurrency@@QAEHPAVScheduleGroupSegmentBase@23@@Z 100efa70 f i libconcrtd:ScheduleGroupBase.obj
 0002:0006be60       ?AddExternalStatistics@SchedulerBase@details@Concurrency@@QAEXPAVExternalStatistics@23@@Z 100efe60 f i libconcrtd:ScheduleGroupBase.obj
 0002:0006be90       ?AddRunnableContext@ScheduleGroupSegmentBase@details@Concurrency@@IAEXPAVInternalContextBase@23@Vlocation@3@@Z 100efe90 f   libconcrtd:ScheduleGroupBase.obj
 0002:0006c0b0       ?AllSlotsClaimed@Segment@?$Mailbox@V_UnrealizedChore@details@Concurrency@@@details@Concurrency@@QAE_NI@Z 100f00b0 f i libconcrtd:ScheduleGroupBase.obj
 0002:0006c0f0       ?CheckForDeletion@?$ListArray@U?$ListArrayInlineLink@VWorkQueue@details@Concurrency@@@details@Concurrency@@@details@Concurrency@@AAEXXZ 100f00f0 f i libconcrtd:ScheduleGroupBase.obj
 0002:0006c150       ?CheckForDeletionBridge@?$ListArray@U?$ListArrayInlineLink@VWorkQueue@details@Concurrency@@@details@Concurrency@@@details@Concurrency@@CAXPAV123@@Z 100f0150 f i libconcrtd:ScheduleGroupBase.obj
 0002:0006c160       ?ClearQuickCacheSlotIf@SchedulerBase@details@Concurrency@@QAEXIPAVScheduleGroupSegmentBase@23@@Z 100f0160 f i libconcrtd:ScheduleGroupBase.obj
 0002:0006c1b0       ?CreateSegment@ScheduleGroupBase@details@Concurrency@@IAEPAVScheduleGroupSegmentBase@23@PAVlocation@3@PAVSchedulingRing@23@@Z 100f01b0 f   libconcrtd:ScheduleGroupBase.obj
 0002:0006c300       ?DeleteElements@?$ListArray@U?$ListArrayInlineLink@VWorkQueue@details@Concurrency@@@details@Concurrency@@@details@Concurrency@@AAEXPAU_SINGLE_LIST_ENTRY@@@Z 100f0300 f i libconcrtd:ScheduleGroupBase.obj
 0002:0006c350       ?DemandInitialize@?$Mailbox@V_UnrealizedChore@details@Concurrency@@@details@Concurrency@@AAEXXZ 100f0350 f i libconcrtd:ScheduleGroupBase.obj
 0002:0006c4a0       ?Dequeue@?$Mailbox@V_UnrealizedChore@details@Concurrency@@@details@Concurrency@@QAE_NPAPAV_UnrealizedChore@23@@Z 100f04a0 f i libconcrtd:ScheduleGroupBase.obj
 0002:0006c6d0       ?Dequeue@?$SQueue@VRealizedChore@details@Concurrency@@@details@Concurrency@@QAEPAVRealizedChore@23@XZ 100f06d0 f i libconcrtd:ScheduleGroupBase.obj
 0002:0006c730       ?Dequeue@?$SafeSQueue@VRealizedChore@details@Concurrency@@V_HyperNonReentrantLock@23@@details@Concurrency@@QAEPAVRealizedChore@23@XZ 100f0730 f i libconcrtd:ScheduleGroupBase.obj
 0002:0006c7c0       ?DetachActiveWorkQueue@ScheduleGroupSegmentBase@details@Concurrency@@IAEXPAVWorkQueue@23@@Z 100f07c0 f   libconcrtd:ScheduleGroupBase.obj
 0002:0006c810       ?Empty@?$SQueue@VRealizedChore@details@Concurrency@@@details@Concurrency@@QBE_NXZ 100f0810 f i libconcrtd:ScheduleGroupBase.obj
 0002:0006c850       ?Empty@?$StructuredWorkStealingQueue@V_UnrealizedChore@details@Concurrency@@V_CriticalNonReentrantLock@23@@details@Concurrency@@QBE_NXZ 100f0850 f i libconcrtd:ScheduleGroupBase.obj
 0002:0006c890       ?Enqueue@?$SQueue@VRealizedChore@details@Concurrency@@@details@Concurrency@@QAEXPAVRealizedChore@23@@Z 100f0890 f i libconcrtd:ScheduleGroupBase.obj
 0002:0006c910       ?Enqueue@?$SafeSQueue@VRealizedChore@details@Concurrency@@V_HyperNonReentrantLock@23@@details@Concurrency@@QAEXPAVRealizedChore@23@@Z 100f0910 f i libconcrtd:ScheduleGroupBase.obj
 0002:0006c9a0       ?FindSegment@ScheduleGroupBase@details@Concurrency@@MAEPAVScheduleGroupSegmentBase@23@PAVlocation@3@PAVSchedulingRing@23@@Z 100f09a0 f   libconcrtd:ScheduleGroupBase.obj
 0002:0006cab0       ?GetDetachedWorkQueue@ScheduleGroupSegmentBase@details@Concurrency@@IAEPAVWorkQueue@23@XZ 100f0ab0 f   libconcrtd:ScheduleGroupBase.obj
 0002:0006cb80       ?GetInternalContext@ScheduleGroupSegmentBase@details@Concurrency@@IAEPAVInternalContextBase@23@PAU_Chore@23@_N@Z 100f0b80 f   libconcrtd:ScheduleGroupBase.obj
 0002:0006cbe0       ?GetOwningNode@SchedulingRing@details@Concurrency@@QBEPAVSchedulingNode@23@XZ 100f0be0 f i libconcrtd:ScheduleGroupBase.obj
 0002:0006cc00       ?GetRealizedChore@ScheduleGroupSegmentBase@details@Concurrency@@IAEPAVRealizedChore@23@XZ 100f0c00 f   libconcrtd:ScheduleGroupBase.obj
 0002:0006cc50       ?GetScheduler@ScheduleGroupBase@details@Concurrency@@QAEPAVSchedulerBase@23@XZ 100f0c50 f i libconcrtd:ScheduleGroupBase.obj
 0002:0006cc70       ?GetSchedulingRing@ScheduleGroupSegmentBase@details@Concurrency@@QBEPAVSchedulingRing@23@XZ 100f0c70 f i libconcrtd:ScheduleGroupBase.obj
 0002:0006cc90       ?Grow@?$Mailbox@V_UnrealizedChore@details@Concurrency@@@details@Concurrency@@AAEPAUSegment@123@PAU4123@@Z 100f0c90 f i libconcrtd:ScheduleGroupBase.obj
 0002:0006cd90       ?HasRealizedChores@ScheduleGroupSegmentBase@details@Concurrency@@IBE_NXZ 100f0d90 f   libconcrtd:ScheduleGroupBase.obj
 0002:0006cdd0       ?HasUnrealizedChores@ScheduleGroupSegmentBase@details@Concurrency@@IAE_NXZ 100f0dd0 f   libconcrtd:ScheduleGroupBase.obj
 0002:0006ce10       ?Initialize@?$Mailbox@V_UnrealizedChore@details@Concurrency@@@details@Concurrency@@QAEXABVQuickBitSet@23@@Z 100f0e10 f i libconcrtd:ScheduleGroupBase.obj
 0002:0006ce60       ?Initialize@ScheduleGroupBase@details@Concurrency@@QAEXPAVlocation@3@@Z 100f0e60 f   libconcrtd:ScheduleGroupBase.obj
 0002:0006ced0       ?Initialize@ScheduleGroupSegmentBase@details@Concurrency@@IAEXPAVScheduleGroupBase@23@PAVSchedulingRing@23@PAVlocation@3@@Z 100f0ed0 f   libconcrtd:ScheduleGroupBase.obj
 0002:0006d010       ?IsDetached@WorkQueue@details@Concurrency@@QBE_NXZ 100f1010 f i libconcrtd:ScheduleGroupBase.obj
 0002:0006d050       ?IsEmpty@?$Mailbox@V_UnrealizedChore@details@Concurrency@@@details@Concurrency@@QBE_NXZ 100f1050 f i libconcrtd:ScheduleGroupBase.obj
 0002:0006d090       ?IsEmpty@WorkQueue@details@Concurrency@@QBE_NXZ 100f1090 f i libconcrtd:ScheduleGroupBase.obj
 0002:0006d0f0       ?IsEmptyAtSafePoint@?$ListArray@U?$ListArrayInlineLink@VWorkQueue@details@Concurrency@@@details@Concurrency@@@details@Concurrency@@QAE_NXZ 100f10f0 f i libconcrtd:ScheduleGroupBase.obj
 0002:0006d160       ?IsEmptyAtSafePoint@?$ListArray@VWorkQueue@details@Concurrency@@@details@Concurrency@@QAE_NXZ 100f1160 f i libconcrtd:ScheduleGroupBase.obj
 0002:0006d1d0       ?IsStructuredEmpty@WorkQueue@details@Concurrency@@QBE_NXZ 100f11d0 f i libconcrtd:ScheduleGroupBase.obj
 0002:0006d1f0       ?LocateMailboxSegment@?$Mailbox@V_UnrealizedChore@details@Concurrency@@@details@Concurrency@@AAEPAUSegment@123@I_N@Z 100f11f0 f i libconcrtd:ScheduleGroupBase.obj
 0002:0006d330       ?LocateSegment@ScheduleGroupBase@details@Concurrency@@UAEPAVScheduleGroupSegmentBase@23@PAVlocation@3@_N@Z 100f1330 f   libconcrtd:ScheduleGroupBase.obj
 0002:0006d600       ?LocateUnrealizedChores@ScheduleGroupSegmentBase@details@Concurrency@@IAEPAVWorkQueue@23@XZ 100f1600 f   libconcrtd:ScheduleGroupBase.obj
 0002:0006d6d0       ?MarkDetachment@?$WorkStealingQueue@V_UnrealizedChore@details@Concurrency@@V_CriticalNonReentrantLock@23@@details@Concurrency@@QAEXXZ 100f16d0 f i libconcrtd:ScheduleGroupBase.obj
 0002:0006d720       ?MarkDetachment@WorkQueue@details@Concurrency@@QAEXXZ 100f1720 f i libconcrtd:ScheduleGroupBase.obj
 0002:0006d740       ?MaxIndex@?$ListArray@U?$ListArrayInlineLink@VWorkQueue@details@Concurrency@@@details@Concurrency@@@details@Concurrency@@QAEHXZ 100f1740 f i libconcrtd:ScheduleGroupBase.obj
 0002:0006d760       ?MaxIndex@?$ListArray@VWorkQueue@details@Concurrency@@@details@Concurrency@@QAEHXZ 100f1760 f i libconcrtd:ScheduleGroupBase.obj
 0002:0006d780       ?PullFromFreePool@?$ListArray@VScheduleGroupSegmentBase@details@Concurrency@@@details@Concurrency@@QAEPAVScheduleGroupSegmentBase@23@XZ 100f1780 f i libconcrtd:ScheduleGroupBase.obj
 0002:0006d7c0       ?RedetachQueue@ScheduleGroupSegmentBase@details@Concurrency@@QAEXPAVWorkQueue@23@@Z 100f17c0 f   libconcrtd:ScheduleGroupBase.obj
 0002:0006d7f0       ?ReleaseInternalContext@ScheduleGroupSegmentBase@details@Concurrency@@IAEXPAVInternalContextBase@23@@Z 100f17f0 f   libconcrtd:ScheduleGroupBase.obj
 0002:0006d830       ?Remove@?$ListArray@U?$ListArrayInlineLink@VWorkQueue@details@Concurrency@@@details@Concurrency@@@details@Concurrency@@QAE_NPAU?$ListArrayInlineLink@VWorkQueue@details@Concurrency@@@23@H_N@Z 100f1830 f i libconcrtd:ScheduleGroupBase.obj
 0002:0006dae0       ?Remove@?$ListArray@U?$ListArrayInlineLink@VWorkQueue@details@Concurrency@@@details@Concurrency@@@details@Concurrency@@QAE_NPAU?$ListArrayInlineLink@VWorkQueue@details@Concurrency@@@23@_N@Z 100f1ae0 f i libconcrtd:ScheduleGroupBase.obj
 0002:0006db10       ?Remove@ScheduleGroupSegmentBase@details@Concurrency@@IAEXXZ 100f1b10 f   libconcrtd:ScheduleGroupBase.obj
 0002:0006db60       ?RemoveSegments@ScheduleGroupBase@details@Concurrency@@MAEXXZ 100f1b60 f   libconcrtd:ScheduleGroupBase.obj
 0002:0006dc00       ?RetireDetachedQueue@ScheduleGroupSegmentBase@details@Concurrency@@QAEXPAVWorkQueue@23@@Z 100f1c00 f   libconcrtd:ScheduleGroupBase.obj
 0002:0006dc80       ?SafelyDeleteDetachedWorkQueue@ScheduleGroupSegmentBase@details@Concurrency@@IAE_NPAVWorkQueue@23@@Z 100f1c80 f   libconcrtd:ScheduleGroupBase.obj
 0002:0006dd40       ?ScheduleTask@ScheduleGroupBase@details@Concurrency@@QAEXP6AXPAX@Z0AAVlocation@3@@Z 100f1d40 f   libconcrtd:ScheduleGroupBase.obj
 0002:0006dda0       ?ScheduleTask@ScheduleGroupBase@details@Concurrency@@UAEXP6AXPAX@Z0@Z 100f1da0 f   libconcrtd:ScheduleGroupBase.obj
 0002:0006de00       ?ScheduleTask@ScheduleGroupSegmentBase@details@Concurrency@@QAEXP6AXPAX@Z0@Z 100f1e00 f   libconcrtd:ScheduleGroupBase.obj
 0002:0006e110       ?SetDeletionReferences@Segment@?$Mailbox@V_UnrealizedChore@details@Concurrency@@@details@Concurrency@@QAEXI@Z 100f2110 f i libconcrtd:ScheduleGroupBase.obj
 0002:0006e140       ?SetDetached@WorkQueue@details@Concurrency@@QAEX_N@Z 100f2140 f i libconcrtd:ScheduleGroupBase.obj
 0002:0006e1a0       ?StealUnrealizedChore@ScheduleGroupSegmentBase@details@Concurrency@@IAEPAV_UnrealizedChore@23@_N@Z 100f21a0 f   libconcrtd:ScheduleGroupBase.obj
 0002:0006e510       ??IQuickBitSet@details@Concurrency@@QBE?AV012@ABV012@@Z 100f2510 f i libconcrtd:CacheLocalScheduleGroup.obj
 0002:0006e650       ?AddToRunnablesCollection@CacheLocalScheduleGroupSegment@details@Concurrency@@EAEXPAVInternalContextBase@23@@Z 100f2650 f   libconcrtd:CacheLocalScheduleGroup.obj
 0002:0006e680       ?Enqueue@?$Mailbox@V_UnrealizedChore@details@Concurrency@@@details@Concurrency@@QAE?AVSlot@123@PAV_UnrealizedChore@23@@Z 100f2680 f i libconcrtd:CacheLocalScheduleGroup.obj
 0002:0006e710       ?Enqueue@?$SQueue@VInternalContextBase@details@Concurrency@@@details@Concurrency@@QAEXPAVInternalContextBase@23@@Z 100f2710 f i libconcrtd:CacheLocalScheduleGroup.obj
 0002:0006e7a0       ?Enqueue@?$SafeSQueue@VInternalContextBase@details@Concurrency@@V_HyperNonReentrantLock@23@@details@Concurrency@@QAEXPAVInternalContextBase@23@@Z 100f27a0 f i libconcrtd:CacheLocalScheduleGroup.obj
 0002:0006e830       ?InterlockedSet@QuickBitSet@details@Concurrency@@QAEXABV123@@Z 100f2830 f i libconcrtd:CacheLocalScheduleGroup.obj
 0002:0006e8f0       ?MailChore@CacheLocalScheduleGroup@details@Concurrency@@UAE?AVSlot@?$Mailbox@V_UnrealizedChore@details@Concurrency@@@23@PAV_UnrealizedChore@23@PAVlocation@3@PAPAVScheduleGroupSegmentBase@23@@Z 100f28f0 f   libconcrtd:CacheLocalScheduleGroup.obj
 0002:0006e950       ?MailChore@CacheLocalScheduleGroupSegment@details@Concurrency@@QAE?AVSlot@?$Mailbox@V_UnrealizedChore@details@Concurrency@@@23@PAV_UnrealizedChore@23@@Z 100f2950 f   libconcrtd:CacheLocalScheduleGroup.obj
 0002:0006ea30       ?NotifyAffinitizedWork@CacheLocalScheduleGroupSegment@details@Concurrency@@UAEXXZ 100f2a30 f   libconcrtd:CacheLocalScheduleGroup.obj
 0002:0006eaa0       ?PostAffinityMessage@SchedulerBase@details@Concurrency@@QAEXABVQuickBitSet@23@@Z 100f2aa0 f i libconcrtd:CacheLocalScheduleGroup.obj
 0002:0006eb60       ?SetQuickCacheSlot@SchedulerBase@details@Concurrency@@QAEXIPAVScheduleGroupSegmentBase@23@@Z 100f2b60 f i libconcrtd:CacheLocalScheduleGroup.obj
 0002:0006ebb0       ?AddToRunnablesCollection@FairScheduleGroupSegment@details@Concurrency@@EAEXPAVInternalContextBase@23@@Z 100f2bb0 f   libconcrtd:FairScheduleGroup.obj
 0002:0006ebe0       ?FindSegment@FairScheduleGroup@details@Concurrency@@MAEPAVScheduleGroupSegmentBase@23@PAVlocation@3@PAVSchedulingRing@23@@Z 100f2be0 f   libconcrtd:FairScheduleGroup.obj
 0002:0006ecc0       ?LocateSegment@FairScheduleGroup@details@Concurrency@@UAEPAVScheduleGroupSegmentBase@23@PAVlocation@3@_N@Z 100f2cc0 f   libconcrtd:FairScheduleGroup.obj
 0002:0006ee20       ??0ExternalContextBase@details@Concurrency@@QAE@PAVSchedulerBase@12@_N@Z 100f2e20 f   libconcrtd:ExternalContextBase.obj
 0002:0006ef80       ??1ExternalContextBase@details@Concurrency@@UAE@XZ 100f2f80 f   libconcrtd:ExternalContextBase.obj
 0002:0006eff0       ??_GExternalContextBase@details@Concurrency@@UAEPAXI@Z 100f2ff0 f i libconcrtd:ExternalContextBase.obj
 0002:0006eff0       ??_EExternalContextBase@details@Concurrency@@UAEPAXI@Z 100f2ff0 f i libconcrtd:ExternalContextBase.obj
 0002:0006f030       ?Alloc@ExternalContextBase@details@Concurrency@@UAEPAXI@Z 100f3030 f   libconcrtd:ExternalContextBase.obj
 0002:0006f0e0       ?Block@ExternalContextBase@details@Concurrency@@UAEXXZ 100f30e0 f   libconcrtd:ExternalContextBase.obj
 0002:0006f1b0       ?Cleanup@ExternalContextBase@details@Concurrency@@AAEXXZ 100f31b0 f   libconcrtd:ExternalContextBase.obj
 0002:0006f250       ?DetachStatistics@ExternalContextBase@details@Concurrency@@QAEPAVExternalStatistics@23@XZ 100f3250 f i libconcrtd:ExternalContextBase.obj
 0002:0006f290       ?Free@ExternalContextBase@details@Concurrency@@UAEXPAX@Z 100f3290 f   libconcrtd:ExternalContextBase.obj
 0002:0006f360       ?GetContextKind@ExternalContextBase@details@Concurrency@@EBE?AW4ContextKind@ContextBase@23@XZ 100f3360 f i libconcrtd:ExternalContextBase.obj
 0002:0006f370       ?GetCurrentSubAllocator@ExternalContextBase@details@Concurrency@@QAEPAVSubAllocator@23@XZ 100f3370 f i libconcrtd:ExternalContextBase.obj
 0002:0006f3b0       ?GetThreadId@ExternalContextBase@details@Concurrency@@UBEKXZ 100f33b0 f i libconcrtd:ExternalContextBase.obj
 0002:0006f3d0       ?GetVirtualProcessorId@ExternalContextBase@details@Concurrency@@UBEIXZ 100f33d0 f i libconcrtd:ExternalContextBase.obj
 0002:0006f3f0       ?ImplicitDetachHandler@ExternalContextBase@details@Concurrency@@CGXPAU_TP_CALLBACK_INSTANCE@@PAXPAU_TP_WAIT@@K@Z 100f33f0 f   libconcrtd:ExternalContextBase.obj
 0002:0006f470       ?ImplicitDetachHandlerXP@ExternalContextBase@details@Concurrency@@CGXPAXE@Z 100f3470 f   libconcrtd:ExternalContextBase.obj
 0002:0006f4f0       ?IsSynchronouslyBlocked@ExternalContextBase@details@Concurrency@@UBE_NXZ 100f34f0 f i libconcrtd:ExternalContextBase.obj
 0002:0006f530       ?MarkInactive@ExternalStatistics@details@Concurrency@@QAEXXZ 100f3530 f i libconcrtd:ExternalContextBase.obj
 0002:0006f550       ?Oversubscribe@ExternalContextBase@details@Concurrency@@UAEX_N@Z 100f3550 f   libconcrtd:ExternalContextBase.obj
 0002:0006f5c0       ?PrepareForUse@ExternalContextBase@details@Concurrency@@QAEX_N@Z 100f35c0 f   libconcrtd:ExternalContextBase.obj
 0002:0006f760       ?RemoveFromUse@ExternalContextBase@details@Concurrency@@QAEXXZ 100f3760 f   libconcrtd:ExternalContextBase.obj
 0002:0006f800       ?SpinYield@ExternalContextBase@details@Concurrency@@UAEXXZ 100f3800 f i libconcrtd:ExternalContextBase.obj
 0002:0006f830       ?StaticFree@SubAllocator@details@Concurrency@@SAXPAX@Z 100f3830 f i libconcrtd:ExternalContextBase.obj
 0002:0006f860       ?Unblock@ExternalContextBase@details@Concurrency@@UAEXXZ 100f3860 f   libconcrtd:ExternalContextBase.obj
 0002:0006f980       ?Yield@ExternalContextBase@details@Concurrency@@UAEXXZ 100f3980 f   libconcrtd:ExternalContextBase.obj
 0002:0006f9e0       ??0IScheduler@Concurrency@@QAE@XZ 100f39e0 f i libconcrtd:ThreadScheduler.obj
 0002:0006fa00       ??0ThreadInternalContext@details@Concurrency@@QAE@PAVSchedulerBase@12@@Z 100f3a00 f i libconcrtd:ThreadScheduler.obj
 0002:0006fa40       ??0ThreadScheduler@details@Concurrency@@QAE@ABVSchedulerPolicy@2@@Z 100f3a40 f   libconcrtd:ThreadScheduler.obj
 0002:0006fa90       ??1ThreadInternalContext@details@Concurrency@@UAE@XZ 100f3a90 f i libconcrtd:ThreadScheduler.obj
 0002:0006fac0       ??1ThreadScheduler@details@Concurrency@@UAE@XZ 100f3ac0 f   libconcrtd:ThreadScheduler.obj
 0002:0006faf3       ??_EThreadInternalContext@details@Concurrency@@W3AEPAXI@Z 100f3af3 f i libconcrtd:ThreadScheduler.obj
 0002:0006fafd       ??_EThreadScheduler@details@Concurrency@@W7AEPAXI@Z 100f3afd f i libconcrtd:ThreadScheduler.obj
 0002:0006fb10       ??_GThreadInternalContext@details@Concurrency@@UAEPAXI@Z 100f3b10 f i libconcrtd:ThreadScheduler.obj
 0002:0006fb10       ??_EThreadInternalContext@details@Concurrency@@UAEPAXI@Z 100f3b10 f i libconcrtd:ThreadScheduler.obj
 0002:0006fb50       ??_EThreadScheduler@details@Concurrency@@UAEPAXI@Z 100f3b50 f i libconcrtd:ThreadScheduler.obj
 0002:0006fb50       ??_GThreadScheduler@details@Concurrency@@UAEPAXI@Z 100f3b50 f i libconcrtd:ThreadScheduler.obj
 0002:0006fb90       ?AddVirtualProcessors@ThreadScheduler@details@Concurrency@@UAEXPAPAUIVirtualProcessorRoot@3@I@Z 100f3b90 f i libconcrtd:ThreadScheduler.obj
 0002:0006fbc0       ?Create@ThreadScheduler@details@Concurrency@@SAPAV123@ABVSchedulerPolicy@3@@Z 100f3bc0 f   libconcrtd:ThreadScheduler.obj
 0002:0006fc70       ?CreateInternalContext@ThreadScheduler@details@Concurrency@@MAEPAVInternalContextBase@23@XZ 100f3c70 f   libconcrtd:ThreadScheduler.obj
 0002:0006fd40       ?CreateVirtualProcessor@ThreadScheduler@details@Concurrency@@UAEPAVVirtualProcessor@23@PAVSchedulingNode@23@PAUIVirtualProcessorRoot@3@@Z 100f3d40 f   libconcrtd:ThreadScheduler.obj
 0002:0006fe00       ?GetContextKind@ThreadInternalContext@details@Concurrency@@UBE?AW4ContextKind@ContextBase@23@XZ 100f3e00 f i libconcrtd:ThreadScheduler.obj
 0002:0006fe20       ?GetIScheduler@ThreadScheduler@details@Concurrency@@UAEPAUIScheduler@3@XZ 100f3e20 f i libconcrtd:ThreadScheduler.obj
 0002:0006fe40       ?GetId@ThreadScheduler@details@Concurrency@@UBEIXZ 100f3e40 f i libconcrtd:ThreadScheduler.obj
 0002:0006fe80       ?GetPolicy@ThreadScheduler@details@Concurrency@@UBE?AVSchedulerPolicy@3@XZ 100f3e80 f i libconcrtd:ThreadScheduler.obj
 0002:0006febd       ?GetPolicy@ThreadScheduler@details@Concurrency@@W7BE?AVSchedulerPolicy@3@XZ 100f3ebd f i libconcrtd:ThreadScheduler.obj
 0002:0006fed0       ?NotifyResourcesExternallyBusy@ThreadScheduler@details@Concurrency@@UAEXPAPAUIVirtualProcessorRoot@3@I@Z 100f3ed0 f i libconcrtd:ThreadScheduler.obj
 0002:0006fee0       ?NotifyResourcesExternallyIdle@ThreadScheduler@details@Concurrency@@UAEXPAPAUIVirtualProcessorRoot@3@I@Z 100f3ee0 f i libconcrtd:ThreadScheduler.obj
 0002:0006fef0       ?RemoveVirtualProcessors@ThreadScheduler@details@Concurrency@@UAEXPAPAUIVirtualProcessorRoot@3@I@Z 100f3ef0 f i libconcrtd:ThreadScheduler.obj
 0002:0006ff20       ?Statistics@ThreadScheduler@details@Concurrency@@UAEXPAI00@Z 100f3f20 f i libconcrtd:ThreadScheduler.obj
 0002:0006ff50       ??0IUMSScheduler@Concurrency@@QAE@XZ 100f3f50 f i libconcrtd:UMSThreadScheduler.obj
 0002:0006ff80       ??0UMSThreadScheduler@details@Concurrency@@QAE@ABVSchedulerPolicy@2@@Z 100f3f80 f   libconcrtd:UMSThreadScheduler.obj
 0002:0006ffe0       ??1UMSThreadScheduler@details@Concurrency@@UAE@XZ 100f3fe0 f   libconcrtd:UMSThreadScheduler.obj
 0002:00070013       ??_EUMSThreadScheduler@details@Concurrency@@W7AEPAXI@Z 100f4013 f i libconcrtd:UMSThreadScheduler.obj
 0002:00070020       ??_GUMSThreadScheduler@details@Concurrency@@UAEPAXI@Z 100f4020 f i libconcrtd:UMSThreadScheduler.obj
 0002:00070020       ??_EUMSThreadScheduler@details@Concurrency@@UAEPAXI@Z 100f4020 f i libconcrtd:UMSThreadScheduler.obj
 0002:00070060       ?AddVirtualProcessors@UMSThreadScheduler@details@Concurrency@@UAEXPAPAUIVirtualProcessorRoot@3@I@Z 100f4060 f i libconcrtd:UMSThreadScheduler.obj
 0002:00070090       ?AllowGeneralFetchOfReservedContexts@UMSThreadScheduler@details@Concurrency@@MAE_NXZ 100f4090 f i libconcrtd:UMSThreadScheduler.obj
 0002:000700a0       ?Create@UMSThreadScheduler@details@Concurrency@@SAPAV123@ABVSchedulerPolicy@3@@Z 100f40a0 f   libconcrtd:UMSThreadScheduler.obj
 0002:00070150       ?CreateInternalContext@UMSThreadScheduler@details@Concurrency@@MAEPAVInternalContextBase@23@XZ 100f4150 f   libconcrtd:UMSThreadScheduler.obj
 0002:00070220       ?CreateVirtualProcessor@UMSThreadScheduler@details@Concurrency@@UAEPAVVirtualProcessor@23@PAVSchedulingNode@23@PAUIVirtualProcessorRoot@3@@Z 100f4220 f   libconcrtd:UMSThreadScheduler.obj
 0002:000702e0       ?GetIScheduler@UMSThreadScheduler@details@Concurrency@@UAEPAUIScheduler@3@XZ 100f42e0 f i libconcrtd:UMSThreadScheduler.obj
 0002:00070300       ?GetId@UMSThreadScheduler@details@Concurrency@@UBEIXZ 100f4300 f i libconcrtd:UMSThreadScheduler.obj
 0002:00070340       ?GetPolicy@UMSThreadScheduler@details@Concurrency@@UBE?AVSchedulerPolicy@3@XZ 100f4340 f i libconcrtd:UMSThreadScheduler.obj
 0002:0007037d       ?GetPolicy@UMSThreadScheduler@details@Concurrency@@W7BE?AVSchedulerPolicy@3@XZ 100f437d f i libconcrtd:UMSThreadScheduler.obj
 0002:00070390       ?MoveCompletionListToRunnables@UMSThreadScheduler@details@Concurrency@@QAE_NVlocation@3@@Z 100f4390 f   libconcrtd:UMSThreadScheduler.obj
 0002:00070580       ?NotifyResourcesExternallyBusy@UMSThreadScheduler@details@Concurrency@@UAEXPAPAUIVirtualProcessorRoot@3@I@Z 100f4580 f i libconcrtd:UMSThreadScheduler.obj
 0002:00070590       ?NotifyResourcesExternallyIdle@UMSThreadScheduler@details@Concurrency@@UAEXPAPAUIVirtualProcessorRoot@3@I@Z 100f4590 f i libconcrtd:UMSThreadScheduler.obj
 0002:000705a0       ?OneShotStaticConstruction@UMSThreadScheduler@details@Concurrency@@SAXXZ 100f45a0 f   libconcrtd:UMSThreadScheduler.obj
 0002:00070600       ?OneShotStaticDestruction@UMSThreadScheduler@details@Concurrency@@SAXXZ 100f4600 f   libconcrtd:UMSThreadScheduler.obj
 0002:00070630       ?RemoveVirtualProcessors@UMSThreadScheduler@details@Concurrency@@UAEXPAPAUIVirtualProcessorRoot@3@I@Z 100f4630 f i libconcrtd:UMSThreadScheduler.obj
 0002:00070660       ?SetCompletionList@UMSThreadScheduler@details@Concurrency@@UAEXPAUIUMSCompletionList@3@@Z 100f4660 f i libconcrtd:UMSThreadScheduler.obj
 0002:00070680       ?Statistics@UMSThreadScheduler@details@Concurrency@@UAEXPAI00@Z 100f4680 f i libconcrtd:UMSThreadScheduler.obj
 0002:000706b0       ?VirtualProcessorActiveNotification@UMSThreadScheduler@details@Concurrency@@MAEX_NJ@Z 100f46b0 f   libconcrtd:UMSThreadScheduler.obj
 0002:00070770       ??0UMSThreadVirtualProcessor@details@Concurrency@@QAE@PAVSchedulingNode@12@PAUIVirtualProcessorRoot@2@@Z 100f4770 f   libconcrtd:UMSThreadVirtualProcessor.obj
 0002:00070810       ??1UMSSchedulingContext@details@Concurrency@@QAE@XZ 100f4810 f i libconcrtd:UMSThreadVirtualProcessor.obj
 0002:00070830       ??1UMSThreadVirtualProcessor@details@Concurrency@@UAE@XZ 100f4830 f   libconcrtd:UMSThreadVirtualProcessor.obj
 0002:00070890       ??_GUMSSchedulingContext@details@Concurrency@@QAEPAXI@Z 100f4890 f i libconcrtd:UMSThreadVirtualProcessor.obj
 0002:000708d0       ??_GUMSThreadVirtualProcessor@details@Concurrency@@UAEPAXI@Z 100f48d0 f i libconcrtd:UMSThreadVirtualProcessor.obj
 0002:000708d0       ??_EUMSThreadVirtualProcessor@details@Concurrency@@UAEPAXI@Z 100f48d0 f i libconcrtd:UMSThreadVirtualProcessor.obj
 0002:00070910       ?Affinitize@UMSThreadVirtualProcessor@details@Concurrency@@MAEXPAVInternalContextBase@23@@Z 100f4910 f   libconcrtd:UMSThreadVirtualProcessor.obj
 0002:00070950       ?AttemptWake@UMSThreadVirtualProcessor@details@Concurrency@@QAEXXZ 100f4950 f   libconcrtd:UMSThreadVirtualProcessor.obj
 0002:000709d0       ?CriticalNotify@UMSThreadVirtualProcessor@details@Concurrency@@QAEXXZ 100f49d0 f   libconcrtd:UMSThreadVirtualProcessor.obj
 0002:00070a00       ?GetDefaultDestination@UMSThreadVirtualProcessor@details@Concurrency@@UAEPAUIExecutionContext@3@XZ 100f4a00 f i libconcrtd:UMSThreadVirtualProcessor.obj
 0002:00070a20       ?GetLocation@VirtualProcessor@details@Concurrency@@QBEABVlocation@3@XZ 100f4a20 f i libconcrtd:UMSThreadVirtualProcessor.obj
 0002:00070a40       ?Initialize@UMSThreadVirtualProcessor@details@Concurrency@@MAEXPAVSchedulingNode@23@PAUIVirtualProcessorRoot@3@@Z 100f4a40 f   libconcrtd:UMSThreadVirtualProcessor.obj
 0002:00070bb0       ?MakeAvailableFromSchedulingContext@UMSThreadVirtualProcessor@details@Concurrency@@QAEXXZ 100f4bb0 f   libconcrtd:UMSThreadVirtualProcessor.obj
 0002:00070be0       ?PreRunnableSearch@UMSThreadVirtualProcessor@details@Concurrency@@UAEPAVInternalContextBase@23@XZ 100f4be0 f   libconcrtd:UMSThreadVirtualProcessor.obj
 0002:00070c60       ?StartupWorkerContext@UMSThreadVirtualProcessor@details@Concurrency@@UAE_NPAVScheduleGroupSegmentBase@23@PAVInternalContextBase@23@@Z 100f4c60 f   libconcrtd:UMSThreadVirtualProcessor.obj
 0002:00070d10       ?ToInternalContext@UMSThreadVirtualProcessor@details@Concurrency@@MAEPAVInternalContextBase@23@PAUIExecutionContext@3@@Z 100f4d10 f   libconcrtd:UMSThreadVirtualProcessor.obj
 0002:00070d40       ??0UMSThreadInternalContext@details@Concurrency@@QAE@PAVSchedulerBase@12@@Z 100f4d40 f   libconcrtd:UMSThreadInternalContext.obj
 0002:00070d90       ??1UMSThreadInternalContext@details@Concurrency@@UAE@XZ 100f4d90 f   libconcrtd:UMSThreadInternalContext.obj
 0002:00070dbf       ??_EUMSThreadInternalContext@details@Concurrency@@W3AEPAXI@Z 100f4dbf f i libconcrtd:UMSThreadInternalContext.obj
 0002:00070dd0       ??_EUMSThreadInternalContext@details@Concurrency@@UAEPAXI@Z 100f4dd0 f i libconcrtd:UMSThreadInternalContext.obj
 0002:00070dd0       ??_GUMSThreadInternalContext@details@Concurrency@@UAEPAXI@Z 100f4dd0 f i libconcrtd:UMSThreadInternalContext.obj
 0002:00070e10       ?Block@UMSThreadInternalContext@details@Concurrency@@UAEXXZ 100f4e10 f   libconcrtd:UMSThreadInternalContext.obj
 0002:00070ff0       ?CanCriticalEnter@UMSThreadVirtualProcessor@details@Concurrency@@QAE_NXZ 100f4ff0 f i libconcrtd:UMSThreadInternalContext.obj
 0002:00071030       ?Dispatch@UMSThreadInternalContext@details@Concurrency@@UAEXPAUDispatchState@3@@Z 100f5030 f   libconcrtd:UMSThreadInternalContext.obj
 0002:000710a0       ?EnterCriticalRegionHelper@UMSThreadInternalContext@details@Concurrency@@UAEHXZ 100f50a0 f   libconcrtd:UMSThreadInternalContext.obj
 0002:000711b0       ?EnterHyperCriticalRegionHelper@UMSThreadInternalContext@details@Concurrency@@UAEHXZ 100f51b0 f   libconcrtd:UMSThreadInternalContext.obj
 0002:000712c0       ?ExitCriticalRegionHelper@UMSThreadInternalContext@details@Concurrency@@UAEHXZ 100f52c0 f   libconcrtd:UMSThreadInternalContext.obj
 0002:00071340       ?ExitHyperCriticalRegionHelper@UMSThreadInternalContext@details@Concurrency@@UAEHXZ 100f5340 f   libconcrtd:UMSThreadInternalContext.obj
 0002:000713c0       ?GetContextKind@UMSThreadInternalContext@details@Concurrency@@UBE?AW4ContextKind@ContextBase@23@XZ 100f53c0 f i libconcrtd:UMSThreadInternalContext.obj
 0002:000713e0       ?GetCriticalRegionType@UMSThreadInternalContext@details@Concurrency@@UBE?AW4CriticalRegionType@3@XZ 100f53e0 f i libconcrtd:UMSThreadInternalContext.obj
 0002:00071450       ?IsSynchronouslyBlocked@UMSThreadInternalContext@details@Concurrency@@UBE_NXZ 100f5450 f i libconcrtd:UMSThreadInternalContext.obj
 0002:000714a0       ?NotifyBlocked@UMSThreadInternalContext@details@Concurrency@@AAEX_N@Z 100f54a0 f   libconcrtd:UMSThreadInternalContext.obj
 0002:000714f0       ?Oversubscribe@UMSThreadInternalContext@details@Concurrency@@UAEX_N@Z 100f54f0 f   libconcrtd:UMSThreadInternalContext.obj
 0002:000715c0       ?PrepareToRun@UMSThreadInternalContext@details@Concurrency@@EAEXPAVVirtualProcessor@23@@Z 100f55c0 f   libconcrtd:UMSThreadInternalContext.obj
 0002:00071600       ?RMAwaken@UMSThreadInternalContext@details@Concurrency@@EAEXXZ 100f5600 f i libconcrtd:UMSThreadInternalContext.obj
 0002:00071670       ?SpinOnAndReturnBlockingType@UMSThreadInternalContext@details@Concurrency@@AAE?AW4BlockingType@123@XZ 100f5670 f   libconcrtd:UMSThreadInternalContext.obj
 0002:000716d0       ?UNSAFE_SetVirtualProcessor@InternalContextBase@details@Concurrency@@IAEXPAVVirtualProcessor@23@@Z 100f56d0 f i libconcrtd:UMSThreadInternalContext.obj
 0002:000716f0       ??0?$SQueue@VUMSThreadProxy@details@Concurrency@@@details@Concurrency@@QAE@XZ 100f56f0 f i libconcrtd:TransmogrifiedPrimary.obj
 0002:00071720       ??0?$SafeSQueue@VUMSThreadProxy@details@Concurrency@@V_NonReentrantLock@23@@details@Concurrency@@QAE@XZ 100f5720 f i libconcrtd:TransmogrifiedPrimary.obj
 0002:00071750       ??0CachedTransmogrifiedPrimary@details@Concurrency@@QAE@PAVTransmogrificator@12@@Z 100f5750 f   libconcrtd:TransmogrifiedPrimary.obj
 0002:00071790       ??0TransmogrifiedPrimary@details@Concurrency@@QAE@XZ 100f5790 f   libconcrtd:TransmogrifiedPrimary.obj
 0002:00071870       ??1CachedTransmogrifiedPrimary@details@Concurrency@@UAE@XZ 100f5870 f i libconcrtd:TransmogrifiedPrimary.obj
 0002:00071890       ??1TransmogrifiedPrimary@details@Concurrency@@UAE@XZ 100f5890 f   libconcrtd:TransmogrifiedPrimary.obj
 0002:00071970       ??1UMSBaseObject@details@Concurrency@@UAE@XZ 100f5970 f   libconcrtd:TransmogrifiedPrimary.obj
 0002:00071990       ??_ECachedTransmogrifiedPrimary@details@Concurrency@@UAEPAXI@Z 100f5990 f i libconcrtd:TransmogrifiedPrimary.obj
 0002:00071990       ??_GCachedTransmogrifiedPrimary@details@Concurrency@@UAEPAXI@Z 100f5990 f i libconcrtd:TransmogrifiedPrimary.obj
 0002:000719d0       ??_ETransmogrifiedPrimary@details@Concurrency@@UAEPAXI@Z 100f59d0 f i libconcrtd:TransmogrifiedPrimary.obj
 0002:000719d0       ??_GTransmogrifiedPrimary@details@Concurrency@@UAEPAXI@Z 100f59d0 f i libconcrtd:TransmogrifiedPrimary.obj
 0002:00071a10       ?CompletedTransmogrification@CachedTransmogrifiedPrimary@details@Concurrency@@MAEXXZ 100f5a10 f   libconcrtd:TransmogrifiedPrimary.obj
 0002:00071a30       ?CompletedTransmogrification@TransmogrifiedPrimary@details@Concurrency@@MAEXXZ 100f5a30 f i libconcrtd:TransmogrifiedPrimary.obj
 0002:00071a40       ?Dequeue@?$SQueue@VUMSThreadProxy@details@Concurrency@@@details@Concurrency@@QAEPAVUMSThreadProxy@23@XZ 100f5a40 f i libconcrtd:TransmogrifiedPrimary.obj
 0002:00071aa0       ?Dequeue@?$SafeSQueue@VUMSThreadProxy@details@Concurrency@@V_NonReentrantLock@23@@details@Concurrency@@QAEPAVUMSThreadProxy@23@XZ 100f5aa0 f i libconcrtd:TransmogrifiedPrimary.obj
 0002:00071b30       ?Enqueue@?$SQueue@VUMSThreadProxy@details@Concurrency@@@details@Concurrency@@QAEXPAVUMSThreadProxy@23@@Z 100f5b30 f i libconcrtd:TransmogrifiedPrimary.obj
 0002:00071bb0       ?Enqueue@?$SafeSQueue@VUMSThreadProxy@details@Concurrency@@V_NonReentrantLock@23@@details@Concurrency@@QAEXPAVUMSThreadProxy@23@@Z 100f5bb0 f i libconcrtd:TransmogrifiedPrimary.obj
 0002:00071c40       ?Execute@TransmogrifiedPrimary@details@Concurrency@@AAEXPAVUMSThreadProxy@23@@Z 100f5c40 f   libconcrtd:TransmogrifiedPrimary.obj
 0002:00071d10       ?GetEvent@UMSBackgroundPoller@details@Concurrency@@QAEPAXXZ 100f5d10 f i libconcrtd:TransmogrifiedPrimary.obj
 0002:00071d30       ?GetUMSContext@UMSThreadProxy@details@Concurrency@@QBEPAXXZ 100f5d30 f i libconcrtd:TransmogrifiedPrimary.obj
 0002:00071d50       ?HandleBlocking@TransmogrifiedPrimary@details@Concurrency@@AAEPAVUMSThreadProxy@23@XZ 100f5d50 f   libconcrtd:TransmogrifiedPrimary.obj
 0002:00071e20       ?HandleYielding@TransmogrifiedPrimary@details@Concurrency@@AAEPAVUMSThreadProxy@23@XZ 100f5e20 f   libconcrtd:TransmogrifiedPrimary.obj
 0002:00071ed0       ?Initialize@TransmogrifiedPrimary@details@Concurrency@@AAEXXZ 100f5ed0 f   libconcrtd:TransmogrifiedPrimary.obj
 0002:00072090       ?IsPrimary@TransmogrifiedPrimary@details@Concurrency@@UAE_NXZ 100f6090 f i libconcrtd:TransmogrifiedPrimary.obj
 0002:000720a0       ?NotifyBlocked@UMSThreadProxy@details@Concurrency@@QAEX_N@Z 100f60a0 f i libconcrtd:TransmogrifiedPrimary.obj
 0002:00072160       ?PollInterval@UMSBackgroundPoller@details@Concurrency@@SAHXZ 100f6160 f i libconcrtd:TransmogrifiedPrimary.obj
 0002:00072170       ?PrimaryInvocation@TransmogrifiedPrimary@details@Concurrency@@CGXW4_RTL_UMS_SCHEDULER_REASON@@KPAX@Z 100f6170 f   libconcrtd:TransmogrifiedPrimary.obj
 0002:00072370       ?PrimaryMain@TransmogrifiedPrimary@details@Concurrency@@CGKPAX@Z 100f6370 f   libconcrtd:TransmogrifiedPrimary.obj
 0002:00072450       ?QueueToCompletion@TransmogrifiedPrimary@details@Concurrency@@QAEXPAVUMSThreadProxy@23@@Z 100f6450 f   libconcrtd:TransmogrifiedPrimary.obj
 0002:00072510       ?SearchForWork@TransmogrifiedPrimary@details@Concurrency@@AAEPAVUMSThreadProxy@23@XZ 100f6510 f   libconcrtd:TransmogrifiedPrimary.obj
 0002:000725b0       ?Unblock@TransmogrifiedPrimary@details@Concurrency@@AAEXXZ 100f65b0 f i libconcrtd:TransmogrifiedPrimary.obj
 0002:000725d0       ?WaitForBlockedThread@TransmogrifiedPrimary@details@Concurrency@@AAEPAVUMSThreadProxy@23@PAV423@@Z 100f65d0 f   libconcrtd:TransmogrifiedPrimary.obj
 0002:000727d0       ?WaitForWork@TransmogrifiedPrimary@details@Concurrency@@AAEPAVUMSThreadProxy@23@XZ 100f67d0 f   libconcrtd:TransmogrifiedPrimary.obj
 0002:000729e0       ??0Transmogrificator@details@Concurrency@@QAE@XZ 100f69e0 f   libconcrtd:Transmogrificator.obj
 0002:00072b00       ??1Transmogrificator@details@Concurrency@@QAE@XZ 100f6b00 f   libconcrtd:Transmogrificator.obj
 0002:00072c00       ?BeginTransmogrifying@Transmogrificator@details@Concurrency@@AAEXXZ 100f6c00 f   libconcrtd:Transmogrificator.obj
 0002:00072d20       ?PerformTransmogrification@Transmogrificator@details@Concurrency@@QAEXPAVUMSThreadProxy@23@@Z 100f6d20 f   libconcrtd:Transmogrificator.obj
 0002:00072db0       ?RemoveHead@?$List@UListEntry@details@Concurrency@@VNoCount@CollectionTypes@23@@details@Concurrency@@QAEPAUListEntry@23@XZ 100f6db0 f i libconcrtd:Transmogrificator.obj
 0002:00072e30       ?RemoveHead@?$SafeRWList@UListEntry@details@Concurrency@@VNoCount@CollectionTypes@23@V_ReaderWriterLock@23@@details@Concurrency@@QAEPAUListEntry@23@XZ 100f6e30 f i libconcrtd:Transmogrificator.obj
 0002:00072ec0       ?ReturnToCache@Transmogrificator@details@Concurrency@@QAEXPAVCachedTransmogrifiedPrimary@23@@Z 100f6ec0 f   libconcrtd:Transmogrificator.obj
 0002:00072f10       ?TransmogrificationHandler@Transmogrificator@details@Concurrency@@CGXPAXE@Z 100f6f10 f   libconcrtd:Transmogrificator.obj
 0002:00072f30       ?UnblockTransmogrification@Transmogrificator@details@Concurrency@@QAEXPAVUMSThreadProxy@23@@Z 100f6f30 f   libconcrtd:Transmogrificator.obj
 0002:00072f80       ??0exception_ptr@std@@QAE@ABV01@@Z 100f6f80 f i libconcrtd:TaskCollectionBase.obj
 0002:00072fb0       ??0exception_ptr@std@@QAE@XZ 100f6fb0 f i libconcrtd:TaskCollectionBase.obj
 0002:00072fd0       ?_Current_exception@exception_ptr@std@@SA?AV12@XZ 100f6fd0 f i libconcrtd:TaskCollectionBase.obj
 0002:00073020       ?_FinishCancelState@_TaskCollectionBase@details@Concurrency@@IAEXI@Z 100f7020 f   libconcrtd:TaskCollectionBase.obj
 0002:00073110       ?_GetToken@_CancellationTokenRegistration@details@Concurrency@@QBEPAV_CancellationTokenState@23@XZ 100f7110 f i libconcrtd:TaskCollectionBase.obj
 0002:00073130       ?_GetTokenState@_TaskCollectionBase@details@Concurrency@@QAEPAV_CancellationTokenState@23@PAPAV_CancellationTokenRegistration@23@@Z 100f7130 f   libconcrtd:TaskCollectionBase.obj
 0002:000731a0       ?_MarkCancellation@_TaskCollectionBase@details@Concurrency@@IAE_NXZ 100f71a0 f   libconcrtd:TaskCollectionBase.obj
 0002:00073210       ?_RaisedCancel@_TaskCollectionBase@details@Concurrency@@IAEXXZ 100f7210 f   libconcrtd:TaskCollectionBase.obj
 0002:00073290       ?_RaisedException@_TaskCollectionBase@details@Concurrency@@IAEXXZ 100f7290 f   libconcrtd:TaskCollectionBase.obj
 0002:000733a0       ?_RethrowException@_TaskCollectionBase@details@Concurrency@@IAEXXZ 100f73a0 f   libconcrtd:TaskCollectionBase.obj
 0002:000734b0       ?_RethrowException@exception_ptr@std@@QBEXXZ 100f74b0 f i libconcrtd:TaskCollectionBase.obj
 0002:000734d0       ?_WillInterruptForPendingCancel@_TaskCollectionBase@details@Concurrency@@IAE_NXZ 100f74d0 f   libconcrtd:TaskCollectionBase.obj
 0002:000735b0       ?current_exception@std@@YA?AVexception_ptr@1@XZ 100f75b0 f i libconcrtd:TaskCollectionBase.obj
 0002:000735d0       ?rethrow_exception@std@@YAXVexception_ptr@1@@Z 100f75d0 f i libconcrtd:TaskCollectionBase.obj
 0002:00073640       ??0?$StructuredWorkStealingQueue@V_UnrealizedChore@details@Concurrency@@V_CriticalNonReentrantLock@23@@details@Concurrency@@QAE@PAV_CriticalNonReentrantLock@12@@Z 100f7640 f i libconcrtd:WorkQueue.obj
 0002:000737e0       ??0?$WorkStealingQueue@V_UnrealizedChore@details@Concurrency@@V_CriticalNonReentrantLock@23@@details@Concurrency@@QAE@PAV_CriticalNonReentrantLock@12@@Z 100f77e0 f i libconcrtd:WorkQueue.obj
 0002:00073950       ??0WorkQueue@details@Concurrency@@QAE@XZ 100f7950 f   libconcrtd:WorkQueue.obj
 0002:00073a30       ??0_CriticalNonReentrantLock@details@Concurrency@@QAE@XZ 100f7a30 f i libconcrtd:WorkQueue.obj
 0002:00073a50       ?DeferToAffineSearchers@Slot@?$Mailbox@V_UnrealizedChore@details@Concurrency@@@details@Concurrency@@QBE_NXZ 100f7a50 f i libconcrtd:WorkQueue.obj
 0002:00073b00       ?MarkedForDetachment@?$WorkStealingQueue@V_UnrealizedChore@details@Concurrency@@V_CriticalNonReentrantLock@23@@details@Concurrency@@QBE_NXZ 100f7b00 f i libconcrtd:WorkQueue.obj
 0002:00073b20       ?NotifyWorkSkipped@InternalContextBase@details@Concurrency@@QAEXXZ 100f7b20 f i libconcrtd:WorkQueue.obj
 0002:00073b50       ?RedetachFromScheduleGroupAtSafePoint@WorkQueue@details@Concurrency@@QAEXPAVScheduleGroupSegmentBase@23@@Z 100f7b50 f   libconcrtd:WorkQueue.obj
 0002:00073ba0       ?Reinitialize@?$StructuredWorkStealingQueue@V_UnrealizedChore@details@Concurrency@@V_CriticalNonReentrantLock@23@@details@Concurrency@@QAEXXZ 100f7ba0 f i libconcrtd:WorkQueue.obj
 0002:00073bd0       ?Reinitialize@?$WorkStealingQueue@V_UnrealizedChore@details@Concurrency@@V_CriticalNonReentrantLock@23@@details@Concurrency@@QAEXXZ 100f7bd0 f i libconcrtd:WorkQueue.obj
 0002:00073c20       ?Reinitialize@WorkQueue@details@Concurrency@@AAEXXZ 100f7c20 f   libconcrtd:WorkQueue.obj
 0002:00073c90       ?RetireAtSafePoint@WorkQueue@details@Concurrency@@QAEXPAVScheduleGroupSegmentBase@23@@Z 100f7c90 f   libconcrtd:WorkQueue.obj
 0002:00073ce0       ?StaticRedetachFromScheduleGroup@WorkQueue@details@Concurrency@@CAXPAV123@@Z 100f7ce0 f   libconcrtd:WorkQueue.obj
 0002:00073d00       ?StaticRetire@WorkQueue@details@Concurrency@@CAXPAV123@@Z 100f7d00 f   libconcrtd:WorkQueue.obj
 0002:00073d20       ?Steal@WorkQueue@details@Concurrency@@QAEPAV_UnrealizedChore@23@_N@Z 100f7d20 f   libconcrtd:WorkQueue.obj
 0002:00073db0       ?Sweep@?$WorkStealingQueue@V_UnrealizedChore@details@Concurrency@@V_CriticalNonReentrantLock@23@@details@Concurrency@@QAEXP6A_NPAV_UnrealizedChore@23@PAX@Z12@Z 100f7db0 f i libconcrtd:WorkQueue.obj
 0002:00073f20       ?SweepUnstructured@WorkQueue@details@Concurrency@@QAEXP6A_NPAV_UnrealizedChore@23@PAX@Z12@Z 100f7f20 f   libconcrtd:WorkQueue.obj
 0002:00073f50       ?TryToSteal@WorkQueue@details@Concurrency@@QAEPAV_UnrealizedChore@23@_NAA_N@Z 100f7f50 f   libconcrtd:WorkQueue.obj
 0002:00074020       ?UnlockedSteal@?$StructuredWorkStealingQueue@V_UnrealizedChore@details@Concurrency@@V_CriticalNonReentrantLock@23@@details@Concurrency@@QAEPAV_UnrealizedChore@23@_N@Z 100f8020 f i libconcrtd:WorkQueue.obj
 0002:00074140       ?UnlockedSteal@?$WorkStealingQueue@V_UnrealizedChore@details@Concurrency@@V_CriticalNonReentrantLock@23@@details@Concurrency@@QAEPAV_UnrealizedChore@23@_N0@Z 100f8140 f i libconcrtd:WorkQueue.obj
 0002:000742a0       ?UnlockedSteal@WorkQueue@details@Concurrency@@AAEPAV_UnrealizedChore@23@_N@Z 100f82a0 f   libconcrtd:WorkQueue.obj
 0002:00074450       ?_OwningCollection@_UnrealizedChore@details@Concurrency@@QBEPAV_TaskCollectionBase@23@XZ 100f8450 f i libconcrtd:WorkQueue.obj
 0002:00074470       ?_OwningContext@_TaskCollectionBase@details@Concurrency@@QBEPAXXZ 100f8470 f i libconcrtd:WorkQueue.obj
 0002:000744d0       ?ClearCancel@ContextBase@details@Concurrency@@QAEXXZ 100f84d0 f i libconcrtd:Chores.obj
 0002:00074510       ?IsContextChainedStealer@ContextBase@details@Concurrency@@QBE_NXZ 100f8510 f i libconcrtd:Chores.obj
 0002:00074530       ?NotifyTaskCollectionChainedStealer@ContextBase@details@Concurrency@@QAEXXZ 100f8530 f i libconcrtd:Chores.obj
 0002:00074550       ?SetRootCollection@ContextBase@details@Concurrency@@QAEXPAV_TaskCollectionBase@23@@Z 100f8550 f i libconcrtd:Chores.obj
 0002:00074580       ?_CancelViaToken@_UnrealizedChore@details@Concurrency@@CAXPAVContextBase@23@@Z 100f8580 f   libconcrtd:Chores.obj
 0002:000745a0       ?_CheckTaskCollection@_UnrealizedChore@details@Concurrency@@IAEXXZ 100f85a0 f   libconcrtd:Chores.obj
 0002:00074680       ?_InternalFree@_UnrealizedChore@details@Concurrency@@CAXPAV123@@Z 100f8680 f   libconcrtd:Chores.obj
 0002:00074720       ?_IsAbnormalExit@_TaskCollectionBase@details@Concurrency@@IBE_NXZ 100f8720 f i libconcrtd:Chores.obj
 0002:00074760       ?_PrepareSteal@_UnrealizedChore@details@Concurrency@@QAEXPAVContextBase@23@@Z 100f8760 f   libconcrtd:Chores.obj
 0002:000747a0       ?_PrepareStealStructured@_UnrealizedChore@details@Concurrency@@AAEXPAVContextBase@23@@Z 100f87a0 f   libconcrtd:Chores.obj
 0002:00074850       ?_PrepareStealUnstructured@_UnrealizedChore@details@Concurrency@@AAEXPAVContextBase@23@@Z 100f8850 f   libconcrtd:Chores.obj
 0002:00074970       ?_SetDetached@_UnrealizedChore@details@Concurrency@@QAEX_N@Z 100f8970 f   libconcrtd:Chores.obj
 0002:00074990       ?_StructuredChoreWrapper@_UnrealizedChore@details@Concurrency@@CAXPAV123@@Z 100f8990 f   libconcrtd:Chores.obj
 0002:00074d10       ?_UnstructuredChoreWrapper@_UnrealizedChore@details@Concurrency@@CAXPAV123@@Z 100f8d10 f   libconcrtd:Chores.obj
 0002:00075390       ?_Wait@_TaskCollection@details@Concurrency@@QAE?AW4_TaskCollectionStatus@23@XZ 100f9390 f i libconcrtd:Chores.obj
 0002:000753b0       ??0IVirtualProcessorRoot@Concurrency@@QAE@XZ 100f93b0 f i libconcrtd:VirtualProcessorRoot.obj
 0002:000753e0       ??0VirtualProcessorRoot@details@Concurrency@@QAE@PAVSchedulerProxy@12@PAUSchedulerNode@12@I@Z 100f93e0 f   libconcrtd:VirtualProcessorRoot.obj
 0002:000754d0       ??1VirtualProcessorRoot@details@Concurrency@@UAE@XZ 100f94d0 f i libconcrtd:VirtualProcessorRoot.obj
 0002:00075500       ??_EVirtualProcessorRoot@details@Concurrency@@UAEPAXI@Z 100f9500 f i libconcrtd:VirtualProcessorRoot.obj
 0002:00075500       ??_GVirtualProcessorRoot@details@Concurrency@@UAEPAXI@Z 100f9500 f i libconcrtd:VirtualProcessorRoot.obj
 0002:00075540       ?CurrentSubscriptionLevel@VirtualProcessorRoot@details@Concurrency@@UBEIXZ 100f9540 f i libconcrtd:VirtualProcessorRoot.obj
 0002:00075560       ?GetExecutionResourceId@VirtualProcessorRoot@details@Concurrency@@UBEIXZ 100f9560 f i libconcrtd:VirtualProcessorRoot.obj
 0002:00075580       ?GetId@VirtualProcessorRoot@details@Concurrency@@UBEIXZ 100f9580 f i libconcrtd:VirtualProcessorRoot.obj
 0002:000755a0       ?GetNodeId@VirtualProcessorRoot@details@Concurrency@@UBEIXZ 100f95a0 f i libconcrtd:VirtualProcessorRoot.obj
 0002:000755c0       ?GetSchedulerProxy@VirtualProcessorRoot@details@Concurrency@@QAEPAVSchedulerProxy@23@XZ 100f95c0 f i libconcrtd:VirtualProcessorRoot.obj
 0002:000755e0       ?MarkAsVirtualProcessorRoot@ExecutionResource@details@Concurrency@@QAEXPAVVirtualProcessorRoot@23@@Z 100f95e0 f i libconcrtd:VirtualProcessorRoot.obj
 0002:00075640       ?Remove@VirtualProcessorRoot@details@Concurrency@@UAEXPAUIScheduler@3@@Z 100f9640 f   libconcrtd:VirtualProcessorRoot.obj
 0002:000756e0       ?ResetSubscriptionLevel@VirtualProcessorRoot@details@Concurrency@@QAEXXZ 100f96e0 f   libconcrtd:VirtualProcessorRoot.obj
 0002:000757b0       ?Subscribe@VirtualProcessorRoot@details@Concurrency@@QAEXXZ 100f97b0 f   libconcrtd:VirtualProcessorRoot.obj
 0002:000757e0       ?Unsubscribe@VirtualProcessorRoot@details@Concurrency@@QAEXXZ 100f97e0 f   libconcrtd:VirtualProcessorRoot.obj
 0002:00075810       ??0FreeVirtualProcessorRoot@details@Concurrency@@QAE@PAVSchedulerProxy@12@PAUSchedulerNode@12@I@Z 100f9810 f   libconcrtd:FreeVirtualProcessorRoot.obj
 0002:00075870       ??1FreeVirtualProcessorRoot@details@Concurrency@@UAE@XZ 100f9870 f i libconcrtd:FreeVirtualProcessorRoot.obj
 0002:00075890       ??8HardwareAffinity@details@Concurrency@@QAE_NABU012@@Z 100f9890 f i libconcrtd:FreeVirtualProcessorRoot.obj
 0002:000758e0       ??9HardwareAffinity@details@Concurrency@@QAE_NABU012@@Z 100f98e0 f i libconcrtd:FreeVirtualProcessorRoot.obj
 0002:00075930       ??_GFreeVirtualProcessorRoot@details@Concurrency@@UAEPAXI@Z 100f9930 f i libconcrtd:FreeVirtualProcessorRoot.obj
 0002:00075930       ??_EFreeVirtualProcessorRoot@details@Concurrency@@UAEPAXI@Z 100f9930 f i libconcrtd:FreeVirtualProcessorRoot.obj
 0002:00075970       ?AcquireActivatedContext@VirtualProcessorRoot@details@Concurrency@@QAEPAUIExecutionContext@3@XZ 100f9970 f i libconcrtd:FreeVirtualProcessorRoot.obj
 0002:000759d0       ?Activate@FreeVirtualProcessorRoot@details@Concurrency@@UAEXPAUIExecutionContext@3@@Z 100f99d0 f   libconcrtd:FreeVirtualProcessorRoot.obj
 0002:00075cc0       ?Affinitize@FreeVirtualProcessorRoot@details@Concurrency@@QAEXPAVFreeThreadProxy@23@@Z 100f9cc0 f   libconcrtd:FreeVirtualProcessorRoot.obj
 0002:00075d70       ?Deactivate@FreeVirtualProcessorRoot@details@Concurrency@@UAE_NPAUIExecutionContext@3@@Z 100f9d70 f   libconcrtd:FreeVirtualProcessorRoot.obj
 0002:00075f00       ?DeleteThis@FreeVirtualProcessorRoot@details@Concurrency@@UAEXXZ 100f9f00 f   libconcrtd:FreeVirtualProcessorRoot.obj
 0002:00075ff0       ?EnsureAllTasksVisible@FreeVirtualProcessorRoot@details@Concurrency@@UAEXPAUIExecutionContext@3@@Z 100f9ff0 f   libconcrtd:FreeVirtualProcessorRoot.obj
 0002:000760c0       ?GetExecutionContext@FreeThreadProxy@details@Concurrency@@QAEPAUIExecutionContext@3@XZ 100fa0c0 f i libconcrtd:FreeVirtualProcessorRoot.obj
 0002:000760e0       ?GetThreadHandle@ThreadProxy@details@Concurrency@@QAEPAXXZ 100fa0e0 f i libconcrtd:FreeVirtualProcessorRoot.obj
 0002:00076100       ?ResetOnIdle@FreeVirtualProcessorRoot@details@Concurrency@@QAEXW4SwitchingProxyState@3@@Z 100fa100 f   libconcrtd:FreeVirtualProcessorRoot.obj
 0002:000762a0       ?SetActivatedContext@VirtualProcessorRoot@details@Concurrency@@QAEXPAUIExecutionContext@3@@Z 100fa2a0 f i libconcrtd:FreeVirtualProcessorRoot.obj
 0002:000762c0       ?SetAffinity@FreeThreadProxy@details@Concurrency@@QAEXUHardwareAffinity@23@@Z 100fa2c0 f i libconcrtd:FreeVirtualProcessorRoot.obj
 0002:00076320       ?SetVirtualProcessorRoot@ThreadProxy@details@Concurrency@@QAEXPAVVirtualProcessorRoot@23@@Z 100fa320 f i libconcrtd:FreeVirtualProcessorRoot.obj
 0002:00076340       ?SpinUntilIdle@FreeVirtualProcessorRoot@details@Concurrency@@IAEXXZ 100fa340 f i libconcrtd:FreeVirtualProcessorRoot.obj
 0002:00076390       ??0DispatchState@Concurrency@@QAE@XZ 100fa390 f i libconcrtd:FreeThreadProxy.obj
 0002:000763e0       ?AssociateExecutionContext@FreeThreadProxy@details@Concurrency@@QAEXPAUIExecutionContext@3@@Z 100fa3e0 f   libconcrtd:FreeThreadProxy.obj
 0002:00076430       ?Dispatch@FreeThreadProxy@details@Concurrency@@EAEXXZ 100fa430 f   libconcrtd:FreeThreadProxy.obj
 0002:000765e0       ?ReturnIdleProxy@FreeThreadProxy@details@Concurrency@@QAEXXZ 100fa5e0 f   libconcrtd:FreeThreadProxy.obj
 0002:00076670       ?SwitchOut@FreeThreadProxy@details@Concurrency@@UAEXW4SwitchingProxyState@3@@Z 100fa670 f   libconcrtd:FreeThreadProxy.obj
 0002:000767a0       ?SwitchTo@FreeThreadProxy@details@Concurrency@@UAEXPAUIExecutionContext@3@W4SwitchingProxyState@3@@Z 100fa7a0 f   libconcrtd:FreeThreadProxy.obj
 0002:00076ab0       ??0ThreadProxy@details@Concurrency@@QAE@PAUIThreadProxyFactory@12@I@Z 100faab0 f   libconcrtd:ThreadProxy.obj
 0002:00076c20       ??1ThreadProxy@details@Concurrency@@UAE@XZ 100fac20 f   libconcrtd:ThreadProxy.obj
 0002:00076cc0       ??_GThreadProxy@details@Concurrency@@UAEPAXI@Z 100facc0 f i libconcrtd:ThreadProxy.obj
 0002:00076cc0       ??_EThreadProxy@details@Concurrency@@UAEPAXI@Z 100facc0 f i libconcrtd:ThreadProxy.obj
 0002:00076d00       ?Cancel@ThreadProxy@details@Concurrency@@QAEXXZ 100fad00 f   libconcrtd:ThreadProxy.obj
 0002:00076d70       ?GetId@ThreadProxy@details@Concurrency@@UBEIXZ 100fad70 f   libconcrtd:ThreadProxy.obj
 0002:00076d90       ?ResumeExecution@ThreadProxy@details@Concurrency@@QAEXXZ 100fad90 f   libconcrtd:ThreadProxy.obj
 0002:00076db0       ?SetPriority@ThreadProxy@details@Concurrency@@QAEXH@Z 100fadb0 f   libconcrtd:ThreadProxy.obj
 0002:00076df0       ?SpinUntilBlocked@ThreadProxy@details@Concurrency@@QAEXXZ 100fadf0 f   libconcrtd:ThreadProxy.obj
 0002:00076e80       ?SuspendExecution@ThreadProxy@details@Concurrency@@QAEXXZ 100fae80 f   libconcrtd:ThreadProxy.obj
 0002:00076f50       ?ThreadProxyMain@ThreadProxy@details@Concurrency@@CGKPAX@Z 100faf50 f   libconcrtd:ThreadProxy.obj
 0002:00077050       ?AssociateExecutionContext@UMSFreeThreadProxy@details@Concurrency@@AAEXPAUIExecutionContext@3@@Z 100fb050 f   libconcrtd:UMSFreeThreadProxy.obj
 0002:000770c0       ?ClearShutdownValidations@UMSThreadProxy@details@Concurrency@@QAEXXZ 100fb0c0 f i libconcrtd:UMSFreeThreadProxy.obj
 0002:000770e0       ?Dispatch@UMSFreeThreadProxy@details@Concurrency@@EAEXXZ 100fb0e0 f   libconcrtd:UMSFreeThreadProxy.obj
 0002:000771d0       ?IsSchedulingContext@UMSFreeVirtualProcessorRoot@details@Concurrency@@QBE_NPAUIExecutionContext@3@@Z 100fb1d0 f i libconcrtd:UMSFreeThreadProxy.obj
 0002:00077210       ?ReturnIdleProxy@UMSFreeThreadProxy@details@Concurrency@@AAEXXZ 100fb210 f   libconcrtd:UMSFreeThreadProxy.obj
 0002:000772e0       ?SwitchOut@UMSFreeThreadProxy@details@Concurrency@@UAEXW4SwitchingProxyState@3@@Z 100fb2e0 f   libconcrtd:UMSFreeThreadProxy.obj
 0002:00077330       ?SwitchTo@UMSFreeThreadProxy@details@Concurrency@@UAEXPAUIExecutionContext@3@W4SwitchingProxyState@3@@Z 100fb330 f   libconcrtd:UMSFreeThreadProxy.obj
 0002:00077550       ?YieldToSystem@UMSFreeThreadProxy@details@Concurrency@@UAEXXZ 100fb550 f   libconcrtd:UMSFreeThreadProxy.obj
 0002:00077570       ?Invoke@RealizedChore@details@Concurrency@@QAEXXZ 100fb570 f   libconcrtd:RealizedChore.obj
 0002:000775b0       ??0WorkItem@details@Concurrency@@QAE@PAVInternalContextBase@12@@Z 100fb5b0 f   libconcrtd:SearchAlgorithms.obj
 0002:000775f0       ??0WorkItem@details@Concurrency@@QAE@PAVRealizedChore@12@PAVScheduleGroupSegmentBase@12@@Z 100fb5f0 f i libconcrtd:SearchAlgorithms.obj
 0002:00077630       ??0WorkItem@details@Concurrency@@QAE@PAVScheduleGroupSegmentBase@12@@Z 100fb630 f i libconcrtd:SearchAlgorithms.obj
 0002:00077660       ??0WorkItem@details@Concurrency@@QAE@PAVWorkQueue@12@PAVScheduleGroupSegmentBase@12@@Z 100fb660 f i libconcrtd:SearchAlgorithms.obj
 0002:000776a0       ??0WorkItem@details@Concurrency@@QAE@PAV_UnrealizedChore@12@PAVScheduleGroupSegmentBase@12@@Z 100fb6a0 f i libconcrtd:SearchAlgorithms.obj
 0002:000776e0       ?AcquireQuickCacheSlot@SchedulerBase@details@Concurrency@@QAEPAVScheduleGroupSegmentBase@23@I@Z 100fb6e0 f i libconcrtd:SearchAlgorithms.obj
 0002:00077720       ?ActualGetQuickCacheSlot@SchedulerBase@details@Concurrency@@AAEPAVScheduleGroupSegmentBase@23@I@Z 100fb720 f i libconcrtd:SearchAlgorithms.obj
 0002:00077790       ?BiasStage@WorkSearchContext@details@Concurrency@@AAE?AW4BiasStageType@123@XZ 100fb790 f i libconcrtd:SearchAlgorithms.obj
 0002:000777d0       ?Bind@WorkItem@details@Concurrency@@QAEPAVInternalContextBase@23@XZ 100fb7d0 f   libconcrtd:SearchAlgorithms.obj
 0002:000778c0       ?BindTo@WorkItem@details@Concurrency@@QAEXPAVInternalContextBase@23@@Z 100fb8c0 f   libconcrtd:SearchAlgorithms.obj
 0002:00077950       ?CheckPriorityList@WorkSearchContext@details@Concurrency@@AAE_N_K@Z 100fb950 f i libconcrtd:SearchAlgorithms.obj
 0002:000779d0       ?Empty@?$List@UBoostedObject@details@Concurrency@@VNoCount@CollectionTypes@23@@details@Concurrency@@QBE_NXZ 100fb9d0 f i libconcrtd:SearchAlgorithms.obj
 0002:00077a10       ?Empty@?$StructuredWorkStealingQueue@VInternalContextBase@details@Concurrency@@V_HyperNonReentrantLock@23@@details@Concurrency@@QBE_NXZ 100fba10 f i libconcrtd:SearchAlgorithms.obj
 0002:00077a50       ?ExecutingAffine@VirtualProcessor@details@Concurrency@@QAE_NXZ 100fba50 f i libconcrtd:SearchAlgorithms.obj
 0002:00077a70       ?FromBoostEntry@ScheduleGroupSegmentBase@details@Concurrency@@SAPAV123@PAUBoostedObject@23@@Z 100fba70 f i libconcrtd:SearchAlgorithms.obj
 0002:00077a80       ?FromBoostEntry@VirtualProcessor@details@Concurrency@@SAPAV123@PAUBoostedObject@23@@Z 100fba80 f i libconcrtd:SearchAlgorithms.obj
 0002:00077a90       ?GetFirstScheduleGroupSegment@ScheduleGroupBase@details@Concurrency@@QAEPAVScheduleGroupSegmentBase@23@_N@Z 100fba90 f i libconcrtd:SearchAlgorithms.obj
 0002:00077ad0       ?GetFirstSchedulingNode@SchedulerBase@details@Concurrency@@QAEPAVSchedulingNode@23@PAH@Z 100fbad0 f i libconcrtd:SearchAlgorithms.obj
 0002:00077b00       ?GetLocalRunnable@WorkSearchContext@details@Concurrency@@AAE_NPAVWorkItem@23@PAVVirtualProcessor@23@_N@Z 100fbb00 f   libconcrtd:SearchAlgorithms.obj
 0002:00077bf0       ?GetNextScheduleGroupSegment@ScheduleGroupBase@details@Concurrency@@QAEPAVScheduleGroupSegmentBase@23@PAV423@@Z 100fbbf0 f i libconcrtd:SearchAlgorithms.obj
 0002:00077c10       ?GetNextSchedulingNode@SchedulerBase@details@Concurrency@@QAEPAVSchedulingNode@23@PAHH@Z 100fbc10 f i libconcrtd:SearchAlgorithms.obj
 0002:00077cd0       ?GetPseudoRRAffineScheduleGroupSegment@SchedulingRing@details@Concurrency@@QAEPAVScheduleGroupSegmentBase@23@PAH@Z 100fbcd0 f i libconcrtd:SearchAlgorithms.obj
 0002:00077d60       ?GetPseudoRRNonAffineScheduleGroupSegment@SchedulingRing@details@Concurrency@@QAEPAVScheduleGroupSegmentBase@23@PAH@Z 100fbd60 f i libconcrtd:SearchAlgorithms.obj
 0002:00077df0       ?GetRealizedChore@WorkSearchContext@details@Concurrency@@AAE_NPAVWorkItem@23@PAVScheduleGroupSegmentBase@23@_N@Z 100fbdf0 f   libconcrtd:SearchAlgorithms.obj
 0002:00077ea0       ?GetRealizedChoreWithinGroup@WorkSearchContext@details@Concurrency@@AAE_NPAVWorkItem@23@PAVScheduleGroupSegmentBase@23@_NW4SearchAffinity@123@2@Z 100fbea0 f   libconcrtd:SearchAlgorithms.obj
 0002:00077fb0       ?GetRunnableContext@WorkSearchContext@details@Concurrency@@AAE_NPAVWorkItem@23@PAVScheduleGroupSegmentBase@23@@Z 100fbfb0 f   libconcrtd:SearchAlgorithms.obj
 0002:00078020       ?GetRunnableContextWithinGroup@WorkSearchContext@details@Concurrency@@AAE_NPAVWorkItem@23@PAVScheduleGroupSegmentBase@23@W4SearchAffinity@123@_N@Z 100fc020 f   libconcrtd:SearchAlgorithms.obj
 0002:00078120       ?GetScheduleGroupSegment@WorkItem@details@Concurrency@@QBEPAVScheduleGroupSegmentBase@23@XZ 100fc120 f i libconcrtd:SearchAlgorithms.obj
 0002:00078140       ?GetUnrealizedChore@WorkSearchContext@details@Concurrency@@AAE_NPAVWorkItem@23@PAVScheduleGroupSegmentBase@23@_N2@Z 100fc140 f   libconcrtd:SearchAlgorithms.obj
 0002:00078240       ?GetUnrealizedChoreWithinGroup@WorkSearchContext@details@Concurrency@@AAE_NPAVWorkItem@23@PAVScheduleGroupSegmentBase@23@_NW4SearchAffinity@123@2@Z 100fc240 f   libconcrtd:SearchAlgorithms.obj
 0002:00078360       ?HasPriorityObjects@SchedulerBase@details@Concurrency@@QBE_NXZ 100fc360 f i libconcrtd:SearchAlgorithms.obj
 0002:000783b0       ?Invoke@WorkItem@details@Concurrency@@QAEXXZ 100fc3b0 f   libconcrtd:SearchAlgorithms.obj
 0002:00078460       ?IsScheduleGroupSegment@BoostedObject@details@Concurrency@@QBE_NXZ 100fc460 f i libconcrtd:SearchAlgorithms.obj
 0002:000784a0       ?IsToken@WorkItem@details@Concurrency@@QBE_NXZ 100fc4a0 f i libconcrtd:SearchAlgorithms.obj
 0002:000784e0       ?LRCBias@WorkSearchContext@details@Concurrency@@AAEXXZ 100fc4e0 f i libconcrtd:SearchAlgorithms.obj
 0002:00078500       ?MarkGrabbedPriority@VirtualProcessor@details@Concurrency@@QAEXXZ 100fc500 f i libconcrtd:SearchAlgorithms.obj
 0002:00078520       ?PeriodicScan@SchedulerBase@details@Concurrency@@QAEX_K@Z 100fc520 f i libconcrtd:SearchAlgorithms.obj
 0002:00078580       ?PreSearch@WorkSearchContext@details@Concurrency@@AAE_NPAVWorkItem@23@@Z 100fc580 f   libconcrtd:SearchAlgorithms.obj
 0002:00078600       ?QuickSearch@WorkSearchContext@details@Concurrency@@AAE_NPAVScheduleGroupSegmentBase@23@PAVWorkItem@23@_NK@Z 100fc600 f   libconcrtd:SearchAlgorithms.obj
 0002:000786d0       ?QuickSearchYield@WorkSearchContext@details@Concurrency@@AAE_NPAVScheduleGroupSegmentBase@23@PAVWorkItem@23@_NK@Z 100fc6d0 f   libconcrtd:SearchAlgorithms.obj
 0002:000787a0       ?Reset@WorkSearchContext@details@Concurrency@@QAEXPAVVirtualProcessor@23@W4Algorithm@123@@Z 100fc7a0 f   libconcrtd:SearchAlgorithms.obj
 0002:000788b0       ?ResetLRCBias@WorkSearchContext@details@Concurrency@@AAEXXZ 100fc8b0 f i libconcrtd:SearchAlgorithms.obj
 0002:000788d0       ?ResolveToken@WorkItem@details@Concurrency@@QAE_NXZ 100fc8d0 f   libconcrtd:SearchAlgorithms.obj
 0002:00078a20       ?SaveDequeuedTask@InternalContextBase@details@Concurrency@@QAEXXZ 100fca20 f i libconcrtd:SearchAlgorithms.obj
 0002:00078aa0       ?SearchCacheLocal@WorkSearchContext@details@Concurrency@@AAE_NPAVWorkItem@23@PAVScheduleGroupSegmentBase@23@_NK@Z 100fcaa0 f   libconcrtd:SearchAlgorithms.obj
 0002:000790c0       ?SearchCacheLocalYield@WorkSearchContext@details@Concurrency@@AAE_NPAVWorkItem@23@PAVScheduleGroupSegmentBase@23@_NK@Z 100fd0c0 f   libconcrtd:SearchAlgorithms.obj
 0002:00079600       ?SearchCacheLocal_Realized@WorkSearchContext@details@Concurrency@@AAE_NPAVWorkItem@23@PAVSchedulingRing@23@PAVScheduleGroupSegmentBase@23@_NW4SearchAffinity@123@K3@Z 100fd600 f   libconcrtd:SearchAlgorithms.obj
 0002:000797d0       ?SearchCacheLocal_Runnables@WorkSearchContext@details@Concurrency@@AAE_NPAVWorkItem@23@PAVSchedulingRing@23@PAVScheduleGroupSegmentBase@23@_NW4SearchAffinity@123@K3@Z 100fd7d0 f   libconcrtd:SearchAlgorithms.obj
 0002:000799c0       ?SearchCacheLocal_Unrealized@WorkSearchContext@details@Concurrency@@AAE_NPAVWorkItem@23@PAVSchedulingRing@23@PAVScheduleGroupSegmentBase@23@_NW4SearchAffinity@123@K3@Z 100fd9c0 f   libconcrtd:SearchAlgorithms.obj
 0002:00079b90       ?SearchFair@WorkSearchContext@details@Concurrency@@AAE_NPAVWorkItem@23@PAVScheduleGroupSegmentBase@23@_NK@Z 100fdb90 f   libconcrtd:SearchAlgorithms.obj
 0002:00079dd0       ?SearchFairYield@WorkSearchContext@details@Concurrency@@AAE_NPAVWorkItem@23@PAVScheduleGroupSegmentBase@23@_NK@Z 100fddd0 f   libconcrtd:SearchAlgorithms.obj
 0002:00079fe0       ?SearchFair_Realized@WorkSearchContext@details@Concurrency@@AAE_NPAVWorkItem@23@PAVSchedulingRing@23@_N@Z 100fdfe0 f   libconcrtd:SearchAlgorithms.obj
 0002:0007a0f0       ?SearchFair_Runnables@WorkSearchContext@details@Concurrency@@AAE_NPAVWorkItem@23@PAVSchedulingRing@23@@Z 100fe0f0 f   libconcrtd:SearchAlgorithms.obj
 0002:0007a1b0       ?SearchFair_Unrealized@WorkSearchContext@details@Concurrency@@AAE_NPAVWorkItem@23@PAVSchedulingRing@23@_N@Z 100fe1b0 f   libconcrtd:SearchAlgorithms.obj
 0002:0007a2d0       ?ServiceMark@ScheduleGroupSegmentBase@details@Concurrency@@QAEX_K@Z 100fe2d0 f i libconcrtd:SearchAlgorithms.obj
 0002:0007a320       ?ServiceMark@VirtualProcessor@details@Concurrency@@QAEX_K@Z 100fe320 f i libconcrtd:SearchAlgorithms.obj
 0002:0007a370       ?SetPseudoRRAffineScheduleGroupSegmentNext@SchedulingRing@details@Concurrency@@QAEXH@Z 100fe370 f i libconcrtd:SearchAlgorithms.obj
 0002:0007a3f0       ?SetPseudoRRNonAffineScheduleGroupSegmentNext@SchedulingRing@details@Concurrency@@QAEXH@Z 100fe3f0 f i libconcrtd:SearchAlgorithms.obj
 0002:0007a470       ?SkipSegmentSearch@WorkSearchContext@details@Concurrency@@AAE_NPAVScheduleGroupSegmentBase@23@0W4SearchAffinity@123@_N@Z 100fe470 f   libconcrtd:SearchAlgorithms.obj
 0002:0007a5e0       ?StealForeignLocalRunnable@WorkSearchContext@details@Concurrency@@AAE_NPAVWorkItem@23@PAVSchedulingNode@23@@Z 100fe5e0 f   libconcrtd:SearchAlgorithms.obj
 0002:0007a660       ?StealLocalRunnable@WorkSearchContext@details@Concurrency@@AAE_NPAVWorkItem@23@PAVSchedulingNode@23@PAVVirtualProcessor@23@@Z 100fe660 f   libconcrtd:SearchAlgorithms.obj
 0002:0007a710       ?StealLocalRunnableContext@VirtualProcessor@details@Concurrency@@AAEPAVInternalContextBase@23@XZ 100fe710 f i libconcrtd:SearchAlgorithms.obj
 0002:0007a770       ?TransferReferences@WorkItem@details@Concurrency@@QAEXPAVInternalContextBase@23@@Z 100fe770 f   libconcrtd:SearchAlgorithms.obj
 0002:0007a870       ??$_As@VSchedulingNode@details@Concurrency@@@location@Concurrency@@QBEPAVSchedulingNode@details@1@XZ 100fe870 f i libconcrtd:location.obj
 0002:0007a890       ??0location@Concurrency@@QAE@W4_Type@01@IIPAX@Z 100fe890 f   libconcrtd:location.obj
 0002:0007a910       ?ContainsResourceId@SchedulingNode@details@Concurrency@@QAE_NI@Z 100fe910 f i libconcrtd:location.obj
 0002:0007a940       ?Exists@?$Hash@II@details@Concurrency@@QAE_NABI@Z 100fe940 f i libconcrtd:location.obj
 0002:0007a9a0       ?GetNumaNodeNumber@SchedulingNode@details@Concurrency@@QBEKXZ 100fe9a0 f i libconcrtd:location.obj
 0002:0007a9c0       ?Id@SchedulingNode@details@Concurrency@@QBEHXZ 100fe9c0 f i libconcrtd:location.obj
 0002:0007a9e0       ?_Current_node@location@Concurrency@@SA?AV12@XZ 100fe9e0 f   libconcrtd:location.obj
 0002:0007ab80       ?_FastNodeIntersects@location@Concurrency@@QBE_NABV12@@Z 100feb80 f   libconcrtd:location.obj
 0002:0007ac60       ?_FastVPIntersects@location@Concurrency@@QBE_NABV12@@Z 100fec60 f   libconcrtd:location.obj
 0002:0007ad70       ?current@location@Concurrency@@SA?AV12@XZ 100fed70 f   libconcrtd:location.obj
 0002:0007af00       ?from_numa_node@location@Concurrency@@SA?AV12@G@Z 100fef00 f   libconcrtd:location.obj
 0002:0007af70       ??0ThreadVirtualProcessor@details@Concurrency@@QAE@PAVSchedulingNode@12@PAUIVirtualProcessorRoot@2@@Z 100fef70 f   libconcrtd:ThreadVirtualProcessor.obj
 0002:0007b000       ??1ThreadVirtualProcessor@details@Concurrency@@UAE@XZ 100ff000 f   libconcrtd:ThreadVirtualProcessor.obj
 0002:0007b030       ??_EThreadVirtualProcessor@details@Concurrency@@UAEPAXI@Z 100ff030 f i libconcrtd:ThreadVirtualProcessor.obj
 0002:0007b030       ??_GThreadVirtualProcessor@details@Concurrency@@UAEPAXI@Z 100ff030 f i libconcrtd:ThreadVirtualProcessor.obj
 0002:0007b070       ??0UMSBackgroundPoller@details@Concurrency@@QAE@XZ 100ff070 f   libconcrtd:UMSBackgroundPoller.obj
 0002:0007b100       ??0_Scoped_lock@?$SafeRWList@UListEntry@details@Concurrency@@VNoCount@CollectionTypes@23@V_ReaderWriterLock@23@@details@Concurrency@@QAE@AAV123@@Z 100ff100 f i libconcrtd:UMSBackgroundPoller.obj
 0002:0007b130       ??1UMSBackgroundPoller@details@Concurrency@@QAE@XZ 100ff130 f   libconcrtd:UMSBackgroundPoller.obj
 0002:0007b150       ??1_Scoped_lock@?$SafeRWList@UListEntry@details@Concurrency@@VNoCount@CollectionTypes@23@V_ReaderWriterLock@23@@details@Concurrency@@QAE@XZ 100ff150 f i libconcrtd:UMSBackgroundPoller.obj
 0002:0007b1a0       ?DoPolling@UMSBackgroundPoller@details@Concurrency@@QAE_NXZ 100ff1a0 f   libconcrtd:UMSBackgroundPoller.obj
 0002:0007b2f0       ?InsertProxyInCompletionWhenAwake@UMSBackgroundPoller@details@Concurrency@@QAEXPAVUMSThreadProxy@23@PAVUMSSchedulerProxy@23@@Z 100ff2f0 f   libconcrtd:UMSBackgroundPoller.obj
 0002:0007b370       ??0IUMSCompletionList@Concurrency@@QAE@XZ 100ff370 f i libconcrtd:UMSSchedulerProxy.obj
 0002:0007b390       ??0UMSSchedulerProxy@details@Concurrency@@QAE@PAUIScheduler@2@PAVResourceManager@12@ABVSchedulerPolicy@2@@Z 100ff390 f   libconcrtd:UMSSchedulerProxy.obj
 0002:0007b5c0       ??1UMSSchedulerProxy@details@Concurrency@@QAE@XZ 100ff5c0 f   libconcrtd:UMSSchedulerProxy.obj
 0002:0007b6d0       ??_GUMSSchedulerProxy@details@Concurrency@@QAEPAXI@Z 100ff6d0 f i libconcrtd:UMSSchedulerProxy.obj
 0002:0007b710       ?BindContext@UMSSchedulerProxy@details@Concurrency@@UAEXPAUIExecutionContext@3@@Z 100ff710 f   libconcrtd:UMSSchedulerProxy.obj
 0002:0007b7a0       ?CreateVirtualProcessorRoot@UMSSchedulerProxy@details@Concurrency@@UAEPAVVirtualProcessorRoot@23@PAUSchedulerNode@23@I@Z 100ff7a0 f   libconcrtd:UMSSchedulerProxy.obj
 0002:0007b890       ?CriticalNotify@UMSFreeVirtualProcessorRoot@details@Concurrency@@QAEXXZ 100ff890 f i libconcrtd:UMSSchedulerProxy.obj
 0002:0007b8b0       ?DeleteThis@UMSSchedulerProxy@details@Concurrency@@MAEXXZ 100ff8b0 f i libconcrtd:UMSSchedulerProxy.obj
 0002:0007b8d0       ?GetCompletionListItems@UMSSchedulerProxy@details@Concurrency@@QAEPAVUMSThreadProxy@23@XZ 100ff8d0 f   libconcrtd:UMSSchedulerProxy.obj
 0002:0007b9d0       ?GetNewThreadProxy@UMSSchedulerProxy@details@Concurrency@@UAEPAUIThreadProxy@3@PAUIExecutionContext@3@@Z 100ff9d0 f   libconcrtd:UMSSchedulerProxy.obj
 0002:0007bab0       ?GetUnblockNotifications@UMSSchedulerProxy@details@Concurrency@@UAEPAUIUMSUnblockNotification@3@XZ 100ffab0 f i libconcrtd:UMSSchedulerProxy.obj
 0002:0007baf0       ?HandleCompletion@UMSSchedulerProxy@details@Concurrency@@AAE_NPAVUMSThreadProxy@23@@Z 100ffaf0 f   libconcrtd:UMSSchedulerProxy.obj
 0002:0007bc80       ?MessagedYield@UMSThreadProxy@details@Concurrency@@QAE_NXZ 100ffc80 f i libconcrtd:UMSSchedulerProxy.obj
 0002:0007bcc0       ?PushPolledCompletion@UMSSchedulerProxy@details@Concurrency@@AAEXPAVUMSThreadProxy@23@@Z 100ffcc0 f   libconcrtd:UMSSchedulerProxy.obj
 0002:0007bd00       ?Release@UMSSchedulerProxy@details@Concurrency@@QAEJXZ 100ffd00 f i libconcrtd:UMSSchedulerProxy.obj
 0002:0007bd60       ?SweepCompletionList@UMSSchedulerProxy@details@Concurrency@@QAE_NPAVUMSThreadProxy@23@_N@Z 100ffd60 f   libconcrtd:UMSSchedulerProxy.obj
 0002:0007beb0       ?UnbindContext@UMSSchedulerProxy@details@Concurrency@@UAEXPAUIExecutionContext@3@@Z 100ffeb0 f   libconcrtd:UMSSchedulerProxy.obj
 0002:0007bf70       ??0InitialThreadParam@UMSFreeVirtualProcessorRoot@details@Concurrency@@QAE@PAV123@@Z 100fff70 f i libconcrtd:UMSFreeVirtualProcessorRoot.obj
 0002:0007bff0       ??0ScopedCriticalRegion@UMSThreadProxy@details@Concurrency@@QAE@XZ 100ffff0 f i libconcrtd:UMSFreeVirtualProcessorRoot.obj
 0002:0007c050       ??0UMSFreeVirtualProcessorRoot@details@Concurrency@@QAE@PAVUMSSchedulerProxy@12@PAUSchedulerNode@12@I@Z 10100050 f   libconcrtd:UMSFreeVirtualProcessorRoot.obj
 0002:0007c240       ??1InitialThreadParam@UMSFreeVirtualProcessorRoot@details@Concurrency@@QAE@XZ 10100240 f i libconcrtd:UMSFreeVirtualProcessorRoot.obj
 0002:0007c270       ??1ScopedCriticalRegion@UMSThreadProxy@details@Concurrency@@QAE@XZ 10100270 f i libconcrtd:UMSFreeVirtualProcessorRoot.obj
 0002:0007c2f0       ??1UMSFreeVirtualProcessorRoot@details@Concurrency@@UAE@XZ 101002f0 f   libconcrtd:UMSFreeVirtualProcessorRoot.obj
 0002:0007c36e       ??_EUMSFreeVirtualProcessorRoot@details@Concurrency@@W3AEPAXI@Z 1010036e f i libconcrtd:UMSFreeVirtualProcessorRoot.obj
 0002:0007c378       ??_EUMSFreeVirtualProcessorRoot@details@Concurrency@@W7AEPAXI@Z 10100378 f i libconcrtd:UMSFreeVirtualProcessorRoot.obj
 0002:0007c390       ??_EUMSFreeVirtualProcessorRoot@details@Concurrency@@UAEPAXI@Z 10100390 f i libconcrtd:UMSFreeVirtualProcessorRoot.obj
 0002:0007c390       ??_GUMSFreeVirtualProcessorRoot@details@Concurrency@@UAEPAXI@Z 10100390 f i libconcrtd:UMSFreeVirtualProcessorRoot.obj
 0002:0007c3d0       ?Activate@UMSFreeVirtualProcessorRoot@details@Concurrency@@UAEXPAUIExecutionContext@3@@Z 101003d0 f   libconcrtd:UMSFreeVirtualProcessorRoot.obj
 0002:0007c6b0       ?Affinitize@UMSFreeVirtualProcessorRoot@details@Concurrency@@AAEXPAVUMSFreeThreadProxy@23@_N@Z 101006b0 f   libconcrtd:UMSFreeVirtualProcessorRoot.obj
 0002:0007c8c0       ?CreatePrimary@UMSFreeVirtualProcessorRoot@details@Concurrency@@AAEXXZ 101008c0 f   libconcrtd:UMSFreeVirtualProcessorRoot.obj
 0002:0007ca40       ?CriticalBlockAndExecute@UMSFreeVirtualProcessorRoot@details@Concurrency@@AAEXPAVUMSFreeThreadProxy@23@@Z 10100a40 f   libconcrtd:UMSFreeVirtualProcessorRoot.obj
 0002:0007cba0       ?Deactivate@UMSFreeVirtualProcessorRoot@details@Concurrency@@UAE_NPAUIExecutionContext@3@@Z 10100ba0 f   libconcrtd:UMSFreeVirtualProcessorRoot.obj
 0002:0007cee0       ?DeleteThis@UMSFreeVirtualProcessorRoot@details@Concurrency@@UAEXXZ 10100ee0 f   libconcrtd:UMSFreeVirtualProcessorRoot.obj
 0002:0007d000       ?EnsureAllTasksVisible@UMSFreeVirtualProcessorRoot@details@Concurrency@@UAEXPAUIExecutionContext@3@@Z 10101000 f   libconcrtd:UMSFreeVirtualProcessorRoot.obj
 0002:0007d1c0       ?Execute@UMSFreeVirtualProcessorRoot@details@Concurrency@@AAEXPAVUMSFreeThreadProxy@23@_N1@Z 101011c0 f   libconcrtd:UMSFreeVirtualProcessorRoot.obj
 0002:0007d3f0       ?GetCompletionList@UMSSchedulerProxy@details@Concurrency@@QBEPAXXZ 101013f0 f i libconcrtd:UMSFreeVirtualProcessorRoot.obj
 0002:0007d410       ?GetCompletionListEvent@UMSSchedulerProxy@details@Concurrency@@QBEPAXXZ 10101410 f i libconcrtd:UMSFreeVirtualProcessorRoot.obj
 0002:0007d430       ?GetId@UMSFreeVirtualProcessorRoot@details@Concurrency@@UBEIXZ 10101430 f   libconcrtd:UMSFreeVirtualProcessorRoot.obj
 0002:0007d445       ?GetId@UMSFreeVirtualProcessorRoot@details@Concurrency@@W7BEIXZ 10101445 f i libconcrtd:UMSFreeVirtualProcessorRoot.obj
 0002:0007d450       ?GetResourceManager@UMSFreeVirtualProcessorRoot@details@Concurrency@@QAEPAVResourceManager@23@XZ 10101450 f   libconcrtd:UMSFreeVirtualProcessorRoot.obj
 0002:0007d480       ?GetThreadHandle@UMSThreadProxy@details@Concurrency@@QAEPAXXZ 10101480 f i libconcrtd:UMSFreeVirtualProcessorRoot.obj
 0002:0007d4a0       ?GetTransferListEvent@UMSSchedulerProxy@details@Concurrency@@QBEPAXXZ 101014a0 f i libconcrtd:UMSFreeVirtualProcessorRoot.obj
 0002:0007d4c0       ?GetUMSBackgroundPoller@TransmogrifiedPrimary@details@Concurrency@@QAEPAVUMSBackgroundPoller@23@XZ 101014c0 f i libconcrtd:UMSFreeVirtualProcessorRoot.obj
 0002:0007d4e0       ?GetUMSBackgroundPoller@UMSFreeThreadProxyFactory@details@Concurrency@@QAEPAVUMSBackgroundPoller@23@XZ 101014e0 f i libconcrtd:UMSFreeVirtualProcessorRoot.obj
 0002:0007d500       ?HandleBlocking@UMSFreeVirtualProcessorRoot@details@Concurrency@@AAEXPAVUMSFreeThreadProxy@23@_N@Z 10101500 f   libconcrtd:UMSFreeVirtualProcessorRoot.obj
 0002:0007d690       ?HandleYielding@UMSFreeVirtualProcessorRoot@details@Concurrency@@AAEXPAVUMSFreeThreadProxy@23@@Z 10101690 f   libconcrtd:UMSFreeVirtualProcessorRoot.obj
 0002:0007db50       ?InternalDeactivate@UMSFreeVirtualProcessorRoot@details@Concurrency@@AAE_NXZ 10101b50 f   libconcrtd:UMSFreeVirtualProcessorRoot.obj
 0002:0007dd30       ?InvokeSchedulingContext@UMSFreeVirtualProcessorRoot@details@Concurrency@@AAEX_N@Z 10101d30 f   libconcrtd:UMSFreeVirtualProcessorRoot.obj
 0002:0007dda0       ?IsPrimary@UMSFreeVirtualProcessorRoot@details@Concurrency@@UAE_NXZ 10101da0 f i libconcrtd:UMSFreeVirtualProcessorRoot.obj
 0002:0007ddb0       ?OnPrimary@UMSFreeVirtualProcessorRoot@details@Concurrency@@AAE_NXZ 10101db0 f i libconcrtd:UMSFreeVirtualProcessorRoot.obj
 0002:0007ddf0       ?PollForCompletion@UMSSchedulerProxy@details@Concurrency@@QAEXPAVUMSThreadProxy@23@@Z 10101df0 f i libconcrtd:UMSFreeVirtualProcessorRoot.obj
 0002:0007de60       ?PrimaryInvocation@UMSFreeVirtualProcessorRoot@details@Concurrency@@CGXW4_RTL_UMS_SCHEDULER_REASON@@KPAX@Z 10101e60 f   libconcrtd:UMSFreeVirtualProcessorRoot.obj
 0002:0007e1f0       ?PrimaryMain@UMSFreeVirtualProcessorRoot@details@Concurrency@@CGKPAX@Z 101021f0 f   libconcrtd:UMSFreeVirtualProcessorRoot.obj
 0002:0007e300       ?Reference@UMSSchedulerProxy@details@Concurrency@@QAEJXZ 10102300 f i libconcrtd:UMSFreeVirtualProcessorRoot.obj
 0002:0007e330       ?ResetOnIdle@UMSFreeVirtualProcessorRoot@details@Concurrency@@QAEXXZ 10102330 f   libconcrtd:UMSFreeVirtualProcessorRoot.obj
 0002:0007e4e0       ?SchedulerProxy@UMSFreeVirtualProcessorRoot@details@Concurrency@@IAEPAVUMSSchedulerProxy@23@XZ 101024e0 f i libconcrtd:UMSFreeVirtualProcessorRoot.obj
 0002:0007e530       ?SetAffinity@UMSFreeThreadProxy@details@Concurrency@@QAEXUHardwareAffinity@23@@Z 10102530 f i libconcrtd:UMSFreeVirtualProcessorRoot.obj
 0002:0007e590       ?SetShutdownValidations@UMSThreadProxy@details@Concurrency@@QAEXXZ 10102590 f i libconcrtd:UMSFreeVirtualProcessorRoot.obj
 0002:0007e5b0       ?StartupPrimary@UMSFreeVirtualProcessorRoot@details@Concurrency@@AAEXXZ 101025b0 f i libconcrtd:UMSFreeVirtualProcessorRoot.obj
 0002:0007e610       ?SwitchOut@UMSFreeVirtualProcessorRoot@details@Concurrency@@UAEXW4SwitchingProxyState@3@@Z 10102610 f   libconcrtd:UMSFreeVirtualProcessorRoot.obj
 0002:0007e660       ?SwitchTo@UMSFreeVirtualProcessorRoot@details@Concurrency@@UAEXPAUIExecutionContext@3@W4SwitchingProxyState@3@@Z 10102660 f   libconcrtd:UMSFreeVirtualProcessorRoot.obj
 0002:0007e750       ?YieldToSystem@UMSFreeVirtualProcessorRoot@details@Concurrency@@UAEXXZ 10102750 f   libconcrtd:UMSFreeVirtualProcessorRoot.obj
 0002:0007e770       ??$__crt_fast_decode_pointer@P6AXXZ@@YAP6AXXZQ6AXXZ@Z 10102770 f i libvcruntimed:purevirt.obj
 0002:0007e7a0       ??$__crt_fast_encode_pointer@P6AXXZ@@YAP6AXXZQ6AXXZ@Z 101027a0 f i libvcruntimed:purevirt.obj
 0002:0007e7e0       ??$__crt_interlocked_compare_exchange_pointer@$$A6AXXZ$$T$$T@@YAP6AXXZPDS6AXXZ$$T1@Z 101027e0 f i libvcruntimed:purevirt.obj
 0002:0007e800       ??$__crt_interlocked_exchange_pointer@$$A6AXXZP6AXXZ@@YAP6AXXZPDS6AXXZQ6AXXZ@Z 10102800 f i libvcruntimed:purevirt.obj
 0002:0007e810       ??$__crt_interlocked_read_pointer@$$A6AXXZ@@YAP6AXXZPDS6AXXZ@Z 10102810 f i libvcruntimed:purevirt.obj
 0002:0007e830       __get_purecall_handler     10102830 f   libvcruntimed:purevirt.obj
 0002:0007e860       __purecall                 10102860 f   libvcruntimed:purevirt.obj
 0002:0007e8a0       __set_purecall_handler     101028a0 f   libvcruntimed:purevirt.obj
 0002:0007e8e0       _memset                    101028e0 f   libvcruntimed:memset.obj
 0002:0007ea90       __CxxThrowException@8      10102a90 f   libvcruntimed:throw.obj
 0002:0007eb70       ?_CallCatchBlock2@@YAPAXPAUEHRegistrationNode@@PBU_s_FuncInfo@@PAXHK@Z 10102b70 f   libvcruntimed:trnsctrl.obj
 0002:0007ec00       ?_CallSETranslator@@YAHPAUEHExceptionRecord@@PAUEHRegistrationNode@@PAX2PBU_s_FuncInfo@@H1@Z 10102c00 f   libvcruntimed:trnsctrl.obj
 0002:0007ed30       ?_GetRangeOfTrysToCheck@@YAPBU_s_TryBlockMapEntry@@PBU_s_FuncInfo@@HHPAI1@Z 10102d30 f   libvcruntimed:trnsctrl.obj
 0002:0007ee30       ?_JumpToContinuation@@YGXPAXPAUEHRegistrationNode@@@Z 10102e30 f   libvcruntimed:trnsctrl.obj
 0002:0007ee70       ?_UnwindNestedFrames@@YGXPAUEHRegistrationNode@@PAUEHExceptionRecord@@@Z 10102e70 f   libvcruntimed:trnsctrl.obj
 0002:0007eee0       __CatchGuardHandler        10102ee0 f   libvcruntimed:trnsctrl.obj
 0002:0007ef40       __CreateFrameInfo          10102f40 f   libvcruntimed:trnsctrl.obj
 0002:0007ef80       __FindAndUnlinkFrame       10102f80 f   libvcruntimed:trnsctrl.obj
 0002:0007f010       __IsExceptionObjectToBeDestroyed 10103010 f   libvcruntimed:trnsctrl.obj
 0002:0007f060       __TranslatorGuardHandler   10103060 f   libvcruntimed:trnsctrl.obj
 0002:0007f140       ___CxxFrameHandler         10103140 f   libvcruntimed:trnsctrl.obj
 0002:0007f190       ___CxxFrameHandler2        10103190 f   libvcruntimed:trnsctrl.obj
 0002:0007f1e0       ___CxxFrameHandler3        101031e0 f   libvcruntimed:trnsctrl.obj
 0002:0007f230       ___CxxLongjmpUnwind@4      10103230 f   libvcruntimed:trnsctrl.obj
 0002:0007f280       ??$?RD@__crt_public_free_policy@@QBEXQBD@Z 10103280 f i libvcruntimed:std_exception.obj
 0002:0007f2a0       ??0?$__crt_unique_heap_ptr@DU__crt_public_free_policy@@@@QAE@QAD@Z 101032a0 f i libvcruntimed:std_exception.obj
 0002:0007f2c0       ??1?$__crt_unique_heap_ptr@DU__crt_public_free_policy@@@@QAE@XZ 101032c0 f i libvcruntimed:std_exception.obj
 0002:0007f2e0       ??B?$__crt_unique_heap_ptr@DU__crt_public_free_policy@@@@QBE_NXZ 101032e0 f i libvcruntimed:std_exception.obj
 0002:0007f300       ?detach@?$__crt_unique_heap_ptr@DU__crt_public_free_policy@@@@QAEPADXZ 10103300 f i libvcruntimed:std_exception.obj
 0002:0007f330       ?get@?$__crt_unique_heap_ptr@DU__crt_public_free_policy@@@@QBEPADXZ 10103330 f i libvcruntimed:std_exception.obj
 0002:0007f350       ?is_valid@?$__crt_unique_heap_ptr@DU__crt_public_free_policy@@@@QBE_NXZ 10103350 f i libvcruntimed:std_exception.obj
 0002:0007f390       ?release@?$__crt_unique_heap_ptr@DU__crt_public_free_policy@@@@QAEXXZ 10103390 f i libvcruntimed:std_exception.obj
 0002:0007f3c0       ___std_exception_copy      101033c0 f   libvcruntimed:std_exception.obj
 0002:0007f4e0       ___std_exception_destroy   101034e0 f   libvcruntimed:std_exception.obj
 0002:0007f520       _memcpy                    10103520 f   libvcruntimed:memcpy.obj
 0002:0007fc00       _memmove                   10103c00 f   libvcruntimed:memmove.obj
 0002:000802e0       ___vcrt_initialize         101042e0 f   libvcruntimed:initialization.obj
 0002:00080330       ___vcrt_thread_attach      10104330 f   libvcruntimed:initialization.obj
 0002:00080350       ___vcrt_thread_detach      10104350 f   libvcruntimed:initialization.obj
 0002:00080370       ___vcrt_uninitialize       10104370 f   libvcruntimed:initialization.obj
 0002:000803a0       ___vcrt_uninitialize_critical 101043a0 f   libvcruntimed:initialization.obj
 0002:00080440       __except_handler4          10104440 f   libvcruntimed:_chandler4_.obj
 0002:000806d0       ??$?RD@__crt_internal_free_policy@@QBEXQBD@Z 101046d0 f i libvcruntimed:std_type_info.obj
 0002:00080700       ??$?RX@__crt_internal_free_policy@@QBEXQBX@Z 10104700 f i libvcruntimed:std_type_info.obj
 0002:00080730       ??$__crt_interlocked_compare_exchange_pointer@$$CBD$$T$$T@@YAPBDPDSBD$$T1@Z 10104730 f i libvcruntimed:std_type_info.obj
 0002:00080750       ??$__crt_interlocked_compare_exchange_pointer@$$CBDPAD$$T@@YAPBDPDSBDQAD$$T@Z 10104750 f i libvcruntimed:std_type_info.obj
 0002:00080770       ??$__crt_interlocked_read_pointer@$$CBD@@YAPBDPDSBD@Z 10104770 f i libvcruntimed:std_type_info.obj
 0002:00080790       ??0?$__crt_unique_heap_ptr@DU__crt_internal_free_policy@@@@QAE@QAD@Z 10104790 f i libvcruntimed:std_type_info.obj
 0002:000807b0       ??0?$__crt_unique_heap_ptr@XU__crt_internal_free_policy@@@@QAE@QAX@Z 101047b0 f i libvcruntimed:std_type_info.obj
 0002:000807d0       ??1?$__crt_unique_heap_ptr@DU__crt_internal_free_policy@@@@QAE@XZ 101047d0 f i libvcruntimed:std_type_info.obj
 0002:000807f0       ??1?$__crt_unique_heap_ptr@XU__crt_internal_free_policy@@@@QAE@XZ 101047f0 f i libvcruntimed:std_type_info.obj
 0002:00080850       ??B?$__crt_unique_heap_ptr@DU__crt_internal_free_policy@@@@QBE_NXZ 10104850 f i libvcruntimed:std_type_info.obj
 0002:00080870       ??B?$__crt_unique_heap_ptr@XU__crt_internal_free_policy@@@@QBE_NXZ 10104870 f i libvcruntimed:std_type_info.obj
 0002:000808f0       ?detach@?$__crt_unique_heap_ptr@XU__crt_internal_free_policy@@@@QAEPAXXZ 101048f0 f i libvcruntimed:std_type_info.obj
 0002:00080920       ?get@?$__crt_unique_heap_ptr@DU__crt_internal_free_policy@@@@QBEPADXZ 10104920 f i libvcruntimed:std_type_info.obj
 0002:00080940       ?get@?$__crt_unique_heap_ptr@XU__crt_internal_free_policy@@@@QBEPAXXZ 10104940 f i libvcruntimed:std_type_info.obj
 0002:00080960       ?is_valid@?$__crt_unique_heap_ptr@DU__crt_internal_free_policy@@@@QBE_NXZ 10104960 f i libvcruntimed:std_type_info.obj
 0002:000809a0       ?is_valid@?$__crt_unique_heap_ptr@XU__crt_internal_free_policy@@@@QBE_NXZ 101049a0 f i libvcruntimed:std_type_info.obj
 0002:000809e0       ?release@?$__crt_unique_heap_ptr@DU__crt_internal_free_policy@@@@QAEXXZ 101049e0 f i libvcruntimed:std_type_info.obj
 0002:00080a10       ?release@?$__crt_unique_heap_ptr@XU__crt_internal_free_policy@@@@QAEXXZ 10104a10 f i libvcruntimed:std_type_info.obj
 0002:00080a40       ___std_type_info_compare   10104a40 f   libvcruntimed:std_type_info.obj
 0002:00080a70       ___std_type_info_destroy_list 10104a70 f   libvcruntimed:std_type_info.obj
 0002:00080ac0       ___std_type_info_hash      10104ac0 f   libvcruntimed:std_type_info.obj
 0002:00080b30       ___std_type_info_name      10104b30 f   libvcruntimed:std_type_info.obj
 0002:00080d80       ___vcrt_GetModuleFileNameW 10104d80 f   libvcruntimed:winapi_thunks.obj
 0002:00080da0       ___vcrt_GetModuleHandleW   10104da0 f   libvcruntimed:winapi_thunks.obj
 0002:00080dc0       ___vcrt_LoadLibraryExW     10104dc0 f   libvcruntimed:winapi_thunks.obj
 0002:00080de0       ___DestructExceptionObject 10104de0 f   libvcruntimed:frame.obj
 0002:00080f60       ??0bad_exception@std@@QAE@ABV01@@Z 10104f60 f i libvcruntimed:frame.obj
 0002:00080f90       ??0bad_exception@std@@QAE@XZ 10104f90 f i libvcruntimed:frame.obj
 0002:00080fc0       ??1bad_exception@std@@UAE@XZ 10104fc0 f i libvcruntimed:frame.obj
 0002:00080fe0       ??8type_info@@QBE_NABV0@@Z 10104fe0 f i libvcruntimed:frame.obj
 0002:00081030       ??_Ebad_exception@std@@UAEPAXI@Z 10105030 f i libvcruntimed:frame.obj
 0002:00081030       ??_Gbad_exception@std@@UAEPAXI@Z 10105030 f i libvcruntimed:frame.obj
 0002:00081f00       ?_CallMemberFunction0@@YGXQAX0@Z 10105f00 f i libvcruntimed:frame.obj
 0002:00081f10       ?_CallMemberFunction1@@YGXQAX00@Z 10105f10 f i libvcruntimed:frame.obj
 0002:00081f20       ?_CallMemberFunction2@@YGXQAX00H@Z 10105f20 f i libvcruntimed:frame.obj
 0002:00081f30       ?_ValidateExecute@@YA_NP6GHXZ@Z 10105f30 f i libvcruntimed:frame.obj
 0002:00081f50       ?_ValidateRead@@YA_NPBXI@Z 10105f50 f i libvcruntimed:frame.obj
 0002:00081f70       ?_ValidateWrite@@YA_NPAXI@Z 10105f70 f i libvcruntimed:frame.obj
 0002:00081f90       ?raw_name@type_info@@QBEPBDXZ 10105f90 f i libvcruntimed:frame.obj
 0002:00081fb0       __SetWinRTOutOfMemoryExceptionCallback 10105fb0 f   libvcruntimed:frame.obj
 0002:00081fc0       ___AdjustPointer           10105fc0 f   libvcruntimed:frame.obj
 0002:00082020       ___BuildCatchObject        10106020 f   libvcruntimed:frame.obj
 0002:00082170       ___BuildCatchObjectHelper  10106170 f   libvcruntimed:frame.obj
 0002:00082560       ___CxxDetectRethrow        10106560 f   libvcruntimed:frame.obj
 0002:00082600       ___CxxExceptionFilter      10106600 f   libvcruntimed:frame.obj
 0002:00082870       ___CxxQueryExceptionSize   10106870 f   libvcruntimed:frame.obj
 0002:00082880       ___CxxRegisterExceptionObject 10106880 f   libvcruntimed:frame.obj
 0002:000829f0       ___CxxUnregisterExceptionObject 101069f0 f   libvcruntimed:frame.obj
 0002:00082ba0       ___FrameUnwindFilter       10106ba0 f   libvcruntimed:frame.obj
 0002:00082c30       ___FrameUnwindToState      10106c30 f   libvcruntimed:frame.obj
 0002:00082e10       ___GetPlatformExceptionInfo 10106e10 f   libvcruntimed:frame.obj
 0002:00082eb0       ___InternalCxxFrameHandler 10106eb0 f   libvcruntimed:frame.obj
 0002:000830c0       ___TypeMatch               101070c0 f   libvcruntimed:frame.obj
 0002:000831d0       ___current_exception       101071d0 f   libvcruntimed:frame.obj
 0002:000831e0       ___current_exception_context 101071e0 f   libvcruntimed:frame.obj
 0002:000831f0       ___processing_throw        101071f0 f   libvcruntimed:frame.obj
 0002:00083200       ___std_terminate           10107200 f   libvcruntimed:frame.obj
 0002:00083210       ___uncaught_exception      10107210 f   libvcruntimed:frame.obj
 0002:00083240       ___uncaught_exceptions     10107240 f   libvcruntimed:frame.obj
 0002:00083250       __is_exception_typeof      10107250 f   libvcruntimed:frame.obj
 0002:00083360       ??0__non_rtti_object@std@@AAE@QBDH@Z 10107360 f i libvcruntimed:rtti.obj
 0002:00083390       ??0__non_rtti_object@std@@QAE@ABV01@@Z 10107390 f i libvcruntimed:rtti.obj
 0002:000833c0       ??0bad_cast@std@@AAE@QBDH@Z 101073c0 f i libvcruntimed:rtti.obj
 0002:000833f0       ??0bad_cast@std@@QAE@ABV01@@Z 101073f0 f i libvcruntimed:rtti.obj
 0002:00083420       ??0bad_typeid@std@@AAE@QBDH@Z 10107420 f i libvcruntimed:rtti.obj
 0002:00083450       ??0bad_typeid@std@@QAE@ABV01@@Z 10107450 f i libvcruntimed:rtti.obj
 0002:00083480       ??1__non_rtti_object@std@@UAE@XZ 10107480 f i libvcruntimed:rtti.obj
 0002:000834a0       ??1bad_cast@std@@UAE@XZ    101074a0 f i libvcruntimed:rtti.obj
 0002:000834c0       ??1bad_typeid@std@@UAE@XZ  101074c0 f i libvcruntimed:rtti.obj
 0002:000834e0       ??_E__non_rtti_object@std@@UAEPAXI@Z 101074e0 f i libvcruntimed:rtti.obj
 0002:000834e0       ??_G__non_rtti_object@std@@UAEPAXI@Z 101074e0 f i libvcruntimed:rtti.obj
 0002:00083520       ??_Gbad_cast@std@@UAEPAXI@Z 10107520 f i libvcruntimed:rtti.obj
 0002:00083520       ??_Ebad_cast@std@@UAEPAXI@Z 10107520 f i libvcruntimed:rtti.obj
 0002:00083560       ??_Gbad_typeid@std@@UAEPAXI@Z 10107560 f i libvcruntimed:rtti.obj
 0002:00083560       ??_Ebad_typeid@std@@UAEPAXI@Z 10107560 f i libvcruntimed:rtti.obj
 0002:00083c70       ?__construct_from_string_literal@__non_rtti_object@std@@SA?AV12@QBD@Z 10107c70 f i libvcruntimed:rtti.obj
 0002:00083c90       ?__construct_from_string_literal@bad_cast@std@@SA?AV12@QBD@Z 10107c90 f i libvcruntimed:rtti.obj
 0002:00083cb0       ?__construct_from_string_literal@bad_typeid@std@@SA?AV12@QBD@Z 10107cb0 f i libvcruntimed:rtti.obj
 0002:00083cd0       ___RTCastToVoid            10107cd0 f   libvcruntimed:rtti.obj
 0002:00083dd0       ___RTDynamicCast           10107dd0 f   libvcruntimed:rtti.obj
 0002:00084000       ___RTtypeid                10108000 f   libvcruntimed:rtti.obj
 0002:00084170       ??$?B$$A6AXXZ@__crt_fast_encoded_nullptr_t@@QBEP6AXXZXZ 10108170 f i libvcruntimed:purevirt_data.obj
 0002:00084190       ?__crt_fast_encode_pointer@@YA?AU__crt_fast_encoded_nullptr_t@@$$T@Z 10108190 f i libvcruntimed:purevirt_data.obj
 0002:000841a0       ___vcrt_initialize_pure_virtual_call_handler 101081a0 f   libvcruntimed:purevirt_data.obj
 0002:000841d0       ??$?RU__vcrt_ptd@@@__crt_internal_free_policy@@QBEXQBU__vcrt_ptd@@@Z 101081d0 f i libvcruntimed:per_thread_data.obj
 0002:00084200       ??0?$__crt_unique_heap_ptr@U__vcrt_ptd@@U__crt_internal_free_policy@@@@QAE@QAU__vcrt_ptd@@@Z 10108200 f i libvcruntimed:per_thread_data.obj
 0002:00084240       ??1?$__crt_unique_heap_ptr@U__vcrt_ptd@@U__crt_internal_free_policy@@@@QAE@XZ 10108240 f i libvcruntimed:per_thread_data.obj
 0002:00084280       ??B?$__crt_unique_heap_ptr@U__vcrt_ptd@@U__crt_internal_free_policy@@@@QBE_NXZ 10108280 f i libvcruntimed:per_thread_data.obj
 0002:000842a0       ?detach@?$__crt_unique_heap_ptr@U__vcrt_ptd@@U__crt_internal_free_policy@@@@QAEPAU__vcrt_ptd@@XZ 101082a0 f i libvcruntimed:per_thread_data.obj
 0002:000842d0       ?get@?$__crt_unique_heap_ptr@U__vcrt_ptd@@U__crt_internal_free_policy@@@@QBEPAU__vcrt_ptd@@XZ 101082d0 f i libvcruntimed:per_thread_data.obj
 0002:000842f0       ?is_valid@?$__crt_unique_heap_ptr@U__vcrt_ptd@@U__crt_internal_free_policy@@@@QBE_NXZ 101082f0 f i libvcruntimed:per_thread_data.obj
 0002:00084330       ?release@?$__crt_unique_heap_ptr@U__vcrt_ptd@@U__crt_internal_free_policy@@@@QAEXXZ 10108330 f i libvcruntimed:per_thread_data.obj
 0002:00084390       ___vcrt_freefls@4          10108390 f   libvcruntimed:per_thread_data.obj
 0002:000843c0       ___vcrt_freeptd            101083c0 f   libvcruntimed:per_thread_data.obj
 0002:00084430       ___vcrt_getptd             10108430 f   libvcruntimed:per_thread_data.obj
 0002:00084460       ___vcrt_getptd_noexit      10108460 f   libvcruntimed:per_thread_data.obj
 0002:00084620       ___vcrt_initialize_ptd     10108620 f   libvcruntimed:per_thread_data.obj
 0002:00084680       ___vcrt_uninitialize_ptd   10108680 f   libvcruntimed:per_thread_data.obj
 0002:000846c0       __CallSettingFrame@12      101086c0 f   libvcruntimed:lowhelpr.obj
 0002:000846e7       __NLG_Return               101086e7     libvcruntimed:lowhelpr.obj
 0002:00084720       ___except_validate_context_record 10108720 f   libvcruntimed:jbcxrval.obj
 0002:00084780       ___except_validate_jump_buffer 10108780 f   libvcruntimed:jbcxrval.obj
 0002:000847e0       ___vcrt_initialize_locks   101087e0 f   libvcruntimed:locks.obj
 0002:00084850       ___vcrt_lock               10108850 f   libvcruntimed:locks.obj
 0002:00084870       ___vcrt_uninitialize_locks 10108870 f   libvcruntimed:locks.obj
 0002:000848d0       ___vcrt_unlock             101088d0 f   libvcruntimed:locks.obj
 0002:000848f0       ??$?BX@__crt_fast_encoded_nullptr_t@@QBEPAXXZ 101088f0 f i libvcruntimed:winapi_downlevel.obj
 0002:00084910       ??$__crt_fast_decode_pointer@PAX@@YAPAXQAX@Z 10108910 f i libvcruntimed:winapi_downlevel.obj
 0002:00084940       ??$__crt_fast_encode_pointer@PAX@@YAPAXQAX@Z 10108940 f i libvcruntimed:winapi_downlevel.obj
 0002:00084980       ??$__crt_interlocked_compare_exchange_pointer@UHINSTANCE__@@$$T$$T@@YAPAUHINSTANCE__@@PDSAU0@$$T1@Z 10108980 f i libvcruntimed:winapi_downlevel.obj
 0002:000849a0       ??$__crt_interlocked_compare_exchange_pointer@X$$T$$T@@YAPAXPDSAX$$T1@Z 101089a0 f i libvcruntimed:winapi_downlevel.obj
 0002:000849c0       ??$__crt_interlocked_exchange_pointer@UHINSTANCE__@@PAU1@@@YAPAUHINSTANCE__@@PDSAU0@QAU0@@Z 101089c0 f i libvcruntimed:winapi_downlevel.obj
 0002:000849d0       ??$__crt_interlocked_exchange_pointer@UHINSTANCE__@@PAX@@YAPAUHINSTANCE__@@PDSAU0@QAX@Z 101089d0 f i libvcruntimed:winapi_downlevel.obj
 0002:000849e0       ??$__crt_interlocked_exchange_pointer@XPAX@@YAPAXPDSAXQAX@Z 101089e0 f i libvcruntimed:winapi_downlevel.obj
 0002:000849f0       ??$__crt_interlocked_read_pointer@UHINSTANCE__@@@@YAPAUHINSTANCE__@@PDSAU0@@Z 101089f0 f i libvcruntimed:winapi_downlevel.obj
 0002:00084a10       ??$__crt_interlocked_read_pointer@X@@YAPAXPDSAX@Z 10108a10 f i libvcruntimed:winapi_downlevel.obj
 0002:00084fb0       ___vcrt_EventRegister      10108fb0 f   libvcruntimed:winapi_downlevel.obj
 0002:00085000       ___vcrt_EventSetInformation 10109000 f   libvcruntimed:winapi_downlevel.obj
 0002:00085060       ___vcrt_EventUnregister    10109060 f   libvcruntimed:winapi_downlevel.obj
 0002:000850b0       ___vcrt_EventWriteTransfer 101090b0 f   libvcruntimed:winapi_downlevel.obj
 0002:00085110       ___vcrt_FlsAlloc           10109110 f   libvcruntimed:winapi_downlevel.obj
 0002:00085160       ___vcrt_FlsFree            10109160 f   libvcruntimed:winapi_downlevel.obj
 0002:000851b0       ___vcrt_FlsGetValue        101091b0 f   libvcruntimed:winapi_downlevel.obj
 0002:00085200       ___vcrt_FlsSetValue        10109200 f   libvcruntimed:winapi_downlevel.obj
 0002:00085260       ___vcrt_InitializeCriticalSectionEx 10109260 f   libvcruntimed:winapi_downlevel.obj
 0002:000852c0       ___vcrt_initialize_winapi_thunks 101092c0 f   libvcruntimed:winapi_downlevel.obj
 0002:00085340       ___vcrt_uninitialize_winapi_thunks 10109340 f   libvcruntimed:winapi_downlevel.obj
 0002:000853d0       __local_unwind4            101093d0 f   libvcruntimed:_exsup4_.obj
 0002:000854a6       __seh_longjmp_unwind4@4    101094a6 f   libvcruntimed:_exsup4_.obj
 0002:000854ce       @_EH4_CallFilterFunc@8     101094ce f   libvcruntimed:_exsup4_.obj
 0002:000854e5       @_EH4_TransferToHandler@8  101094e5 f   libvcruntimed:_exsup4_.obj
 0002:000854fe       @_EH4_GlobalUnwind2@8      101094fe f   libvcruntimed:_exsup4_.obj
 0002:00085517       @_EH4_LocalUnwind@16       10109517 f   libvcruntimed:_exsup4_.obj
 0002:00085590       ??0Block@_HeapManager@@QAE@XZ 10109590 f i libvcruntimed:undname.obj
 0002:000855b0       ??0DName@@QAE@AAPBDD@Z     101095b0 f   libvcruntimed:undname.obj
 0002:00085920       ??0DName@@QAE@ABV0@@Z      10109920 f i libvcruntimed:undname.obj
 0002:00085950       ??0DName@@QAE@D@Z          10109950 f   libvcruntimed:undname.obj
 0002:00085a60       ??0DName@@QAE@PAV0@@Z      10109a60 f   libvcruntimed:undname.obj
 0002:00085be0       ??0DName@@QAE@PBD@Z        10109be0 f   libvcruntimed:undname.obj
 0002:00085d10       ??0DName@@QAE@W4DNameStatus@@@Z 10109d10 f   libvcruntimed:undname.obj
 0002:00085e70       ??0DName@@QAE@XZ           10109e70 f i libvcruntimed:undname.obj
 0002:00085f60       ??0DName@@QAE@_J@Z         10109f60 f   libvcruntimed:undname.obj
 0002:00086140       ??0DName@@QAE@_K@Z         1010a140 f   libvcruntimed:undname.obj
 0002:000862d0       ??0DNameNode@@IAE@XZ       1010a2d0 f   libvcruntimed:undname.obj
 0002:000862f0       ??0DNameStatusNode@@AAE@W4DNameStatus@@@Z 1010a2f0 f   libvcruntimed:undname.obj
 0002:00086360       ??0Replicator@@QAE@XZ      1010a360 f i libvcruntimed:undname.obj
 0002:00086380       ??0UnDecorator@@QAE@PADPBDHP6APADJ@ZK@Z 1010a380 f i libvcruntimed:undname.obj
 0002:00086440       ??0charNode@@QAE@D@Z       1010a440 f   libvcruntimed:undname.obj
 0002:00086480       ??0pDNameNode@@QAE@PAVDName@@@Z 1010a480 f   libvcruntimed:undname.obj
 0002:00086500       ??0pairNode@@QAE@PAVDNameNode@@0@Z 1010a500 f   libvcruntimed:undname.obj
 0002:00086550       ??0pcharNode@@QAE@PBDH@Z   1010a550 f   libvcruntimed:undname.obj
 0002:00086610       ??2@YAPAXIAAV_HeapManager@@H@Z 1010a610 f i libvcruntimed:undname.obj
 0002:00086630       ??4DName@@QAEAAV0@ABV0@@Z  1010a630 f   libvcruntimed:undname.obj
 0002:00086660       ??4DName@@QAEAAV0@D@Z      1010a660 f i libvcruntimed:undname.obj
 0002:00086770       ??4DName@@QAEAAV0@PAV0@@Z  1010a770 f   libvcruntimed:undname.obj
 0002:000868f0       ??4DName@@QAEAAV0@PBD@Z    1010a8f0 f   libvcruntimed:undname.obj
 0002:00086a00       ??4DName@@QAEAAV0@W4DNameStatus@@@Z 1010aa00 f   libvcruntimed:undname.obj
 0002:00086b40       ??AReplicator@@QBE?AVDName@@H@Z 1010ab40 f   libvcruntimed:undname.obj
 0002:00086bc0       ??BUnDecorator@@QAEPADXZ   1010abc0 f i libvcruntimed:undname.obj
 0002:00086f10       ??H@YA?AVDName@@DABV0@@Z   1010af10 f i libvcruntimed:undname.obj
 0002:00086f50       ??H@YA?AVDName@@PBDABV0@@Z 1010af50 f i libvcruntimed:undname.obj
 0002:00086f90       ??H@YA?AVDName@@W4DNameStatus@@ABV0@@Z 1010af90 f i libvcruntimed:undname.obj
 0002:00086fd0       ??HDName@@QBE?AV0@ABV0@@Z  1010afd0 f   libvcruntimed:undname.obj
 0002:00087020       ??HDName@@QBE?AV0@D@Z      1010b020 f   libvcruntimed:undname.obj
 0002:00087070       ??HDName@@QBE?AV0@PAV0@@Z  1010b070 f   libvcruntimed:undname.obj
 0002:000870c0       ??HDName@@QBE?AV0@PBD@Z    1010b0c0 f   libvcruntimed:undname.obj
 0002:00087110       ??HDName@@QBE?AV0@W4DNameStatus@@@Z 1010b110 f   libvcruntimed:undname.obj
 0002:00087160       ??YDName@@QAEAAV0@ABV0@@Z  1010b160 f   libvcruntimed:undname.obj
 0002:000871e0       ??YDName@@QAEAAV0@D@Z      1010b1e0 f   libvcruntimed:undname.obj
 0002:00087280       ??YDName@@QAEAAV0@PAV0@@Z  1010b280 f   libvcruntimed:undname.obj
 0002:00087360       ??YDName@@QAEAAV0@PBD@Z    1010b360 f   libvcruntimed:undname.obj
 0002:00087420       ??YDName@@QAEAAV0@W4DNameStatus@@@Z 1010b420 f   libvcruntimed:undname.obj
 0002:000874a0       ??YReplicator@@QAEAAV0@ABVDName@@@Z 1010b4a0 f   libvcruntimed:undname.obj
 0002:00087550       ??_5DName@@QAEAAV0@ABV0@@Z 1010b550 f   libvcruntimed:undname.obj
 0002:000875c0       ?Constructor@_HeapManager@@QAEXP6APAXI@ZP6AXPAX@Z@Z 1010b5c0 f i libvcruntimed:undname.obj
 0002:00087610       ?Destructor@_HeapManager@@QAEXXZ 1010b610 f i libvcruntimed:undname.obj
 0002:00087680       ?UScore@UnDecorator@@SAPBDW4Tokens@@@Z 1010b680 f   libvcruntimed:undname.obj
 0002:000876c0       ?append@DName@@AAEXPAVDNameNode@@@Z 1010b6c0 f   libvcruntimed:undname.obj
 0002:00087770       ?composeDeclaration@UnDecorator@@CA?AVDName@@ABV2@@Z 1010b770 f i libvcruntimed:undname.obj
 0002:00089b20       ?dbGetString@DName@@QBEPADXZ 1010db20 f   libvcruntimed:undname.obj
 0002:00089b50       ?doAccessSpecifiers@UnDecorator@@SAHXZ 1010db50 f i libvcruntimed:undname.obj
 0002:00089b80       ?doAllocationLanguage@UnDecorator@@SAHXZ 1010db80 f i libvcruntimed:undname.obj
 0002:00089bb0       ?doAllocationModel@UnDecorator@@SAHXZ 1010dbb0 f i libvcruntimed:undname.obj
 0002:00089be0       ?doEcsu@UnDecorator@@SAHXZ 1010dbe0 f i libvcruntimed:undname.obj
 0002:00089c10       ?doEllipsis@UnDecorator@@SAHXZ 1010dc10 f i libvcruntimed:undname.obj
 0002:00089c40       ?doFunctionReturns@UnDecorator@@SAHXZ 1010dc40 f i libvcruntimed:undname.obj
 0002:00089c70       ?doMSKeywords@UnDecorator@@SAHXZ 1010dc70 f i libvcruntimed:undname.obj
 0002:00089ca0       ?doMemberTypes@UnDecorator@@SAHXZ 1010dca0 f i libvcruntimed:undname.obj
 0002:00089cd0       ?doNameOnly@UnDecorator@@SAHXZ 1010dcd0 f i libvcruntimed:undname.obj
 0002:00089cf0       ?doNoIdentCharCheck@UnDecorator@@SAHXZ 1010dcf0 f i libvcruntimed:undname.obj
 0002:00089d10       ?doPchar@DName@@AAEXPBDH@Z 1010dd10 f   libvcruntimed:undname.obj
 0002:00089ea0       ?doPtr64@UnDecorator@@SAHXZ 1010dea0 f i libvcruntimed:undname.obj
 0002:00089ed0       ?doRestrictionSpec@UnDecorator@@SAHXZ 1010ded0 f i libvcruntimed:undname.obj
 0002:00089f00       ?doThisTypes@UnDecorator@@SAHXZ 1010df00 f i libvcruntimed:undname.obj
 0002:00089f40       ?doThrowTypes@UnDecorator@@SAHXZ 1010df40 f i libvcruntimed:undname.obj
 0002:00089f70       ?doTypeOnly@UnDecorator@@SAHXZ 1010df70 f i libvcruntimed:undname.obj
 0002:00089f90       ?doUnderScore@UnDecorator@@SAHXZ 1010df90 f i libvcruntimed:undname.obj
 0002:00089fc0       ?getArgumentList@UnDecorator@@CA?AVDName@@XZ 1010dfc0 f   libvcruntimed:undname.obj
 0002:0008a160       ?getArgumentTypes@UnDecorator@@CA?AVDName@@XZ 1010e160 f   libvcruntimed:undname.obj
 0002:0008a310       ?getArrayType@UnDecorator@@CA?AVDName@@ABV2@@Z 1010e310 f i libvcruntimed:undname.obj
 0002:0008a5d0       ?getBasedType@UnDecorator@@CA?AVDName@@XZ 1010e5d0 f   libvcruntimed:undname.obj
 0002:0008a6c0       ?getBasicDataType@UnDecorator@@CA?AVDName@@ABV2@@Z 1010e6c0 f   libvcruntimed:undname.obj
 0002:0008ae20       ?getCallIndex@UnDecorator@@CA?AVDName@@XZ 1010ee20 f i libvcruntimed:undname.obj
 0002:0008ae40       ?getCallingConvention@UnDecorator@@CA?AVDName@@XZ 1010ee40 f   libvcruntimed:undname.obj
 0002:0008b030       ?getDataIndirectType@UnDecorator@@CA?AVDName@@ABV2@PBD0H@Z 1010f030 f   libvcruntimed:undname.obj
 0002:0008b9e0       ?getDataIndirectType@UnDecorator@@CA?AVDName@@XZ 1010f9e0 f i libvcruntimed:undname.obj
 0002:0008ba30       ?getDataType@UnDecorator@@CA?AVDName@@PAV2@@Z 1010fa30 f   libvcruntimed:undname.obj
 0002:0008bb90       ?getDecoratedName@UnDecorator@@CA?AVDName@@XZ 1010fb90 f   libvcruntimed:undname.obj
 0002:0008bf80       ?getDimension@UnDecorator@@CA?AVDName@@_N@Z 1010ff80 f   libvcruntimed:undname.obj
 0002:0008c2e0       ?getDispatchTarget@UnDecorator@@CA?AVDName@@XZ 101102e0 f   libvcruntimed:undname.obj
 0002:0008c3a0       ?getDisplacement@UnDecorator@@CA?AVDName@@XZ 101103a0 f i libvcruntimed:undname.obj
 0002:0008c3c0       ?getECSUDataType@UnDecorator@@CA?AVDName@@XZ 101103c0 f   libvcruntimed:undname.obj
 0002:0008c600       ?getECSUName@UnDecorator@@CA?AVDName@@XZ 10110600 f i libvcruntimed:undname.obj
 0002:0008c620       ?getEnumType@UnDecorator@@CA?AVDName@@XZ 10110620 f i libvcruntimed:undname.obj
 0002:0008c7c0       ?getExtendedDataIndirectType@UnDecorator@@CA?AVDName@@AAPBDAA_NH@Z 101107c0 f   libvcruntimed:undname.obj
 0002:0008caa0       ?getExternalDataType@UnDecorator@@CA?AVDName@@ABV2@@Z 10110aa0 f i libvcruntimed:undname.obj
 0002:0008cb60       ?getFunctionIndirectType@UnDecorator@@CA?AVDName@@ABV2@@Z 10110b60 f   libvcruntimed:undname.obj
 0002:0008d110       ?getGuardNumber@UnDecorator@@CA?AVDName@@XZ 10111110 f i libvcruntimed:undname.obj
 0002:0008d130       ?getLastChar@DName@@QBEDXZ 10111130 f i libvcruntimed:undname.obj
 0002:0008d180       ?getLastChar@DNameStatusNode@@UBEDXZ 10111180 f i libvcruntimed:undname.obj
 0002:0008d1c0       ?getLastChar@charNode@@UBEDXZ 101111c0 f i libvcruntimed:undname.obj
 0002:0008d1e0       ?getLastChar@pDNameNode@@UBEDXZ 101111e0 f i libvcruntimed:undname.obj
 0002:0008d220       ?getLastChar@pairNode@@UBEDXZ 10111220 f i libvcruntimed:undname.obj
 0002:0008d2a0       ?getLastChar@pcharNode@@UBEDXZ 101112a0 f i libvcruntimed:undname.obj
 0002:0008d2e0       ?getLexicalFrame@UnDecorator@@CA?AVDName@@XZ 101112e0 f i libvcruntimed:undname.obj
 0002:0008d330       ?getMemory@_HeapManager@@QAEPAXIH@Z 10111330 f   libvcruntimed:undname.obj
 0002:0008d490       ?getNumberOfDimensions@UnDecorator@@CAHXZ 10111490 f   libvcruntimed:undname.obj
 0002:0008d5d0       ?getOperatorName@UnDecorator@@CA?AVDName@@_NPA_N@Z 101115d0 f i libvcruntimed:undname.obj
 0002:0008e290       ?getPointerType@UnDecorator@@CA?AVDName@@ABV2@0@Z 10112290 f i libvcruntimed:undname.obj
 0002:0008e2d0       ?getPointerTypeArray@UnDecorator@@CA?AVDName@@ABV2@0@Z 101122d0 f i libvcruntimed:undname.obj
 0002:0008e310       ?getPrimaryDataType@UnDecorator@@CA?AVDName@@ABV2@@Z 10112310 f   libvcruntimed:undname.obj
 0002:0008e800       ?getPtrRefDataType@UnDecorator@@CA?AVDName@@ABV2@H@Z 10112800 f   libvcruntimed:undname.obj
 0002:0008ea00       ?getPtrRefType@UnDecorator@@CA?AVDName@@ABV2@0PBD@Z 10112a00 f   libvcruntimed:undname.obj
 0002:0008ebd0       ?getReferenceType@UnDecorator@@CA?AVDName@@ABV2@0PBD@Z 10112bd0 f i libvcruntimed:undname.obj
 0002:0008ec00       ?getRestrictionSpec@UnDecorator@@CA?AVDName@@XZ 10112c00 f   libvcruntimed:undname.obj
 0002:0008eda0       ?getReturnType@UnDecorator@@CA?AVDName@@PAV2@@Z 10112da0 f   libvcruntimed:undname.obj
 0002:0008ee00       ?getScope@UnDecorator@@CA?AVDName@@XZ 10112e00 f   libvcruntimed:undname.obj
 0002:0008f430       ?getScopedName@UnDecorator@@CA?AVDName@@XZ 10113430 f   libvcruntimed:undname.obj
 0002:0008f590       ?getSignedDimension@UnDecorator@@CA?AVDName@@XZ 10113590 f   libvcruntimed:undname.obj
 0002:0008f630       ?getStorageConvention@UnDecorator@@CA?AVDName@@XZ 10113630 f i libvcruntimed:undname.obj
 0002:0008f650       ?getString@DName@@QBEPADPAD0@Z 10113650 f i libvcruntimed:undname.obj
 0002:0008f6b0       ?getString@DName@@QBEPADPADH@Z 101136b0 f i libvcruntimed:undname.obj
 0002:0008f760       ?getString@DNameStatusNode@@UBEPADPAD0@Z 10113760 f i libvcruntimed:undname.obj
 0002:0008f7a0       ?getString@charNode@@UBEPADPAD0@Z 101137a0 f i libvcruntimed:undname.obj
 0002:0008f7e0       ?getString@pDNameNode@@UBEPADPAD0@Z 101137e0 f i libvcruntimed:undname.obj
 0002:0008f830       ?getString@pairNode@@UBEPADPAD0@Z 10113830 f i libvcruntimed:undname.obj
 0002:0008f8d0       ?getString@pcharNode@@UBEPADPAD0@Z 101138d0 f i libvcruntimed:undname.obj
 0002:0008f910       ?getStringEncoding@UnDecorator@@CA?AVDName@@PADH@Z 10113910 f   libvcruntimed:undname.obj
 0002:0008fa60       ?getStringHelper@@YAPADPAD00H@Z 10113a60 f i libvcruntimed:undname.obj
 0002:0008fab0       ?getSymbolName@UnDecorator@@CA?AVDName@@XZ 10113ab0 f i libvcruntimed:undname.obj
 0002:0008fb60       ?getTemplateArgumentList@UnDecorator@@CA?AVDName@@XZ 10113b60 f   libvcruntimed:undname.obj
 0002:00090040       ?getTemplateConstant@UnDecorator@@CA?AVDName@@XZ 10114040 f   libvcruntimed:undname.obj
 0002:00090750       ?getTemplateName@UnDecorator@@CA?AVDName@@_N@Z 10114750 f   libvcruntimed:undname.obj
 0002:00090990       ?getThisType@UnDecorator@@CA?AVDName@@XZ 10114990 f i libvcruntimed:undname.obj
 0002:000909e0       ?getThrowTypes@UnDecorator@@CA?AVDName@@XZ 101149e0 f   libvcruntimed:undname.obj
 0002:00090ab0       ?getTypeEncoding@UnDecorator@@CAHXZ 10114ab0 f i libvcruntimed:undname.obj
 0002:00091780       ?getVCallThunkType@UnDecorator@@CA?AVDName@@XZ 10115780 f i libvcruntimed:undname.obj
 0002:00091800       ?getVbTableType@UnDecorator@@CA?AVDName@@ABV2@@Z 10115800 f i libvcruntimed:undname.obj
 0002:00091820       ?getVdispMapType@UnDecorator@@CA?AVDName@@ABV2@@Z 10115820 f i libvcruntimed:undname.obj
 0002:000918b0       ?getVfTableType@UnDecorator@@CA?AVDName@@ABV2@@Z 101158b0 f i libvcruntimed:undname.obj
 0002:00091ae0       ?getZName@UnDecorator@@CA?AVDName@@_N0@Z 10115ae0 f   libvcruntimed:undname.obj
 0002:00091e60       ?haveTemplateParameters@UnDecorator@@SAHXZ 10115e60 f i libvcruntimed:undname.obj
 0002:00091e80       ?isArray@DName@@QBEHXZ     10115e80 f i libvcruntimed:undname.obj
 0002:00091ea0       ?isComArray@DName@@QBEHXZ  10115ea0 f i libvcruntimed:undname.obj
 0002:00091ec0       ?isEmpty@DName@@QBEHXZ     10115ec0 f i libvcruntimed:undname.obj
 0002:00091f00       ?isFull@Replicator@@QBEHXZ 10115f00 f i libvcruntimed:undname.obj
 0002:00091f40       ?isNoTE@DName@@QBEHXZ      10115f40 f i libvcruntimed:undname.obj
 0002:00091f60       ?isPinPtr@DName@@QBEHXZ    10115f60 f i libvcruntimed:undname.obj
 0002:00091f80       ?isPtrRef@DName@@QBEHXZ    10115f80 f i libvcruntimed:undname.obj
 0002:00091fa0       ?isUDC@DName@@QBEHXZ       10115fa0 f i libvcruntimed:undname.obj
 0002:00091ff0       ?isUDTThunk@DName@@QBEHXZ  10115ff0 f i libvcruntimed:undname.obj
 0002:00092040       ?isVCallThunk@DName@@QBEHXZ 10116040 f i libvcruntimed:undname.obj
 0002:00092060       ?isValid@DName@@QBEHXZ     10116060 f i libvcruntimed:undname.obj
 0002:000920a0       ?length@DName@@QBEHXZ      101160a0 f i libvcruntimed:undname.obj
 0002:000920f0       ?length@DNameStatusNode@@UBEHXZ 101160f0 f i libvcruntimed:undname.obj
 0002:00092110       ?length@charNode@@UBEHXZ   10116110 f i libvcruntimed:undname.obj
 0002:00092130       ?length@pDNameNode@@UBEHXZ 10116130 f i libvcruntimed:undname.obj
 0002:00092170       ?length@pairNode@@UBEHXZ   10116170 f i libvcruntimed:undname.obj
 0002:00092200       ?length@pcharNode@@UBEHXZ  10116200 f i libvcruntimed:undname.obj
 0002:00092220       ?make@DNameStatusNode@@SAPAV1@W4DNameStatus@@@Z 10116220 f i libvcruntimed:undname.obj
 0002:000922b0       ?setIsArray@DName@@QAEXXZ  101162b0 f i libvcruntimed:undname.obj
 0002:000922e0       ?setIsComArray@DName@@QAEXXZ 101162e0 f i libvcruntimed:undname.obj
 0002:00092310       ?setIsNoTE@DName@@QAEXXZ   10116310 f i libvcruntimed:undname.obj
 0002:00092340       ?setIsPinPtr@DName@@QAEXXZ 10116340 f i libvcruntimed:undname.obj
 0002:00092370       ?setIsUDC@DName@@QAEXXZ    10116370 f i libvcruntimed:undname.obj
 0002:000923b0       ?setIsVCallThunk@DName@@QAEXXZ 101163b0 f i libvcruntimed:undname.obj
 0002:000923e0       ?setPtrRef@DName@@QAEAAV1@XZ 101163e0 f i libvcruntimed:undname.obj
 0002:00092410       ?status@DName@@QBE?AW4DNameStatus@@XZ 10116410 f i libvcruntimed:undname.obj
 0002:00092530       ___unDName                 10116530 f   libvcruntimed:undname.obj
 0002:00092630       ___unDNameEx               10116630 f   libvcruntimed:undname.obj
 0002:00092760       __get_unexpected           10116760 f   libvcruntimed:unexpected.obj
 0002:00092780       _set_unexpected            10116780 f   libvcruntimed:unexpected.obj
 0002:000927c0       _unexpected                101167c0 f   libvcruntimed:unexpected.obj
 0002:00092800       __global_unwind2           10116800 f   libvcruntimed:_exsup_.obj
 0002:00092865       __local_unwind2            10116865 f   libvcruntimed:_exsup_.obj
 0002:000928e9       __abnormal_termination     101168e9 f   libvcruntimed:_exsup_.obj
 0002:0009290c       __NLG_Notify1              1011690c f   libvcruntimed:_exsup_.obj
 0002:00092915       __NLG_Notify               10116915 f   libvcruntimed:_exsup_.obj
 0002:0009292c       __NLG_Dispatch             1011692c     libvcruntimed:_exsup_.obj
 0002:0009292c       __NLG_Dispatch2            1011692c     libvcruntimed:_exsup_.obj
 0002:00092934       __NLG_Call                 10116934 f   libvcruntimed:_exsup_.obj
 0002:00092936       __NLG_Return2              10116936     libvcruntimed:_exsup_.obj
 0002:00092990       ??$__crt_fast_decode_pointer@P6AXPB_W00II@Z@@YAP6AXPB_W00II@ZQ6AX000II@Z@Z 10116990 f i libucrtd:invalid_parameter.obj
 0002:000929d0       ??$__crt_fast_encode_pointer@P6AXPB_W00II@Z@@YAP6AXPB_W00II@ZQ6AX000II@Z@Z 101169d0 f i libucrtd:invalid_parameter.obj
 0002:00092a10       ??$initialize_from_array@$$BY00Q6AXPB_W00II@Z@?$dual_state_global@P6AXPB_W00II@Z@__crt_state_management@@QAAXAAY00Q6AXPB_W00II@Z@Z 10116a10 f i libucrtd:invalid_parameter.obj
 0002:00092a70       ?dangerous_get_state_array@?$dual_state_global@P6AXPB_W00II@Z@__crt_state_management@@QAEPAP6AXPB_W00II@ZXZ 10116a70 f i libucrtd:invalid_parameter.obj
 0002:00092a90       ?get_current_state_index@__crt_state_management@@YAIXZ 10116a90 f i libucrtd:invalid_parameter.obj
 0002:00092aa0       ?value@?$dual_state_global@P6AXPB_W00II@Z@__crt_state_management@@QAEAAP6AXPB_W00II@ZXZ 10116aa0 f i libucrtd:invalid_parameter.obj
 0002:00092ac0       ___acrt_call_reportfault   10116ac0 f   libucrtd:invalid_parameter.obj
 0002:00092c70       ___acrt_initialize_invalid_parameter_handler 10116c70 f   libucrtd:invalid_parameter.obj
 0002:00092ca0       __get_invalid_parameter_handler 10116ca0 f   libucrtd:invalid_parameter.obj
 0002:00092cd0       __get_thread_local_invalid_parameter_handler 10116cd0 f   libucrtd:invalid_parameter.obj
 0002:00092d00       __invalid_parameter        10116d00 f   libucrtd:invalid_parameter.obj
 0002:00092e00       __invalid_parameter_noinfo 10116e00 f   libucrtd:invalid_parameter.obj
 0002:00092e20       __invalid_parameter_noinfo_noreturn 10116e20 f   libucrtd:invalid_parameter.obj
 0002:00092e60       __invoke_watson            10116e60 f   libucrtd:invalid_parameter.obj
 0002:00092eb0       __set_invalid_parameter_handler 10116eb0 f   libucrtd:invalid_parameter.obj
 0002:00092f10       __set_thread_local_invalid_parameter_handler 10116f10 f   libucrtd:invalid_parameter.obj
 0002:00092f90       __get_terminate            10116f90 f   libucrtd:terminate.obj
 0002:00092fb0       _set_terminate             10116fb0 f   libucrtd:terminate.obj
 0002:00092ff0       _terminate                 10116ff0 f   libucrtd:terminate.obj
 0002:000930c0       ??$?RU?$__crt_report_hook_node@D@@@__crt_internal_free_policy@@QBEXQBU?$__crt_report_hook_node@D@@@Z 101170c0 f i libucrtd:dbgrpt.obj
 0002:000930f0       ??$?RU?$__crt_report_hook_node@_W@@@__crt_internal_free_policy@@QBEXQBU?$__crt_report_hook_node@_W@@@Z 101170f0 f i libucrtd:dbgrpt.obj
 0002:00093120       ??$?RV<lambda_39c757ba59d6ac35fb053df21e15f225>@@AAV<lambda_0e8d296f2015d00575aaed1fd344af09>@@V<lambda_6437917bd4515e197deeccd168d5d84f>@@@?$__crt_seh_guarded_call@H@@QAEH$$QAV<lambda_39c757ba59d6ac35fb053df21e15f225>@@AAV<lambda_0e8d296f2015d00575aaed1fd344af09>@@$$QAV<lambda_6437917bd4515e197deeccd168d5d84f>@@@Z 10117120 f i libucrtd:dbgrpt.obj
 0002:000931d0       ??$?RV<lambda_636fb9b48025d66c2559a49a493587d5>@@AAV<lambda_c8faeb264fdcc4f3901f0705ce773d88>@@V<lambda_dced16f8255fcb5c10431ec2cadde238>@@@?$__crt_seh_guarded_call@H@@QAEH$$QAV<lambda_636fb9b48025d66c2559a49a493587d5>@@AAV<lambda_c8faeb264fdcc4f3901f0705ce773d88>@@$$QAV<lambda_dced16f8255fcb5c10431ec2cadde238>@@@Z 101171d0 f i libucrtd:dbgrpt.obj
 0002:00093280       ??$__acrt_lock_and_call@V<lambda_0e8d296f2015d00575aaed1fd344af09>@@@@YAHW4__acrt_lock_id@@$$QAV<lambda_0e8d296f2015d00575aaed1fd344af09>@@@Z 10117280 f i libucrtd:dbgrpt.obj
 0002:000932c0       ??$__acrt_lock_and_call@V<lambda_c8faeb264fdcc4f3901f0705ce773d88>@@@@YAHW4__acrt_lock_id@@$$QAV<lambda_c8faeb264fdcc4f3901f0705ce773d88>@@@Z 101172c0 f i libucrtd:dbgrpt.obj
 0002:000941f0       ??$get_module_file_name@AAPAUHINSTANCE__@@AAY0BAF@DK@?$__crt_char_traits@D@@SAKAAPAUHINSTANCE__@@AAY0BAF@D$$QAK@Z 101181f0 f i libucrtd:dbgrpt.obj
 0002:00094220       ??$get_module_file_name@AAPAUHINSTANCE__@@AAY0BAF@_WK@?$__crt_char_traits@_W@@SAKAAPAUHINSTANCE__@@AAY0BAF@_W$$QAK@Z 10118220 f i libucrtd:dbgrpt.obj
 0002:00094250       ??$tcscpy_s@AAY0BAF@DIPBD@?$__crt_char_traits@D@@SAHAAY0BAF@D$$QAI$$QAPBD@Z 10118250 f i libucrtd:dbgrpt.obj
 0002:00094280       ??$tcscpy_s@AAY0BAF@_WIPB_W@?$__crt_char_traits@_W@@SAHAAY0BAF@_W$$QAI$$QAPB_W@Z 10118280 f i libucrtd:dbgrpt.obj
 0002:000942b0       ??$tcslen@AAY0BAF@D@?$__crt_char_traits@D@@SAIAAY0BAF@D@Z 101182b0 f i libucrtd:dbgrpt.obj
 0002:000942d0       ??$tcslen@AAY0BAF@_W@?$__crt_char_traits@_W@@SAIAAY0BAF@_W@Z 101182d0 f i libucrtd:dbgrpt.obj
 0002:000942f0       ??$tcslen@ABQBD@?$__crt_char_traits@D@@SAIABQBD@Z 101182f0 f i libucrtd:dbgrpt.obj
 0002:00094310       ??$tcslen@ABQB_W@?$__crt_char_traits@_W@@SAIABQB_W@Z 10118310 f i libucrtd:dbgrpt.obj
 0002:00094450       ??0?$__crt_unique_heap_ptr@U?$__crt_report_hook_node@D@@U__crt_internal_free_policy@@@@QAE@QAU?$__crt_report_hook_node@D@@@Z 10118450 f i libucrtd:dbgrpt.obj
 0002:00094470       ??0?$__crt_unique_heap_ptr@U?$__crt_report_hook_node@_W@@U__crt_internal_free_policy@@@@QAE@QAU?$__crt_report_hook_node@_W@@@Z 10118470 f i libucrtd:dbgrpt.obj
 0002:00094490       ??1?$__crt_unique_heap_ptr@U?$__crt_report_hook_node@D@@U__crt_internal_free_policy@@@@QAE@XZ 10118490 f i libucrtd:dbgrpt.obj
 0002:000944b0       ??1?$__crt_unique_heap_ptr@U?$__crt_report_hook_node@_W@@U__crt_internal_free_policy@@@@QAE@XZ 101184b0 f i libucrtd:dbgrpt.obj
 0002:000944d0       ??B?$__crt_unique_heap_ptr@U?$__crt_report_hook_node@D@@U__crt_internal_free_policy@@@@QBE_NXZ 101184d0 f i libucrtd:dbgrpt.obj
 0002:000944f0       ??B?$__crt_unique_heap_ptr@U?$__crt_report_hook_node@_W@@U__crt_internal_free_policy@@@@QBE_NXZ 101184f0 f i libucrtd:dbgrpt.obj
 0002:00094b90       ?detach@?$__crt_unique_heap_ptr@U?$__crt_report_hook_node@D@@U__crt_internal_free_policy@@@@QAEPAU?$__crt_report_hook_node@D@@XZ 10118b90 f i libucrtd:dbgrpt.obj
 0002:00094bc0       ?detach@?$__crt_unique_heap_ptr@U?$__crt_report_hook_node@_W@@U__crt_internal_free_policy@@@@QAEPAU?$__crt_report_hook_node@_W@@XZ 10118bc0 f i libucrtd:dbgrpt.obj
 0002:00094bf0       ?get@?$__crt_unique_heap_ptr@U?$__crt_report_hook_node@D@@U__crt_internal_free_policy@@@@QBEPAU?$__crt_report_hook_node@D@@XZ 10118bf0 f i libucrtd:dbgrpt.obj
 0002:00094c10       ?get@?$__crt_unique_heap_ptr@U?$__crt_report_hook_node@_W@@U__crt_internal_free_policy@@@@QBEPAU?$__crt_report_hook_node@_W@@XZ 10118c10 f i libucrtd:dbgrpt.obj
 0002:00094c90       ?is_valid@?$__crt_unique_heap_ptr@U?$__crt_report_hook_node@D@@U__crt_internal_free_policy@@@@QBE_NXZ 10118c90 f i libucrtd:dbgrpt.obj
 0002:00094cd0       ?is_valid@?$__crt_unique_heap_ptr@U?$__crt_report_hook_node@_W@@U__crt_internal_free_policy@@@@QBE_NXZ 10118cd0 f i libucrtd:dbgrpt.obj
 0002:00094d10       ?release@?$__crt_unique_heap_ptr@U?$__crt_report_hook_node@D@@U__crt_internal_free_policy@@@@QAEXXZ 10118d10 f i libucrtd:dbgrpt.obj
 0002:00094d40       ?release@?$__crt_unique_heap_ptr@U?$__crt_report_hook_node@_W@@U__crt_internal_free_policy@@@@QAEXXZ 10118d40 f i libucrtd:dbgrpt.obj
 0002:00094d70       __CrtDbgReport             10118d70 f   libucrtd:dbgrpt.obj
 0002:00094dd0       __CrtDbgReportW            10118dd0 f   libucrtd:dbgrpt.obj
 0002:00094e30       __CrtSetReportHook2        10118e30 f   libucrtd:dbgrpt.obj
 0002:00094e50       __CrtSetReportHookW2       10118e50 f   libucrtd:dbgrpt.obj
 0002:00094e70       ___acrt_MessageWindowA     10118e70 f   libucrtd:dbgrpt.obj
 0002:00094ea0       ___acrt_MessageWindowW     10118ea0 f   libucrtd:dbgrpt.obj
 0002:00094ed0       __invoke_watson_if_error   10118ed0 f i libucrtd:dbgrpt.obj
 0002:00094f10       __invoke_watson_if_oneof   10118f10 f i libucrtd:dbgrpt.obj
 0002:00094f60       __snwprintf_s              10118f60 f i libucrtd:dbgrpt.obj
 0002:00094fc0       __vsnwprintf_s_l           10118fc0 f i libucrtd:dbgrpt.obj
 0002:00095030       _strlen                    10119030 f   libucrtd:strlen.obj
 0002:000950e0       ??$?0ABV?$stream_output_adapter@D@__crt_stdio_output@@AB_KABQBDABQAU__crt_locale_pointers@@ABQAD@?$format_validation_base@DV?$stream_output_adapter@D@__crt_stdio_output@@@__crt_stdio_output@@IAE@ABV?$stream_output_adapter@D@1@AB_KABQBDABQAU__crt_locale_pointers@@ABQAD@Z 101190e0 f i libucrtd:output.obj
 0002:00095120       ??$?0ABV?$stream_output_adapter@D@__crt_stdio_output@@AB_KABQBDABQAU__crt_locale_pointers@@ABQAD@?$positional_parameter_base@DV?$stream_output_adapter@D@__crt_stdio_output@@@__crt_stdio_output@@IAE@ABV?$stream_output_adapter@D@1@AB_KABQBDABQAU__crt_locale_pointers@@ABQAD@Z 10119120 f i libucrtd:output.obj
 0002:000951b0       ??$?0ABV?$stream_output_adapter@D@__crt_stdio_output@@AB_KABQBDABQAU__crt_locale_pointers@@ABQAD@?$standard_base@DV?$stream_output_adapter@D@__crt_stdio_output@@@__crt_stdio_output@@IAE@ABV?$stream_output_adapter@D@1@AB_KABQBDABQAU__crt_locale_pointers@@ABQAD@Z 101191b0 f i libucrtd:output.obj
 0002:00095210       ??$?0ABV?$stream_output_adapter@_W@__crt_stdio_output@@AB_KABQB_WABQAU__crt_locale_pointers@@ABQAD@?$format_validation_base@_WV?$stream_output_adapter@_W@__crt_stdio_output@@@__crt_stdio_output@@IAE@ABV?$stream_output_adapter@_W@1@AB_KABQB_WABQAU__crt_locale_pointers@@ABQAD@Z 10119210 f i libucrtd:output.obj
 0002:00095250       ??$?0ABV?$stream_output_adapter@_W@__crt_stdio_output@@AB_KABQB_WABQAU__crt_locale_pointers@@ABQAD@?$positional_parameter_base@_WV?$stream_output_adapter@_W@__crt_stdio_output@@@__crt_stdio_output@@IAE@ABV?$stream_output_adapter@_W@1@AB_KABQB_WABQAU__crt_locale_pointers@@ABQAD@Z 10119250 f i libucrtd:output.obj
 0002:000952e0       ??$?0ABV?$stream_output_adapter@_W@__crt_stdio_output@@AB_KABQB_WABQAU__crt_locale_pointers@@ABQAD@?$standard_base@_WV?$stream_output_adapter@_W@__crt_stdio_output@@@__crt_stdio_output@@IAE@ABV?$stream_output_adapter@_W@1@AB_KABQB_WABQAU__crt_locale_pointers@@ABQAD@Z 101192e0 f i libucrtd:output.obj
 0002:00095340       ??$?0ABV?$string_output_adapter@D@__crt_stdio_output@@AB_KABQBDABQAU__crt_locale_pointers@@ABQAD@?$format_validation_base@DV?$string_output_adapter@D@__crt_stdio_output@@@__crt_stdio_output@@IAE@ABV?$string_output_adapter@D@1@AB_KABQBDABQAU__crt_locale_pointers@@ABQAD@Z 10119340 f i libucrtd:output.obj
 0002:00095380       ??$?0ABV?$string_output_adapter@D@__crt_stdio_output@@AB_KABQBDABQAU__crt_locale_pointers@@ABQAD@?$positional_parameter_base@DV?$string_output_adapter@D@__crt_stdio_output@@@__crt_stdio_output@@IAE@ABV?$string_output_adapter@D@1@AB_KABQBDABQAU__crt_locale_pointers@@ABQAD@Z 10119380 f i libucrtd:output.obj
 0002:00095410       ??$?0ABV?$string_output_adapter@D@__crt_stdio_output@@AB_KABQBDABQAU__crt_locale_pointers@@ABQAD@?$standard_base@DV?$string_output_adapter@D@__crt_stdio_output@@@__crt_stdio_output@@IAE@ABV?$string_output_adapter@D@1@AB_KABQBDABQAU__crt_locale_pointers@@ABQAD@Z 10119410 f i libucrtd:output.obj
 0002:00095470       ??$?0ABV?$string_output_adapter@_W@__crt_stdio_output@@AB_KABQB_WABQAU__crt_locale_pointers@@ABQAD@?$format_validation_base@_WV?$string_output_adapter@_W@__crt_stdio_output@@@__crt_stdio_output@@IAE@ABV?$string_output_adapter@_W@1@AB_KABQB_WABQAU__crt_locale_pointers@@ABQAD@Z 10119470 f i libucrtd:output.obj
 0002:000954b0       ??$?0ABV?$string_output_adapter@_W@__crt_stdio_output@@AB_KABQB_WABQAU__crt_locale_pointers@@ABQAD@?$positional_parameter_base@_WV?$string_output_adapter@_W@__crt_stdio_output@@@__crt_stdio_output@@IAE@ABV?$string_output_adapter@_W@1@AB_KABQB_WABQAU__crt_locale_pointers@@ABQAD@Z 101194b0 f i libucrtd:output.obj
 0002:00095540       ??$?0ABV?$string_output_adapter@_W@__crt_stdio_output@@AB_KABQB_WABQAU__crt_locale_pointers@@ABQAD@?$standard_base@_WV?$string_output_adapter@_W@__crt_stdio_output@@@__crt_stdio_output@@IAE@ABV?$string_output_adapter@_W@1@AB_KABQB_WABQAU__crt_locale_pointers@@ABQAD@Z 10119540 f i libucrtd:output.obj
 0002:000955a0       ??$?RV<lambda_3a2a6cca1b0f7007a3db339dcecd1562>@@AAV<lambda_e38011a3ba6e07c7dbcef4d549f26102>@@V<lambda_b2332a2b562101f3c3c34baab19e0511>@@@?$__crt_seh_guarded_call@H@@QAEH$$QAV<lambda_3a2a6cca1b0f7007a3db339dcecd1562>@@AAV<lambda_e38011a3ba6e07c7dbcef4d549f26102>@@$$QAV<lambda_b2332a2b562101f3c3c34baab19e0511>@@@Z 101195a0 f i libucrtd:output.obj
 0002:00095650       ??$?RV<lambda_75d23329f2fb3d02b2e1cf5509bb1caf>@@AAV<lambda_c4f131f91cb4ec00a5b0a26aa161b8b4>@@V<lambda_114dc79c86b00c313cb0b6b3b001aaf8>@@@?$__crt_seh_guarded_call@H@@QAEH$$QAV<lambda_75d23329f2fb3d02b2e1cf5509bb1caf>@@AAV<lambda_c4f131f91cb4ec00a5b0a26aa161b8b4>@@$$QAV<lambda_114dc79c86b00c313cb0b6b3b001aaf8>@@@Z 10119650 f i libucrtd:output.obj
 0002:00095700       ??$?RV<lambda_80d7abc6eae2375db70be92ccaaf9b57>@@AAV<lambda_df52180bf14694d51fdefd82613e8f07>@@V<lambda_4fa1155033dff2042363dba4e2dc3802>@@@?$__crt_seh_guarded_call@H@@QAEH$$QAV<lambda_80d7abc6eae2375db70be92ccaaf9b57>@@AAV<lambda_df52180bf14694d51fdefd82613e8f07>@@$$QAV<lambda_4fa1155033dff2042363dba4e2dc3802>@@@Z 10119700 f i libucrtd:output.obj
 0002:000957b0       ??$?RV<lambda_b4329732a1a72698597872ef534ad66d>@@AAV<lambda_96392db5b14a27f72535a2156da24b09>@@V<lambda_0f47277b42e3e84c3311fed419af0b3c>@@@?$__crt_seh_guarded_call@H@@QAEH$$QAV<lambda_b4329732a1a72698597872ef534ad66d>@@AAV<lambda_96392db5b14a27f72535a2156da24b09>@@$$QAV<lambda_0f47277b42e3e84c3311fed419af0b3c>@@@Z 101197b0 f i libucrtd:output.obj
 0002:00095860       ??$?RV<lambda_b7f50223258ab9fcc98080d45d02b1a4>@@AAV<lambda_42506531d319a600ce771deb5a236a10>@@V<lambda_31f843250ba6188c6e1f35d2bec6db0e>@@@?$__crt_seh_guarded_call@H@@QAEH$$QAV<lambda_b7f50223258ab9fcc98080d45d02b1a4>@@AAV<lambda_42506531d319a600ce771deb5a236a10>@@$$QAV<lambda_31f843250ba6188c6e1f35d2bec6db0e>@@@Z 10119860 f i libucrtd:output.obj
 0002:00095910       ??$?RV<lambda_cc35d49d909def412005bd38ddc96b77>@@AAV<lambda_d6a382b8dd98a6801a8abd6c28bdff2d>@@V<lambda_148068cfb9786d9714740654406e93d5>@@@?$__crt_seh_guarded_call@H@@QAEH$$QAV<lambda_cc35d49d909def412005bd38ddc96b77>@@AAV<lambda_d6a382b8dd98a6801a8abd6c28bdff2d>@@$$QAV<lambda_148068cfb9786d9714740654406e93d5>@@@Z 10119910 f i libucrtd:output.obj
 0002:000959c0       ??$__acrt_lock_stream_and_call@V<lambda_42506531d319a600ce771deb5a236a10>@@@@YAHQAU_iobuf@@$$QAV<lambda_42506531d319a600ce771deb5a236a10>@@@Z 101199c0 f i libucrtd:output.obj
 0002:00095a00       ??$__acrt_lock_stream_and_call@V<lambda_96392db5b14a27f72535a2156da24b09>@@@@YAHQAU_iobuf@@$$QAV<lambda_96392db5b14a27f72535a2156da24b09>@@@Z 10119a00 f i libucrtd:output.obj
 0002:00095a40       ??$__acrt_lock_stream_and_call@V<lambda_c4f131f91cb4ec00a5b0a26aa161b8b4>@@@@YAHQAU_iobuf@@$$QAV<lambda_c4f131f91cb4ec00a5b0a26aa161b8b4>@@@Z 10119a40 f i libucrtd:output.obj
 0002:00095a80       ??$__acrt_lock_stream_and_call@V<lambda_d6a382b8dd98a6801a8abd6c28bdff2d>@@@@YAHQAU_iobuf@@$$QAV<lambda_d6a382b8dd98a6801a8abd6c28bdff2d>@@@Z 10119a80 f i libucrtd:output.obj
 0002:00095ac0       ??$__acrt_lock_stream_and_call@V<lambda_df52180bf14694d51fdefd82613e8f07>@@@@YAHQAU_iobuf@@$$QAV<lambda_df52180bf14694d51fdefd82613e8f07>@@@Z 10119ac0 f i libucrtd:output.obj
 0002:00095b00       ??$__acrt_lock_stream_and_call@V<lambda_e38011a3ba6e07c7dbcef4d549f26102>@@@@YAHQAU_iobuf@@$$QAV<lambda_e38011a3ba6e07c7dbcef4d549f26102>@@@Z 10119b00 f i libucrtd:output.obj
 0002:00095b40       ??$__crt_interlocked_read@J@@YAJPDJ@Z 10119b40 f i libucrtd:output.obj
 0002:000993e0       ??$count@D@formatting_buffer@__crt_stdio_output@@QBEIXZ 1011d3e0 f i libucrtd:output.obj
 0002:00099430       ??$count@_W@formatting_buffer@__crt_stdio_output@@QBEIXZ 1011d430 f i libucrtd:output.obj
 0002:00099480       ??$data@D@formatting_buffer@__crt_stdio_output@@QAEPADXZ 1011d480 f i libucrtd:output.obj
 0002:000994d0       ??$data@_W@formatting_buffer@__crt_stdio_output@@QAEPA_WXZ 1011d4d0 f i libucrtd:output.obj
 0002:00099520       ??$ensure_buffer_is_big_enough@D@formatting_buffer@__crt_stdio_output@@QAE_NI@Z 1011d520 f i libucrtd:output.obj
 0002:00099640       ??$extract_argument_from_va_list@C_J@?$positional_parameter_base@DV?$stream_output_adapter@D@__crt_stdio_output@@@__crt_stdio_output@@IAE_NAA_J@Z 1011d640 f i libucrtd:output.obj
 0002:000997c0       ??$extract_argument_from_va_list@C_J@?$positional_parameter_base@DV?$string_output_adapter@D@__crt_stdio_output@@@__crt_stdio_output@@IAE_NAA_J@Z 1011d7c0 f i libucrtd:output.obj
 0002:00099940       ??$extract_argument_from_va_list@C_J@?$positional_parameter_base@_WV?$stream_output_adapter@_W@__crt_stdio_output@@@__crt_stdio_output@@IAE_NAA_J@Z 1011d940 f i libucrtd:output.obj
 0002:00099ac0       ??$extract_argument_from_va_list@C_J@?$positional_parameter_base@_WV?$string_output_adapter@_W@__crt_stdio_output@@@__crt_stdio_output@@IAE_NAA_J@Z 1011dac0 f i libucrtd:output.obj
 0002:00099c40       ??$extract_argument_from_va_list@C_J@?$standard_base@DV?$stream_output_adapter@D@__crt_stdio_output@@@__crt_stdio_output@@IAE_NAA_J@Z 1011dc40 f i libucrtd:output.obj
 0002:00099c80       ??$extract_argument_from_va_list@C_J@?$standard_base@DV?$string_output_adapter@D@__crt_stdio_output@@@__crt_stdio_output@@IAE_NAA_J@Z 1011dc80 f i libucrtd:output.obj
 0002:00099cc0       ??$extract_argument_from_va_list@C_J@?$standard_base@_WV?$stream_output_adapter@_W@__crt_stdio_output@@@__crt_stdio_output@@IAE_NAA_J@Z 1011dcc0 f i libucrtd:output.obj
 0002:00099d00       ??$extract_argument_from_va_list@C_J@?$standard_base@_WV?$string_output_adapter@_W@__crt_stdio_output@@@__crt_stdio_output@@IAE_NAA_J@Z 1011dd00 f i libucrtd:output.obj
 0002:00099d40       ??$extract_argument_from_va_list@E_J@?$positional_parameter_base@DV?$stream_output_adapter@D@__crt_stdio_output@@@__crt_stdio_output@@IAE_NAA_J@Z 1011dd40 f i libucrtd:output.obj
 0002:00099ec0       ??$extract_argument_from_va_list@E_J@?$positional_parameter_base@DV?$string_output_adapter@D@__crt_stdio_output@@@__crt_stdio_output@@IAE_NAA_J@Z 1011dec0 f i libucrtd:output.obj
 0002:0009a040       ??$extract_argument_from_va_list@E_J@?$positional_parameter_base@_WV?$stream_output_adapter@_W@__crt_stdio_output@@@__crt_stdio_output@@IAE_NAA_J@Z 1011e040 f i libucrtd:output.obj
 0002:0009a1c0       ??$extract_argument_from_va_list@E_J@?$positional_parameter_base@_WV?$string_output_adapter@_W@__crt_stdio_output@@@__crt_stdio_output@@IAE_NAA_J@Z 1011e1c0 f i libucrtd:output.obj
 0002:0009a340       ??$extract_argument_from_va_list@E_J@?$standard_base@DV?$stream_output_adapter@D@__crt_stdio_output@@@__crt_stdio_output@@IAE_NAA_J@Z 1011e340 f i libucrtd:output.obj
 0002:0009a380       ??$extract_argument_from_va_list@E_J@?$standard_base@DV?$string_output_adapter@D@__crt_stdio_output@@@__crt_stdio_output@@IAE_NAA_J@Z 1011e380 f i libucrtd:output.obj
 0002:0009a3c0       ??$extract_argument_from_va_list@E_J@?$standard_base@_WV?$stream_output_adapter@_W@__crt_stdio_output@@@__crt_stdio_output@@IAE_NAA_J@Z 1011e3c0 f i libucrtd:output.obj
 0002:0009a400       ??$extract_argument_from_va_list@E_J@?$standard_base@_WV?$string_output_adapter@_W@__crt_stdio_output@@@__crt_stdio_output@@IAE_NAA_J@Z 1011e400 f i libucrtd:output.obj
 0002:0009a440       ??$extract_argument_from_va_list@F_J@?$positional_parameter_base@DV?$stream_output_adapter@D@__crt_stdio_output@@@__crt_stdio_output@@IAE_NAA_J@Z 1011e440 f i libucrtd:output.obj
 0002:0009a5c0       ??$extract_argument_from_va_list@F_J@?$positional_parameter_base@DV?$string_output_adapter@D@__crt_stdio_output@@@__crt_stdio_output@@IAE_NAA_J@Z 1011e5c0 f i libucrtd:output.obj
 0002:0009a740       ??$extract_argument_from_va_list@F_J@?$positional_parameter_base@_WV?$stream_output_adapter@_W@__crt_stdio_output@@@__crt_stdio_output@@IAE_NAA_J@Z 1011e740 f i libucrtd:output.obj
 0002:0009a8c0       ??$extract_argument_from_va_list@F_J@?$positional_parameter_base@_WV?$string_output_adapter@_W@__crt_stdio_output@@@__crt_stdio_output@@IAE_NAA_J@Z 1011e8c0 f i libucrtd:output.obj
 0002:0009aa40       ??$extract_argument_from_va_list@F_J@?$standard_base@DV?$stream_output_adapter@D@__crt_stdio_output@@@__crt_stdio_output@@IAE_NAA_J@Z 1011ea40 f i libucrtd:output.obj
 0002:0009aa80       ??$extract_argument_from_va_list@F_J@?$standard_base@DV?$string_output_adapter@D@__crt_stdio_output@@@__crt_stdio_output@@IAE_NAA_J@Z 1011ea80 f i libucrtd:output.obj
 0002:0009aac0       ??$extract_argument_from_va_list@F_J@?$standard_base@_WV?$stream_output_adapter@_W@__crt_stdio_output@@@__crt_stdio_output@@IAE_NAA_J@Z 1011eac0 f i libucrtd:output.obj
 0002:0009ab00       ??$extract_argument_from_va_list@F_J@?$standard_base@_WV?$string_output_adapter@_W@__crt_stdio_output@@@__crt_stdio_output@@IAE_NAA_J@Z 1011eb00 f i libucrtd:output.obj
 0002:0009ab40       ??$extract_argument_from_va_list@GD@?$positional_parameter_base@DV?$stream_output_adapter@D@__crt_stdio_output@@@__crt_stdio_output@@IAE_NAAD@Z 1011eb40 f i libucrtd:output.obj
 0002:0009acc0       ??$extract_argument_from_va_list@GD@?$positional_parameter_base@DV?$string_output_adapter@D@__crt_stdio_output@@@__crt_stdio_output@@IAE_NAAD@Z 1011ecc0 f i libucrtd:output.obj
 0002:0009ae40       ??$extract_argument_from_va_list@GD@?$standard_base@DV?$stream_output_adapter@D@__crt_stdio_output@@@__crt_stdio_output@@IAE_NAAD@Z 1011ee40 f i libucrtd:output.obj
 0002:0009ae70       ??$extract_argument_from_va_list@GD@?$standard_base@DV?$string_output_adapter@D@__crt_stdio_output@@@__crt_stdio_output@@IAE_NAAD@Z 1011ee70 f i libucrtd:output.obj
 0002:0009aea0       ??$extract_argument_from_va_list@G_J@?$positional_parameter_base@DV?$stream_output_adapter@D@__crt_stdio_output@@@__crt_stdio_output@@IAE_NAA_J@Z 1011eea0 f i libucrtd:output.obj
 0002:0009b020       ??$extract_argument_from_va_list@G_J@?$positional_parameter_base@DV?$string_output_adapter@D@__crt_stdio_output@@@__crt_stdio_output@@IAE_NAA_J@Z 1011f020 f i libucrtd:output.obj
 0002:0009b1a0       ??$extract_argument_from_va_list@G_J@?$positional_parameter_base@_WV?$stream_output_adapter@_W@__crt_stdio_output@@@__crt_stdio_output@@IAE_NAA_J@Z 1011f1a0 f i libucrtd:output.obj
 0002:0009b320       ??$extract_argument_from_va_list@G_J@?$positional_parameter_base@_WV?$string_output_adapter@_W@__crt_stdio_output@@@__crt_stdio_output@@IAE_NAA_J@Z 1011f320 f i libucrtd:output.obj
 0002:0009b4a0       ??$extract_argument_from_va_list@G_J@?$standard_base@DV?$stream_output_adapter@D@__crt_stdio_output@@@__crt_stdio_output@@IAE_NAA_J@Z 1011f4a0 f i libucrtd:output.obj
 0002:0009b4e0       ??$extract_argument_from_va_list@G_J@?$standard_base@DV?$string_output_adapter@D@__crt_stdio_output@@@__crt_stdio_output@@IAE_NAA_J@Z 1011f4e0 f i libucrtd:output.obj
 0002:0009b520       ??$extract_argument_from_va_list@G_J@?$standard_base@_WV?$stream_output_adapter@_W@__crt_stdio_output@@@__crt_stdio_output@@IAE_NAA_J@Z 1011f520 f i libucrtd:output.obj
 0002:0009b560       ??$extract_argument_from_va_list@G_J@?$standard_base@_WV?$string_output_adapter@_W@__crt_stdio_output@@@__crt_stdio_output@@IAE_NAA_J@Z 1011f560 f i libucrtd:output.obj
 0002:0009b5a0       ??$extract_argument_from_va_list@H_J@?$positional_parameter_base@DV?$stream_output_adapter@D@__crt_stdio_output@@@__crt_stdio_output@@IAE_NAA_J@Z 1011f5a0 f i libucrtd:output.obj
 0002:0009b720       ??$extract_argument_from_va_list@H_J@?$positional_parameter_base@DV?$string_output_adapter@D@__crt_stdio_output@@@__crt_stdio_output@@IAE_NAA_J@Z 1011f720 f i libucrtd:output.obj
 0002:0009b8a0       ??$extract_argument_from_va_list@H_J@?$positional_parameter_base@_WV?$stream_output_adapter@_W@__crt_stdio_output@@@__crt_stdio_output@@IAE_NAA_J@Z 1011f8a0 f i libucrtd:output.obj
 0002:0009ba20       ??$extract_argument_from_va_list@H_J@?$positional_parameter_base@_WV?$string_output_adapter@_W@__crt_stdio_output@@@__crt_stdio_output@@IAE_NAA_J@Z 1011fa20 f i libucrtd:output.obj
 0002:0009bba0       ??$extract_argument_from_va_list@H_J@?$standard_base@DV?$stream_output_adapter@D@__crt_stdio_output@@@__crt_stdio_output@@IAE_NAA_J@Z 1011fba0 f i libucrtd:output.obj
 0002:0009bbe0       ??$extract_argument_from_va_list@H_J@?$standard_base@DV?$string_output_adapter@D@__crt_stdio_output@@@__crt_stdio_output@@IAE_NAA_J@Z 1011fbe0 f i libucrtd:output.obj
 0002:0009bc20       ??$extract_argument_from_va_list@H_J@?$standard_base@_WV?$stream_output_adapter@_W@__crt_stdio_output@@@__crt_stdio_output@@IAE_NAA_J@Z 1011fc20 f i libucrtd:output.obj
 0002:0009bc60       ??$extract_argument_from_va_list@H_J@?$standard_base@_WV?$string_output_adapter@_W@__crt_stdio_output@@@__crt_stdio_output@@IAE_NAA_J@Z 1011fc60 f i libucrtd:output.obj
 0002:0009bca0       ??$extract_argument_from_va_list@I_J@?$positional_parameter_base@DV?$stream_output_adapter@D@__crt_stdio_output@@@__crt_stdio_output@@IAE_NAA_J@Z 1011fca0 f i libucrtd:output.obj
 0002:0009be20       ??$extract_argument_from_va_list@I_J@?$positional_parameter_base@DV?$string_output_adapter@D@__crt_stdio_output@@@__crt_stdio_output@@IAE_NAA_J@Z 1011fe20 f i libucrtd:output.obj
 0002:0009bfa0       ??$extract_argument_from_va_list@I_J@?$positional_parameter_base@_WV?$stream_output_adapter@_W@__crt_stdio_output@@@__crt_stdio_output@@IAE_NAA_J@Z 1011ffa0 f i libucrtd:output.obj
 0002:0009c120       ??$extract_argument_from_va_list@I_J@?$positional_parameter_base@_WV?$string_output_adapter@_W@__crt_stdio_output@@@__crt_stdio_output@@IAE_NAA_J@Z 10120120 f i libucrtd:output.obj
 0002:0009c2a0       ??$extract_argument_from_va_list@I_J@?$standard_base@DV?$stream_output_adapter@D@__crt_stdio_output@@@__crt_stdio_output@@IAE_NAA_J@Z 101202a0 f i libucrtd:output.obj
 0002:0009c2e0       ??$extract_argument_from_va_list@I_J@?$standard_base@DV?$string_output_adapter@D@__crt_stdio_output@@@__crt_stdio_output@@IAE_NAA_J@Z 101202e0 f i libucrtd:output.obj
 0002:0009c320       ??$extract_argument_from_va_list@I_J@?$standard_base@_WV?$stream_output_adapter@_W@__crt_stdio_output@@@__crt_stdio_output@@IAE_NAA_J@Z 10120320 f i libucrtd:output.obj
 0002:0009c360       ??$extract_argument_from_va_list@I_J@?$standard_base@_WV?$string_output_adapter@_W@__crt_stdio_output@@@__crt_stdio_output@@IAE_NAA_J@Z 10120360 f i libucrtd:output.obj
 0002:0009c3a0       ??$extract_argument_from_va_list@PADPAD@?$positional_parameter_base@DV?$stream_output_adapter@D@__crt_stdio_output@@@__crt_stdio_output@@IAE_NAAPAD@Z 101203a0 f i libucrtd:output.obj
 0002:0009c520       ??$extract_argument_from_va_list@PADPAD@?$positional_parameter_base@DV?$string_output_adapter@D@__crt_stdio_output@@@__crt_stdio_output@@IAE_NAAPAD@Z 10120520 f i libucrtd:output.obj
 0002:0009c6a0       ??$extract_argument_from_va_list@PADPAD@?$positional_parameter_base@_WV?$stream_output_adapter@_W@__crt_stdio_output@@@__crt_stdio_output@@IAE_NAAPAD@Z 101206a0 f i libucrtd:output.obj
 0002:0009c820       ??$extract_argument_from_va_list@PADPAD@?$positional_parameter_base@_WV?$string_output_adapter@_W@__crt_stdio_output@@@__crt_stdio_output@@IAE_NAAPAD@Z 10120820 f i libucrtd:output.obj
 0002:0009c9a0       ??$extract_argument_from_va_list@PADPAD@?$standard_base@DV?$stream_output_adapter@D@__crt_stdio_output@@@__crt_stdio_output@@IAE_NAAPAD@Z 101209a0 f i libucrtd:output.obj
 0002:0009c9d0       ??$extract_argument_from_va_list@PADPAD@?$standard_base@DV?$string_output_adapter@D@__crt_stdio_output@@@__crt_stdio_output@@IAE_NAAPAD@Z 101209d0 f i libucrtd:output.obj
 0002:0009ca00       ??$extract_argument_from_va_list@PADPAD@?$standard_base@_WV?$stream_output_adapter@_W@__crt_stdio_output@@@__crt_stdio_output@@IAE_NAAPAD@Z 10120a00 f i libucrtd:output.obj
 0002:0009ca30       ??$extract_argument_from_va_list@PADPAD@?$standard_base@_WV?$string_output_adapter@_W@__crt_stdio_output@@@__crt_stdio_output@@IAE_NAAPAD@Z 10120a30 f i libucrtd:output.obj
 0002:0009ca60       ??$extract_argument_from_va_list@PAUansi_string@?1??type_case_Z@?$output_processor@DV?$stream_output_adapter@D@__crt_stdio_output@@V?$format_validation_base@DV?$stream_output_adapter@D@__crt_stdio_output@@@2@@__crt_stdio_output@@AAE_NXZ@PAU1?1??234@AAE_NXZ@@?$standard_base@DV?$stream_output_adapter@D@__crt_stdio_output@@@__crt_stdio_output@@IAE_NAAPAUansi_string@?1??type_case_Z@?$output_processor@DV?$stream_output_adapter@D@__crt_stdio_output@@V?$format_validation_base@DV?$stream_output_adapter@D@__crt_stdio_output@@@2@@1@AAE_NXZ@@Z 10120a60 f i libucrtd:output.obj
 0002:0009ca90       ??$extract_argument_from_va_list@PAUansi_string@?1??type_case_Z@?$output_processor@DV?$stream_output_adapter@D@__crt_stdio_output@@V?$positional_parameter_base@DV?$stream_output_adapter@D@__crt_stdio_output@@@2@@__crt_stdio_output@@AAE_NXZ@PAU1?1??234@AAE_NXZ@@?$positional_parameter_base@DV?$stream_output_adapter@D@__crt_stdio_output@@@__crt_stdio_output@@IAE_NAAPAUansi_string@?1??type_case_Z@?$output_processor@DV?$stream_output_adapter@D@__crt_stdio_output@@V?$positional_parameter_base@DV?$stream_output_adapter@D@__crt_stdio_output@@@2@@1@AAE_NXZ@@Z 10120a90 f i libucrtd:output.obj
 0002:0009cc10       ??$extract_argument_from_va_list@PAUansi_string@?1??type_case_Z@?$output_processor@DV?$stream_output_adapter@D@__crt_stdio_output@@V?$positional_parameter_base@DV?$stream_output_adapter@D@__crt_stdio_output@@@2@@__crt_stdio_output@@AAE_NXZ@PAU1?1??234@AAE_NXZ@@?$standard_base@DV?$stream_output_adapter@D@__crt_stdio_output@@@__crt_stdio_output@@IAE_NAAPAUansi_string@?1??type_case_Z@?$output_processor@DV?$stream_output_adapter@D@__crt_stdio_output@@V?$positional_parameter_base@DV?$stream_output_adapter@D@__crt_stdio_output@@@2@@1@AAE_NXZ@@Z 10120c10 f i libucrtd:output.obj
 0002:0009cc40       ??$extract_argument_from_va_list@PAUansi_string@?1??type_case_Z@?$output_processor@DV?$stream_output_adapter@D@__crt_stdio_output@@V?$standard_base@DV?$stream_output_adapter@D@__crt_stdio_output@@@2@@__crt_stdio_output@@AAE_NXZ@PAU1?1??234@AAE_NXZ@@?$standard_base@DV?$stream_output_adapter@D@__crt_stdio_output@@@__crt_stdio_output@@IAE_NAAPAUansi_string@?1??type_case_Z@?$output_processor@DV?$stream_output_adapter@D@__crt_stdio_output@@V?$standard_base@DV?$stream_output_adapter@D@__crt_stdio_output@@@2@@1@AAE_NXZ@@Z 10120c40 f i libucrtd:output.obj
 0002:0009cc70       ??$extract_argument_from_va_list@PAUansi_string@?1??type_case_Z@?$output_processor@DV?$string_output_adapter@D@__crt_stdio_output@@V?$format_validation_base@DV?$string_output_adapter@D@__crt_stdio_output@@@2@@__crt_stdio_output@@AAE_NXZ@PAU1?1??234@AAE_NXZ@@?$standard_base@DV?$string_output_adapter@D@__crt_stdio_output@@@__crt_stdio_output@@IAE_NAAPAUansi_string@?1??type_case_Z@?$output_processor@DV?$string_output_adapter@D@__crt_stdio_output@@V?$format_validation_base@DV?$string_output_adapter@D@__crt_stdio_output@@@2@@1@AAE_NXZ@@Z 10120c70 f i libucrtd:output.obj
 0002:0009cca0       ??$extract_argument_from_va_list@PAUansi_string@?1??type_case_Z@?$output_processor@DV?$string_output_adapter@D@__crt_stdio_output@@V?$positional_parameter_base@DV?$string_output_adapter@D@__crt_stdio_output@@@2@@__crt_stdio_output@@AAE_NXZ@PAU1?1??234@AAE_NXZ@@?$positional_parameter_base@DV?$string_output_adapter@D@__crt_stdio_output@@@__crt_stdio_output@@IAE_NAAPAUansi_string@?1??type_case_Z@?$output_processor@DV?$string_output_adapter@D@__crt_stdio_output@@V?$positional_parameter_base@DV?$string_output_adapter@D@__crt_stdio_output@@@2@@1@AAE_NXZ@@Z 10120ca0 f i libucrtd:output.obj
 0002:0009ce20       ??$extract_argument_from_va_list@PAUansi_string@?1??type_case_Z@?$output_processor@DV?$string_output_adapter@D@__crt_stdio_output@@V?$positional_parameter_base@DV?$string_output_adapter@D@__crt_stdio_output@@@2@@__crt_stdio_output@@AAE_NXZ@PAU1?1??234@AAE_NXZ@@?$standard_base@DV?$string_output_adapter@D@__crt_stdio_output@@@__crt_stdio_output@@IAE_NAAPAUansi_string@?1??type_case_Z@?$output_processor@DV?$string_output_adapter@D@__crt_stdio_output@@V?$positional_parameter_base@DV?$string_output_adapter@D@__crt_stdio_output@@@2@@1@AAE_NXZ@@Z 10120e20 f i libucrtd:output.obj
 0002:0009ce50       ??$extract_argument_from_va_list@PAUansi_string@?1??type_case_Z@?$output_processor@DV?$string_output_adapter@D@__crt_stdio_output@@V?$standard_base@DV?$string_output_adapter@D@__crt_stdio_output@@@2@@__crt_stdio_output@@AAE_NXZ@PAU1?1??234@AAE_NXZ@@?$standard_base@DV?$string_output_adapter@D@__crt_stdio_output@@@__crt_stdio_output@@IAE_NAAPAUansi_string@?1??type_case_Z@?$output_processor@DV?$string_output_adapter@D@__crt_stdio_output@@V?$standard_base@DV?$string_output_adapter@D@__crt_stdio_output@@@2@@1@AAE_NXZ@@Z 10120e50 f i libucrtd:output.obj
 0002:0009ce80       ??$extract_argument_from_va_list@PAUansi_string@?1??type_case_Z@?$output_processor@_WV?$stream_output_adapter@_W@__crt_stdio_output@@V?$format_validation_base@_WV?$stream_output_adapter@_W@__crt_stdio_output@@@2@@__crt_stdio_output@@AAE_NXZ@PAU1?1??234@AAE_NXZ@@?$standard_base@_WV?$stream_output_adapter@_W@__crt_stdio_output@@@__crt_stdio_output@@IAE_NAAPAUansi_string@?1??type_case_Z@?$output_processor@_WV?$stream_output_adapter@_W@__crt_stdio_output@@V?$format_validation_base@_WV?$stream_output_adapter@_W@__crt_stdio_output@@@2@@1@AAE_NXZ@@Z 10120e80 f i libucrtd:output.obj
 0002:0009ceb0       ??$extract_argument_from_va_list@PAUansi_string@?1??type_case_Z@?$output_processor@_WV?$stream_output_adapter@_W@__crt_stdio_output@@V?$positional_parameter_base@_WV?$stream_output_adapter@_W@__crt_stdio_output@@@2@@__crt_stdio_output@@AAE_NXZ@PAU1?1??234@AAE_NXZ@@?$positional_parameter_base@_WV?$stream_output_adapter@_W@__crt_stdio_output@@@__crt_stdio_output@@IAE_NAAPAUansi_string@?1??type_case_Z@?$output_processor@_WV?$stream_output_adapter@_W@__crt_stdio_output@@V?$positional_parameter_base@_WV?$stream_output_adapter@_W@__crt_stdio_output@@@2@@1@AAE_NXZ@@Z 10120eb0 f i libucrtd:output.obj
 0002:0009d030       ??$extract_argument_from_va_list@PAUansi_string@?1??type_case_Z@?$output_processor@_WV?$stream_output_adapter@_W@__crt_stdio_output@@V?$positional_parameter_base@_WV?$stream_output_adapter@_W@__crt_stdio_output@@@2@@__crt_stdio_output@@AAE_NXZ@PAU1?1??234@AAE_NXZ@@?$standard_base@_WV?$stream_output_adapter@_W@__crt_stdio_output@@@__crt_stdio_output@@IAE_NAAPAUansi_string@?1??type_case_Z@?$output_processor@_WV?$stream_output_adapter@_W@__crt_stdio_output@@V?$positional_parameter_base@_WV?$stream_output_adapter@_W@__crt_stdio_output@@@2@@1@AAE_NXZ@@Z 10121030 f i libucrtd:output.obj
 0002:0009d060       ??$extract_argument_from_va_list@PAUansi_string@?1??type_case_Z@?$output_processor@_WV?$stream_output_adapter@_W@__crt_stdio_output@@V?$standard_base@_WV?$stream_output_adapter@_W@__crt_stdio_output@@@2@@__crt_stdio_output@@AAE_NXZ@PAU1?1??234@AAE_NXZ@@?$standard_base@_WV?$stream_output_adapter@_W@__crt_stdio_output@@@__crt_stdio_output@@IAE_NAAPAUansi_string@?1??type_case_Z@?$output_processor@_WV?$stream_output_adapter@_W@__crt_stdio_output@@V?$standard_base@_WV?$stream_output_adapter@_W@__crt_stdio_output@@@2@@1@AAE_NXZ@@Z 10121060 f i libucrtd:output.obj
 0002:0009d090       ??$extract_argument_from_va_list@PAUansi_string@?1??type_case_Z@?$output_processor@_WV?$string_output_adapter@_W@__crt_stdio_output@@V?$format_validation_base@_WV?$string_output_adapter@_W@__crt_stdio_output@@@2@@__crt_stdio_output@@AAE_NXZ@PAU1?1??234@AAE_NXZ@@?$standard_base@_WV?$string_output_adapter@_W@__crt_stdio_output@@@__crt_stdio_output@@IAE_NAAPAUansi_string@?1??type_case_Z@?$output_processor@_WV?$string_output_adapter@_W@__crt_stdio_output@@V?$format_validation_base@_WV?$string_output_adapter@_W@__crt_stdio_output@@@2@@1@AAE_NXZ@@Z 10121090 f i libucrtd:output.obj
 0002:0009d0c0       ??$extract_argument_from_va_list@PAUansi_string@?1??type_case_Z@?$output_processor@_WV?$string_output_adapter@_W@__crt_stdio_output@@V?$positional_parameter_base@_WV?$string_output_adapter@_W@__crt_stdio_output@@@2@@__crt_stdio_output@@AAE_NXZ@PAU1?1??234@AAE_NXZ@@?$positional_parameter_base@_WV?$string_output_adapter@_W@__crt_stdio_output@@@__crt_stdio_output@@IAE_NAAPAUansi_string@?1??type_case_Z@?$output_processor@_WV?$string_output_adapter@_W@__crt_stdio_output@@V?$positional_parameter_base@_WV?$string_output_adapter@_W@__crt_stdio_output@@@2@@1@AAE_NXZ@@Z 101210c0 f i libucrtd:output.obj
 0002:0009d240       ??$extract_argument_from_va_list@PAUansi_string@?1??type_case_Z@?$output_processor@_WV?$string_output_adapter@_W@__crt_stdio_output@@V?$positional_parameter_base@_WV?$string_output_adapter@_W@__crt_stdio_output@@@2@@__crt_stdio_output@@AAE_NXZ@PAU1?1??234@AAE_NXZ@@?$standard_base@_WV?$string_output_adapter@_W@__crt_stdio_output@@@__crt_stdio_output@@IAE_NAAPAUansi_string@?1??type_case_Z@?$output_processor@_WV?$string_output_adapter@_W@__crt_stdio_output@@V?$positional_parameter_base@_WV?$string_output_adapter@_W@__crt_stdio_output@@@2@@1@AAE_NXZ@@Z 10121240 f i libucrtd:output.obj
 0002:0009d270       ??$extract_argument_from_va_list@PAUansi_string@?1??type_case_Z@?$output_processor@_WV?$string_output_adapter@_W@__crt_stdio_output@@V?$standard_base@_WV?$string_output_adapter@_W@__crt_stdio_output@@@2@@__crt_stdio_output@@AAE_NXZ@PAU1?1??234@AAE_NXZ@@?$standard_base@_WV?$string_output_adapter@_W@__crt_stdio_output@@@__crt_stdio_output@@IAE_NAAPAUansi_string@?1??type_case_Z@?$output_processor@_WV?$string_output_adapter@_W@__crt_stdio_output@@V?$standard_base@_WV?$string_output_adapter@_W@__crt_stdio_output@@@2@@1@AAE_NXZ@@Z 10121270 f i libucrtd:output.obj
